SF:/Users/aiq/work/wezterm-parallel/src/config/hot_reload.rs
FN:29,_RNvMNtNtCsezqlaDlZ1Zy_16wezterm_parallel6config10hot_reloadNtB2_11HotReloader14start_watching
FN:89,_RNvMNtNtCsezqlaDlZ1Zy_16wezterm_parallel6config10hot_reloadNtB2_11HotReloader15try_recv_config
FN:18,_RNvMNtNtCsezqlaDlZ1Zy_16wezterm_parallel6config10hot_reloadNtB2_11HotReloader3new
FN:43,_RNCNCNCNvMNtNtCsezqlaDlZ1Zy_16wezterm_parallel6config10hot_reloadNtB8_11HotReloader14start_watching000Bc_
FN:42,_RNCNCNvMNtNtCsezqlaDlZ1Zy_16wezterm_parallel6config10hot_reloadNtB6_11HotReloader14start_watching00Ba_
FN:33,_RNCNvMNtNtCsezqlaDlZ1Zy_16wezterm_parallel6config10hot_reloadNtB4_11HotReloader14start_watching0B8_
FN:43,_RNCNCNCNvMNtNtCsbBf3qmLqCJ0_16wezterm_parallel6config10hot_reloadNtB8_11HotReloader14start_watching000Bc_
FN:42,_RNCNCNvMNtNtCsbBf3qmLqCJ0_16wezterm_parallel6config10hot_reloadNtB6_11HotReloader14start_watching00Ba_
FN:33,_RNCNvMNtNtCsbBf3qmLqCJ0_16wezterm_parallel6config10hot_reloadNtB4_11HotReloader14start_watching0B8_
FN:29,_RNvMNtNtCsbBf3qmLqCJ0_16wezterm_parallel6config10hot_reloadNtB2_11HotReloader14start_watching
FN:89,_RNvMNtNtCsbBf3qmLqCJ0_16wezterm_parallel6config10hot_reloadNtB2_11HotReloader15try_recv_config
FN:18,_RNvMNtNtCsbBf3qmLqCJ0_16wezterm_parallel6config10hot_reloadNtB2_11HotReloader3new
FNDA:0,_RNvMNtNtCsezqlaDlZ1Zy_16wezterm_parallel6config10hot_reloadNtB2_11HotReloader14start_watching
FNDA:0,_RNvMNtNtCsezqlaDlZ1Zy_16wezterm_parallel6config10hot_reloadNtB2_11HotReloader15try_recv_config
FNDA:0,_RNvMNtNtCsezqlaDlZ1Zy_16wezterm_parallel6config10hot_reloadNtB2_11HotReloader3new
FNDA:0,_RNCNCNCNvMNtNtCsezqlaDlZ1Zy_16wezterm_parallel6config10hot_reloadNtB8_11HotReloader14start_watching000Bc_
FNDA:0,_RNCNCNvMNtNtCsezqlaDlZ1Zy_16wezterm_parallel6config10hot_reloadNtB6_11HotReloader14start_watching00Ba_
FNDA:0,_RNCNvMNtNtCsezqlaDlZ1Zy_16wezterm_parallel6config10hot_reloadNtB4_11HotReloader14start_watching0B8_
FNDA:0,_RNCNCNCNvMNtNtCsbBf3qmLqCJ0_16wezterm_parallel6config10hot_reloadNtB8_11HotReloader14start_watching000Bc_
FNDA:0,_RNCNCNvMNtNtCsbBf3qmLqCJ0_16wezterm_parallel6config10hot_reloadNtB6_11HotReloader14start_watching00Ba_
FNDA:0,_RNCNvMNtNtCsbBf3qmLqCJ0_16wezterm_parallel6config10hot_reloadNtB4_11HotReloader14start_watching0B8_
FNDA:0,_RNvMNtNtCsbBf3qmLqCJ0_16wezterm_parallel6config10hot_reloadNtB2_11HotReloader14start_watching
FNDA:0,_RNvMNtNtCsbBf3qmLqCJ0_16wezterm_parallel6config10hot_reloadNtB2_11HotReloader15try_recv_config
FNDA:0,_RNvMNtNtCsbBf3qmLqCJ0_16wezterm_parallel6config10hot_reloadNtB2_11HotReloader3new
FNF:6
FNH:0
DA:18,0
DA:19,0
DA:21,0
DA:22,0
DA:23,0
DA:24,0
DA:25,0
DA:26,0
DA:27,0
DA:29,0
DA:30,0
DA:31,0
DA:33,0
DA:34,0
DA:37,0
DA:38,0
DA:39,0
DA:40,0
DA:42,0
DA:43,0
DA:44,0
DA:45,0
DA:46,0
DA:47,0
DA:48,0
DA:49,0
DA:50,0
DA:51,0
DA:52,0
DA:53,0
DA:56,0
DA:57,0
DA:58,0
DA:59,0
DA:60,0
DA:61,0
DA:64,0
DA:65,0
DA:67,0
DA:68,0
DA:69,0
DA:70,0
DA:71,0
DA:72,0
DA:73,0
DA:74,0
DA:75,0
DA:76,0
DA:78,0
DA:79,0
DA:80,0
DA:82,0
DA:84,0
DA:86,0
DA:87,0
DA:89,0
DA:90,0
DA:91,0
BRF:0
BRH:0
LF:61
LH:0
end_of_record
SF:/Users/aiq/work/wezterm-parallel/src/config/loader.rs
FN:159,_RNvMs2_NtNtCsezqlaDlZ1Zy_16wezterm_parallel6config6loaderNtB5_12ConfigLoader10load_async
FN:422,_RNvMs2_NtNtCsezqlaDlZ1Zy_16wezterm_parallel6config6loaderNtB5_12ConfigLoader11save_config
FN:310,_RNvMs2_NtNtCsezqlaDlZ1Zy_16wezterm_parallel6config6loaderNtB5_12ConfigLoader14apply_override
FN:108,_RNvMs2_NtNtCsezqlaDlZ1Zy_16wezterm_parallel6config6loaderNtB5_12ConfigLoader15add_search_path
FN:360,_RNvMs2_NtNtCsezqlaDlZ1Zy_16wezterm_parallel6config6loaderNtB5_12ConfigLoader15validate_config
FN:439,_RNvMs2_NtNtCsezqlaDlZ1Zy_16wezterm_parallel6config6loaderNtB5_12ConfigLoader17save_config_async
FN:113,_RNvMs2_NtNtCsezqlaDlZ1Zy_16wezterm_parallel6config6loaderNtB5_12ConfigLoader17set_cli_overrides
FN:99,_RNvMs2_NtNtCsezqlaDlZ1Zy_16wezterm_parallel6config6loaderNtB5_12ConfigLoader17with_search_paths
FN:267,_RNvMs2_NtNtCsezqlaDlZ1Zy_16wezterm_parallel6config6loaderNtB5_12ConfigLoader18load_env_overrides
FN:302,_RNvMs2_NtNtCsezqlaDlZ1Zy_16wezterm_parallel6config6loaderNtB5_12ConfigLoader19apply_cli_overrides
FN:294,_RNvMs2_NtNtCsezqlaDlZ1Zy_16wezterm_parallel6config6loaderNtB5_12ConfigLoader19apply_env_overrides
FN:200,_RNvMs2_NtNtCsezqlaDlZ1Zy_16wezterm_parallel6config6loaderNtB5_12ConfigLoader20find_and_load_config
FN:245,_RNvMs2_NtNtCsezqlaDlZ1Zy_16wezterm_parallel6config6loaderNtB5_12ConfigLoader26find_and_load_config_async
FN:74,_RNvMs2_NtNtCsezqlaDlZ1Zy_16wezterm_parallel6config6loaderNtB5_12ConfigLoader3new
FN:118,_RNvMs2_NtNtCsezqlaDlZ1Zy_16wezterm_parallel6config6loaderNtB5_12ConfigLoader4load
FN:45,_RNvXNtNtCsezqlaDlZ1Zy_16wezterm_parallel6config6loaderNtB2_11ConfigErrorNtNtCsd2KPTObkMr_4core3fmt7Display3fmt
FN:61,_RNvXs0_NtNtCsezqlaDlZ1Zy_16wezterm_parallel6config6loaderNtB5_11ConfigErrorINtNtCsd2KPTObkMr_4core7convert4FromNtNtNtCs9QY0sRQ9KnX_3std2io5error5ErrorE4from
FN:67,_RNvXs1_NtNtCsezqlaDlZ1Zy_16wezterm_parallel6config6loaderNtB5_11ConfigErrorINtNtCsd2KPTObkMr_4core7convert4FromNtNtCs3u5ZBO8f4qD_10serde_yaml5error5ErrorE4from
FN:461,_RNvXs3_NtNtCsezqlaDlZ1Zy_16wezterm_parallel6config6loaderNtB5_12ConfigLoaderNtNtCsd2KPTObkMr_4core7default7Default7default
FN:159,_RNCNvMs2_NtNtCsezqlaDlZ1Zy_16wezterm_parallel6config6loaderNtB7_12ConfigLoader10load_async0Bb_
FN:439,_RNCNvMs2_NtNtCsezqlaDlZ1Zy_16wezterm_parallel6config6loaderNtB7_12ConfigLoader17save_config_async0Bb_
FN:245,_RNCNvMs2_NtNtCsezqlaDlZ1Zy_16wezterm_parallel6config6loaderNtB7_12ConfigLoader26find_and_load_config_async0Bb_
FN:324,_RNCNvMs2_NtNtCsezqlaDlZ1Zy_16wezterm_parallel6config6loaderNtB7_12ConfigLoader14apply_override0Bb_
FN:335,_RNCNvMs2_NtNtCsezqlaDlZ1Zy_16wezterm_parallel6config6loaderNtB7_12ConfigLoader14apply_overrides0_0Bb_
FN:341,_RNCNvMs2_NtNtCsezqlaDlZ1Zy_16wezterm_parallel6config6loaderNtB7_12ConfigLoader14apply_overrides1_0Bb_
FN:329,_RNCNvMs2_NtNtCsezqlaDlZ1Zy_16wezterm_parallel6config6loaderNtB7_12ConfigLoader14apply_overrides_0Bb_
FN:214,_RNCNvMs2_NtNtCsezqlaDlZ1Zy_16wezterm_parallel6config6loaderNtB7_12ConfigLoader20find_and_load_config0Bb_
FN:220,_RNCNvMs2_NtNtCsezqlaDlZ1Zy_16wezterm_parallel6config6loaderNtB7_12ConfigLoader20find_and_load_configs_0Bb_
FN:159,_RNCNvMs2_NtNtCsbBf3qmLqCJ0_16wezterm_parallel6config6loaderNtB7_12ConfigLoader10load_async0Bb_
FN:439,_RNCNvMs2_NtNtCsbBf3qmLqCJ0_16wezterm_parallel6config6loaderNtB7_12ConfigLoader17save_config_async0Bb_
FN:245,_RNCNvMs2_NtNtCsbBf3qmLqCJ0_16wezterm_parallel6config6loaderNtB7_12ConfigLoader26find_and_load_config_async0Bb_
FN:159,_RNvMs2_NtNtCsbBf3qmLqCJ0_16wezterm_parallel6config6loaderNtB5_12ConfigLoader10load_async
FN:108,_RNvMs2_NtNtCsbBf3qmLqCJ0_16wezterm_parallel6config6loaderNtB5_12ConfigLoader15add_search_path
FN:439,_RNvMs2_NtNtCsbBf3qmLqCJ0_16wezterm_parallel6config6loaderNtB5_12ConfigLoader17save_config_async
FN:113,_RNvMs2_NtNtCsbBf3qmLqCJ0_16wezterm_parallel6config6loaderNtB5_12ConfigLoader17set_cli_overrides
FN:245,_RNvMs2_NtNtCsbBf3qmLqCJ0_16wezterm_parallel6config6loaderNtB5_12ConfigLoader26find_and_load_config_async
FN:45,_RNvXNtNtCsbBf3qmLqCJ0_16wezterm_parallel6config6loaderNtB2_11ConfigErrorNtNtCsd2KPTObkMr_4core3fmt7Display3fmt
FN:461,_RNvXs3_NtNtCsbBf3qmLqCJ0_16wezterm_parallel6config6loaderNtB5_12ConfigLoaderNtNtCsd2KPTObkMr_4core7default7Default7default
FN:324,_RNCNvMs2_NtNtCsbBf3qmLqCJ0_16wezterm_parallel6config6loaderNtB7_12ConfigLoader14apply_override0Bb_
FN:335,_RNCNvMs2_NtNtCsbBf3qmLqCJ0_16wezterm_parallel6config6loaderNtB7_12ConfigLoader14apply_overrides0_0Bb_
FN:341,_RNCNvMs2_NtNtCsbBf3qmLqCJ0_16wezterm_parallel6config6loaderNtB7_12ConfigLoader14apply_overrides1_0Bb_
FN:329,_RNCNvMs2_NtNtCsbBf3qmLqCJ0_16wezterm_parallel6config6loaderNtB7_12ConfigLoader14apply_overrides_0Bb_
FN:214,_RNCNvMs2_NtNtCsbBf3qmLqCJ0_16wezterm_parallel6config6loaderNtB7_12ConfigLoader20find_and_load_config0Bb_
FN:220,_RNCNvMs2_NtNtCsbBf3qmLqCJ0_16wezterm_parallel6config6loaderNtB7_12ConfigLoader20find_and_load_configs_0Bb_
FN:515,_RNCNvNtNtNtCsbBf3qmLqCJ0_16wezterm_parallel6config6loader5testss_18test_env_overrides0B9_
FN:474,_RNCNvNtNtNtCsbBf3qmLqCJ0_16wezterm_parallel6config6loader5testss_24test_load_default_config0B9_
FN:498,_RNCNvNtNtNtCsbBf3qmLqCJ0_16wezterm_parallel6config6loader5testss_25test_save_and_load_config0B9_
FN:422,_RNvMs2_NtNtCsbBf3qmLqCJ0_16wezterm_parallel6config6loaderNtB5_12ConfigLoader11save_config
FN:310,_RNvMs2_NtNtCsbBf3qmLqCJ0_16wezterm_parallel6config6loaderNtB5_12ConfigLoader14apply_override
FN:360,_RNvMs2_NtNtCsbBf3qmLqCJ0_16wezterm_parallel6config6loaderNtB5_12ConfigLoader15validate_config
FN:99,_RNvMs2_NtNtCsbBf3qmLqCJ0_16wezterm_parallel6config6loaderNtB5_12ConfigLoader17with_search_paths
FN:267,_RNvMs2_NtNtCsbBf3qmLqCJ0_16wezterm_parallel6config6loaderNtB5_12ConfigLoader18load_env_overrides
FN:302,_RNvMs2_NtNtCsbBf3qmLqCJ0_16wezterm_parallel6config6loaderNtB5_12ConfigLoader19apply_cli_overrides
FN:294,_RNvMs2_NtNtCsbBf3qmLqCJ0_16wezterm_parallel6config6loaderNtB5_12ConfigLoader19apply_env_overrides
FN:200,_RNvMs2_NtNtCsbBf3qmLqCJ0_16wezterm_parallel6config6loaderNtB5_12ConfigLoader20find_and_load_config
FN:74,_RNvMs2_NtNtCsbBf3qmLqCJ0_16wezterm_parallel6config6loaderNtB5_12ConfigLoader3new
FN:118,_RNvMs2_NtNtCsbBf3qmLqCJ0_16wezterm_parallel6config6loaderNtB5_12ConfigLoader4load
FN:61,_RNvXs0_NtNtCsbBf3qmLqCJ0_16wezterm_parallel6config6loaderNtB5_11ConfigErrorINtNtCsd2KPTObkMr_4core7convert4FromNtNtNtCs9QY0sRQ9KnX_3std2io5error5ErrorE4from
FN:67,_RNvXs1_NtNtCsbBf3qmLqCJ0_16wezterm_parallel6config6loaderNtB5_11ConfigErrorINtNtCsd2KPTObkMr_4core7convert4FromNtNtCs3u5ZBO8f4qD_10serde_yaml5error5ErrorE4from
FNDA:0,_RNvMs2_NtNtCsezqlaDlZ1Zy_16wezterm_parallel6config6loaderNtB5_12ConfigLoader10load_async
FNDA:0,_RNvMs2_NtNtCsezqlaDlZ1Zy_16wezterm_parallel6config6loaderNtB5_12ConfigLoader11save_config
FNDA:0,_RNvMs2_NtNtCsezqlaDlZ1Zy_16wezterm_parallel6config6loaderNtB5_12ConfigLoader14apply_override
FNDA:0,_RNvMs2_NtNtCsezqlaDlZ1Zy_16wezterm_parallel6config6loaderNtB5_12ConfigLoader15add_search_path
FNDA:0,_RNvMs2_NtNtCsezqlaDlZ1Zy_16wezterm_parallel6config6loaderNtB5_12ConfigLoader15validate_config
FNDA:0,_RNvMs2_NtNtCsezqlaDlZ1Zy_16wezterm_parallel6config6loaderNtB5_12ConfigLoader17save_config_async
FNDA:0,_RNvMs2_NtNtCsezqlaDlZ1Zy_16wezterm_parallel6config6loaderNtB5_12ConfigLoader17set_cli_overrides
FNDA:0,_RNvMs2_NtNtCsezqlaDlZ1Zy_16wezterm_parallel6config6loaderNtB5_12ConfigLoader17with_search_paths
FNDA:0,_RNvMs2_NtNtCsezqlaDlZ1Zy_16wezterm_parallel6config6loaderNtB5_12ConfigLoader18load_env_overrides
FNDA:0,_RNvMs2_NtNtCsezqlaDlZ1Zy_16wezterm_parallel6config6loaderNtB5_12ConfigLoader19apply_cli_overrides
FNDA:0,_RNvMs2_NtNtCsezqlaDlZ1Zy_16wezterm_parallel6config6loaderNtB5_12ConfigLoader19apply_env_overrides
FNDA:0,_RNvMs2_NtNtCsezqlaDlZ1Zy_16wezterm_parallel6config6loaderNtB5_12ConfigLoader20find_and_load_config
FNDA:0,_RNvMs2_NtNtCsezqlaDlZ1Zy_16wezterm_parallel6config6loaderNtB5_12ConfigLoader26find_and_load_config_async
FNDA:0,_RNvMs2_NtNtCsezqlaDlZ1Zy_16wezterm_parallel6config6loaderNtB5_12ConfigLoader3new
FNDA:0,_RNvMs2_NtNtCsezqlaDlZ1Zy_16wezterm_parallel6config6loaderNtB5_12ConfigLoader4load
FNDA:0,_RNvXNtNtCsezqlaDlZ1Zy_16wezterm_parallel6config6loaderNtB2_11ConfigErrorNtNtCsd2KPTObkMr_4core3fmt7Display3fmt
FNDA:0,_RNvXs0_NtNtCsezqlaDlZ1Zy_16wezterm_parallel6config6loaderNtB5_11ConfigErrorINtNtCsd2KPTObkMr_4core7convert4FromNtNtNtCs9QY0sRQ9KnX_3std2io5error5ErrorE4from
FNDA:0,_RNvXs1_NtNtCsezqlaDlZ1Zy_16wezterm_parallel6config6loaderNtB5_11ConfigErrorINtNtCsd2KPTObkMr_4core7convert4FromNtNtCs3u5ZBO8f4qD_10serde_yaml5error5ErrorE4from
FNDA:0,_RNvXs3_NtNtCsezqlaDlZ1Zy_16wezterm_parallel6config6loaderNtB5_12ConfigLoaderNtNtCsd2KPTObkMr_4core7default7Default7default
FNDA:0,_RNCNvMs2_NtNtCsezqlaDlZ1Zy_16wezterm_parallel6config6loaderNtB7_12ConfigLoader10load_async0Bb_
FNDA:0,_RNCNvMs2_NtNtCsezqlaDlZ1Zy_16wezterm_parallel6config6loaderNtB7_12ConfigLoader17save_config_async0Bb_
FNDA:0,_RNCNvMs2_NtNtCsezqlaDlZ1Zy_16wezterm_parallel6config6loaderNtB7_12ConfigLoader26find_and_load_config_async0Bb_
FNDA:0,_RNCNvMs2_NtNtCsezqlaDlZ1Zy_16wezterm_parallel6config6loaderNtB7_12ConfigLoader14apply_override0Bb_
FNDA:0,_RNCNvMs2_NtNtCsezqlaDlZ1Zy_16wezterm_parallel6config6loaderNtB7_12ConfigLoader14apply_overrides0_0Bb_
FNDA:0,_RNCNvMs2_NtNtCsezqlaDlZ1Zy_16wezterm_parallel6config6loaderNtB7_12ConfigLoader14apply_overrides1_0Bb_
FNDA:0,_RNCNvMs2_NtNtCsezqlaDlZ1Zy_16wezterm_parallel6config6loaderNtB7_12ConfigLoader14apply_overrides_0Bb_
FNDA:0,_RNCNvMs2_NtNtCsezqlaDlZ1Zy_16wezterm_parallel6config6loaderNtB7_12ConfigLoader20find_and_load_config0Bb_
FNDA:0,_RNCNvMs2_NtNtCsezqlaDlZ1Zy_16wezterm_parallel6config6loaderNtB7_12ConfigLoader20find_and_load_configs_0Bb_
FNDA:0,_RNCNvMs2_NtNtCsbBf3qmLqCJ0_16wezterm_parallel6config6loaderNtB7_12ConfigLoader10load_async0Bb_
FNDA:0,_RNCNvMs2_NtNtCsbBf3qmLqCJ0_16wezterm_parallel6config6loaderNtB7_12ConfigLoader17save_config_async0Bb_
FNDA:0,_RNCNvMs2_NtNtCsbBf3qmLqCJ0_16wezterm_parallel6config6loaderNtB7_12ConfigLoader26find_and_load_config_async0Bb_
FNDA:0,_RNvMs2_NtNtCsbBf3qmLqCJ0_16wezterm_parallel6config6loaderNtB5_12ConfigLoader10load_async
FNDA:0,_RNvMs2_NtNtCsbBf3qmLqCJ0_16wezterm_parallel6config6loaderNtB5_12ConfigLoader15add_search_path
FNDA:0,_RNvMs2_NtNtCsbBf3qmLqCJ0_16wezterm_parallel6config6loaderNtB5_12ConfigLoader17save_config_async
FNDA:0,_RNvMs2_NtNtCsbBf3qmLqCJ0_16wezterm_parallel6config6loaderNtB5_12ConfigLoader17set_cli_overrides
FNDA:0,_RNvMs2_NtNtCsbBf3qmLqCJ0_16wezterm_parallel6config6loaderNtB5_12ConfigLoader26find_and_load_config_async
FNDA:0,_RNvXNtNtCsbBf3qmLqCJ0_16wezterm_parallel6config6loaderNtB2_11ConfigErrorNtNtCsd2KPTObkMr_4core3fmt7Display3fmt
FNDA:0,_RNvXs3_NtNtCsbBf3qmLqCJ0_16wezterm_parallel6config6loaderNtB5_12ConfigLoaderNtNtCsd2KPTObkMr_4core7default7Default7default
FNDA:0,_RNCNvMs2_NtNtCsbBf3qmLqCJ0_16wezterm_parallel6config6loaderNtB7_12ConfigLoader14apply_override0Bb_
FNDA:0,_RNCNvMs2_NtNtCsbBf3qmLqCJ0_16wezterm_parallel6config6loaderNtB7_12ConfigLoader14apply_overrides0_0Bb_
FNDA:0,_RNCNvMs2_NtNtCsbBf3qmLqCJ0_16wezterm_parallel6config6loaderNtB7_12ConfigLoader14apply_overrides1_0Bb_
FNDA:0,_RNCNvMs2_NtNtCsbBf3qmLqCJ0_16wezterm_parallel6config6loaderNtB7_12ConfigLoader14apply_overrides_0Bb_
FNDA:0,_RNCNvMs2_NtNtCsbBf3qmLqCJ0_16wezterm_parallel6config6loaderNtB7_12ConfigLoader20find_and_load_config0Bb_
FNDA:0,_RNCNvMs2_NtNtCsbBf3qmLqCJ0_16wezterm_parallel6config6loaderNtB7_12ConfigLoader20find_and_load_configs_0Bb_
FNDA:1,_RNCNvNtNtNtCsbBf3qmLqCJ0_16wezterm_parallel6config6loader5testss_18test_env_overrides0B9_
FNDA:1,_RNCNvNtNtNtCsbBf3qmLqCJ0_16wezterm_parallel6config6loader5testss_24test_load_default_config0B9_
FNDA:1,_RNCNvNtNtNtCsbBf3qmLqCJ0_16wezterm_parallel6config6loader5testss_25test_save_and_load_config0B9_
FNDA:1,_RNvMs2_NtNtCsbBf3qmLqCJ0_16wezterm_parallel6config6loaderNtB5_12ConfigLoader11save_config
FNDA:1,_RNvMs2_NtNtCsbBf3qmLqCJ0_16wezterm_parallel6config6loaderNtB5_12ConfigLoader14apply_override
FNDA:3,_RNvMs2_NtNtCsbBf3qmLqCJ0_16wezterm_parallel6config6loaderNtB5_12ConfigLoader15validate_config
FNDA:3,_RNvMs2_NtNtCsbBf3qmLqCJ0_16wezterm_parallel6config6loaderNtB5_12ConfigLoader17with_search_paths
FNDA:4,_RNvMs2_NtNtCsbBf3qmLqCJ0_16wezterm_parallel6config6loaderNtB5_12ConfigLoader18load_env_overrides
FNDA:3,_RNvMs2_NtNtCsbBf3qmLqCJ0_16wezterm_parallel6config6loaderNtB5_12ConfigLoader19apply_cli_overrides
FNDA:3,_RNvMs2_NtNtCsbBf3qmLqCJ0_16wezterm_parallel6config6loaderNtB5_12ConfigLoader19apply_env_overrides
FNDA:3,_RNvMs2_NtNtCsbBf3qmLqCJ0_16wezterm_parallel6config6loaderNtB5_12ConfigLoader20find_and_load_config
FNDA:1,_RNvMs2_NtNtCsbBf3qmLqCJ0_16wezterm_parallel6config6loaderNtB5_12ConfigLoader3new
FNDA:3,_RNvMs2_NtNtCsbBf3qmLqCJ0_16wezterm_parallel6config6loaderNtB5_12ConfigLoader4load
FNDA:0,_RNvXs0_NtNtCsbBf3qmLqCJ0_16wezterm_parallel6config6loaderNtB5_11ConfigErrorINtNtCsd2KPTObkMr_4core7convert4FromNtNtNtCs9QY0sRQ9KnX_3std2io5error5ErrorE4from
FNDA:0,_RNvXs1_NtNtCsbBf3qmLqCJ0_16wezterm_parallel6config6loaderNtB5_11ConfigErrorINtNtCsd2KPTObkMr_4core7convert4FromNtNtCs3u5ZBO8f4qD_10serde_yaml5error5ErrorE4from
FNF:31
FNH:13
DA:45,0
DA:46,0
DA:47,0
DA:48,0
DA:50,0
DA:51,0
DA:52,0
DA:53,0
DA:55,0
DA:61,0
DA:62,0
DA:63,0
DA:67,0
DA:68,0
DA:69,0
DA:74,1
DA:75,1
DA:78,1
DA:79,1
DA:80,1
DA:81,1
DA:82,1
DA:85,1
DA:86,1
DA:89,1
DA:91,1
DA:92,1
DA:93,1
DA:94,1
DA:95,1
DA:96,1
DA:99,3
DA:100,3
DA:101,3
DA:102,3
DA:103,3
DA:104,3
DA:105,3
DA:108,0
DA:109,0
DA:110,0
DA:113,0
DA:114,0
DA:115,0
DA:118,3
DA:119,3
DA:120,3
DA:121,3
DA:122,3
DA:123,3
DA:128,3
DA:129,1
DA:131,2
DA:132,2
DA:133,2
DA:134,2
DA:136,2
DA:138,0
DA:142,3
DA:145,3
DA:148,3
DA:150,3
DA:151,3
DA:152,3
DA:153,3
DA:155,3
DA:156,3
DA:159,0
DA:160,0
DA:161,0
DA:162,0
DA:163,0
DA:164,0
DA:169,0
DA:170,0
DA:172,0
DA:173,0
DA:174,0
DA:175,0
DA:177,0
DA:179,0
DA:183,0
DA:186,0
DA:189,0
DA:191,0
DA:192,0
DA:193,0
DA:194,0
DA:196,0
DA:197,0
DA:200,3
DA:201,3
DA:203,3
DA:204,1
DA:205,1
DA:206,1
DA:207,1
DA:208,1
DA:209,1
DA:210,1
DA:213,1
DA:214,1
DA:216,0
DA:217,0
DA:218,0
DA:220,1
DA:222,0
DA:223,0
DA:224,0
DA:227,1
DA:228,1
DA:230,1
DA:231,0
DA:235,2
DA:236,2
DA:237,2
DA:239,2
DA:240,2
DA:241,2
DA:242,3
DA:245,0
DA:246,0
DA:247,0
DA:248,0
DA:249,0
DA:250,0
DA:251,0
DA:252,0
DA:253,0
DA:255,0
DA:256,0
DA:257,0
DA:258,0
DA:261,0
DA:262,0
DA:263,0
DA:264,0
DA:267,4
DA:268,4
DA:271,4
DA:272,4
DA:273,4
DA:274,4
DA:275,4
DA:276,4
DA:277,4
DA:278,4
DA:279,4
DA:280,4
DA:281,4
DA:282,4
DA:284,20
DA:285,16
DA:286,1
DA:287,15
DA:290,4
DA:291,4
DA:294,3
DA:295,4
DA:296,1
DA:298,3
DA:299,3
DA:302,3
DA:303,3
DA:304,0
DA:306,3
DA:307,3
DA:310,1
DA:311,1
DA:312,1
DA:313,1
DA:314,1
DA:315,1
DA:316,1
DA:317,1
DA:318,1
DA:319,1
DA:321,1
DA:322,1
DA:323,0
DA:324,0
DA:325,0
DA:326,0
DA:328,0
DA:329,0
DA:330,0
DA:331,0
DA:333,0
DA:334,0
DA:335,0
DA:336,0
DA:337,0
DA:339,0
DA:340,0
DA:341,0
DA:342,0
DA:343,0
DA:345,0
DA:346,0
DA:347,0
DA:348,0
DA:349,0
DA:350,0
DA:351,0
DA:352,0
DA:353,0
DA:356,1
DA:357,1
DA:360,3
DA:362,3
DA:363,0
DA:364,0
DA:365,0
DA:366,3
DA:368,3
DA:369,0
DA:370,0
DA:371,0
DA:372,3
DA:375,3
DA:376,0
DA:377,0
DA:378,0
DA:379,3
DA:381,3
DA:382,0
DA:383,0
DA:384,0
DA:385,3
DA:388,3
DA:389,0
DA:390,0
DA:391,0
DA:392,3
DA:395,3
DA:396,3
DA:397,0
DA:398,0
DA:399,0
DA:400,0
DA:401,3
DA:404,3
DA:405,0
DA:406,0
DA:407,0
DA:408,3
DA:410,3
DA:411,3
DA:412,0
DA:413,0
DA:414,0
DA:415,0
DA:416,3
DA:418,3
DA:419,3
DA:422,1
DA:423,1
DA:426,1
DA:427,1
DA:428,0
DA:430,1
DA:431,1
DA:432,1
DA:433,1
DA:435,1
DA:436,1
DA:439,0
DA:440,0
DA:443,0
DA:444,0
DA:445,0
DA:447,0
DA:448,0
DA:449,0
DA:450,0
DA:451,0
DA:452,0
DA:453,0
DA:456,0
DA:457,0
DA:461,0
DA:462,0
DA:463,0
DA:474,1
DA:476,1
DA:477,1
DA:478,1
DA:479,1
DA:481,1
DA:482,1
DA:484,1
DA:485,1
DA:489,1
DA:490,0
DA:491,1
DA:498,1
DA:499,1
DA:500,1
DA:502,1
DA:503,1
DA:505,1
DA:507,1
DA:508,1
DA:510,1
DA:515,1
DA:517,1
DA:520,1
DA:521,1
DA:522,1
DA:525,1
DA:526,1
DA:527,1
DA:529,1
DA:530,1
DA:532,1
DA:536,1
DA:537,0
DA:538,1
BRF:0
BRH:0
LF:333
LH:175
end_of_record
SF:/Users/aiq/work/wezterm-parallel/src/config/mod.rs
FN:212,_RNvXNtCsezqlaDlZ1Zy_16wezterm_parallel6configNtB2_12ServerConfigNtNtCsd2KPTObkMr_4core7default7Default7default
FN:236,_RNvXs0_NtCsezqlaDlZ1Zy_16wezterm_parallel6configNtB5_13ProcessConfigNtNtCsd2KPTObkMr_4core7default7Default7default
FN:250,_RNvXs1_NtCsezqlaDlZ1Zy_16wezterm_parallel6configNtB5_15DashboardConfigNtNtCsd2KPTObkMr_4core7default7Default7default
FN:262,_RNvXs2_NtCsezqlaDlZ1Zy_16wezterm_parallel6configNtB5_11ThemeConfigNtNtCsd2KPTObkMr_4core7default7Default7default
FN:277,_RNvXs3_NtCsezqlaDlZ1Zy_16wezterm_parallel6configNtB5_16KeybindingConfigNtNtCsd2KPTObkMr_4core7default7Default7default
FN:289,_RNvXs4_NtCsezqlaDlZ1Zy_16wezterm_parallel6configNtB5_13LoggingConfigNtNtCsd2KPTObkMr_4core7default7Default7default
FN:224,_RNvXs_NtCsezqlaDlZ1Zy_16wezterm_parallel6configNtB4_15WorkspaceConfigNtNtCsd2KPTObkMr_4core7default7Default7default
FN:212,_RNvXNtCsbBf3qmLqCJ0_16wezterm_parallel6configNtB2_12ServerConfigNtNtCsd2KPTObkMr_4core7default7Default7default
FN:236,_RNvXs0_NtCsbBf3qmLqCJ0_16wezterm_parallel6configNtB5_13ProcessConfigNtNtCsd2KPTObkMr_4core7default7Default7default
FN:250,_RNvXs1_NtCsbBf3qmLqCJ0_16wezterm_parallel6configNtB5_15DashboardConfigNtNtCsd2KPTObkMr_4core7default7Default7default
FN:262,_RNvXs2_NtCsbBf3qmLqCJ0_16wezterm_parallel6configNtB5_11ThemeConfigNtNtCsd2KPTObkMr_4core7default7Default7default
FN:277,_RNvXs3_NtCsbBf3qmLqCJ0_16wezterm_parallel6configNtB5_16KeybindingConfigNtNtCsd2KPTObkMr_4core7default7Default7default
FN:289,_RNvXs4_NtCsbBf3qmLqCJ0_16wezterm_parallel6configNtB5_13LoggingConfigNtNtCsd2KPTObkMr_4core7default7Default7default
FN:224,_RNvXs_NtCsbBf3qmLqCJ0_16wezterm_parallel6configNtB4_15WorkspaceConfigNtNtCsd2KPTObkMr_4core7default7Default7default
FNDA:0,_RNvXNtCsezqlaDlZ1Zy_16wezterm_parallel6configNtB2_12ServerConfigNtNtCsd2KPTObkMr_4core7default7Default7default
FNDA:0,_RNvXs0_NtCsezqlaDlZ1Zy_16wezterm_parallel6configNtB5_13ProcessConfigNtNtCsd2KPTObkMr_4core7default7Default7default
FNDA:0,_RNvXs1_NtCsezqlaDlZ1Zy_16wezterm_parallel6configNtB5_15DashboardConfigNtNtCsd2KPTObkMr_4core7default7Default7default
FNDA:0,_RNvXs2_NtCsezqlaDlZ1Zy_16wezterm_parallel6configNtB5_11ThemeConfigNtNtCsd2KPTObkMr_4core7default7Default7default
FNDA:0,_RNvXs3_NtCsezqlaDlZ1Zy_16wezterm_parallel6configNtB5_16KeybindingConfigNtNtCsd2KPTObkMr_4core7default7Default7default
FNDA:0,_RNvXs4_NtCsezqlaDlZ1Zy_16wezterm_parallel6configNtB5_13LoggingConfigNtNtCsd2KPTObkMr_4core7default7Default7default
FNDA:0,_RNvXs_NtCsezqlaDlZ1Zy_16wezterm_parallel6configNtB4_15WorkspaceConfigNtNtCsd2KPTObkMr_4core7default7Default7default
FNDA:3,_RNvXNtCsbBf3qmLqCJ0_16wezterm_parallel6configNtB2_12ServerConfigNtNtCsd2KPTObkMr_4core7default7Default7default
FNDA:3,_RNvXs0_NtCsbBf3qmLqCJ0_16wezterm_parallel6configNtB5_13ProcessConfigNtNtCsd2KPTObkMr_4core7default7Default7default
FNDA:3,_RNvXs1_NtCsbBf3qmLqCJ0_16wezterm_parallel6configNtB5_15DashboardConfigNtNtCsd2KPTObkMr_4core7default7Default7default
FNDA:3,_RNvXs2_NtCsbBf3qmLqCJ0_16wezterm_parallel6configNtB5_11ThemeConfigNtNtCsd2KPTObkMr_4core7default7Default7default
FNDA:3,_RNvXs3_NtCsbBf3qmLqCJ0_16wezterm_parallel6configNtB5_16KeybindingConfigNtNtCsd2KPTObkMr_4core7default7Default7default
FNDA:3,_RNvXs4_NtCsbBf3qmLqCJ0_16wezterm_parallel6configNtB5_13LoggingConfigNtNtCsd2KPTObkMr_4core7default7Default7default
FNDA:3,_RNvXs_NtCsbBf3qmLqCJ0_16wezterm_parallel6configNtB4_15WorkspaceConfigNtNtCsd2KPTObkMr_4core7default7Default7default
FNF:7
FNH:7
DA:212,3
DA:213,3
DA:214,3
DA:215,3
DA:216,3
DA:217,3
DA:218,3
DA:219,3
DA:220,3
DA:224,3
DA:225,3
DA:226,3
DA:227,3
DA:228,3
DA:229,3
DA:230,3
DA:231,3
DA:232,3
DA:236,3
DA:237,3
DA:238,3
DA:239,3
DA:240,3
DA:241,3
DA:242,3
DA:243,3
DA:244,3
DA:245,3
DA:246,3
DA:250,3
DA:251,3
DA:252,3
DA:253,3
DA:254,3
DA:255,3
DA:256,3
DA:257,3
DA:258,3
DA:262,3
DA:263,3
DA:264,3
DA:265,3
DA:266,3
DA:267,3
DA:268,3
DA:269,3
DA:270,3
DA:271,3
DA:272,3
DA:273,3
DA:277,3
DA:278,3
DA:279,3
DA:280,3
DA:281,3
DA:282,3
DA:283,3
DA:284,3
DA:285,3
DA:289,3
DA:290,3
DA:291,3
DA:292,3
DA:293,3
DA:294,3
DA:295,3
DA:296,3
DA:297,3
DA:298,3
DA:299,3
DA:300,3
BRF:0
BRH:0
LF:71
LH:71
end_of_record
SF:/Users/aiq/work/wezterm-parallel/src/config/validator.rs
FN:42,_RNvMNtNtCsbBf3qmLqCJ0_16wezterm_parallel6config9validatorNtB2_15ConfigValidator18validate_ui_config
FN:15,_RNvMNtNtCsbBf3qmLqCJ0_16wezterm_parallel6config9validatorNtB2_15ConfigValidator22validate_server_config
FN:46,_RNvMNtNtCsbBf3qmLqCJ0_16wezterm_parallel6config9validatorNtB2_15ConfigValidator23validate_logging_config
FN:35,_RNvMNtNtCsbBf3qmLqCJ0_16wezterm_parallel6config9validatorNtB2_15ConfigValidator23validate_process_config
FN:25,_RNvMNtNtCsbBf3qmLqCJ0_16wezterm_parallel6config9validatorNtB2_15ConfigValidator25validate_workspace_config
FN:6,_RNvMNtNtCsbBf3qmLqCJ0_16wezterm_parallel6config9validatorNtB2_15ConfigValidator8validate
FNDA:0,_RNvMNtNtCsbBf3qmLqCJ0_16wezterm_parallel6config9validatorNtB2_15ConfigValidator18validate_ui_config
FNDA:0,_RNvMNtNtCsbBf3qmLqCJ0_16wezterm_parallel6config9validatorNtB2_15ConfigValidator22validate_server_config
FNDA:0,_RNvMNtNtCsbBf3qmLqCJ0_16wezterm_parallel6config9validatorNtB2_15ConfigValidator23validate_logging_config
FNDA:0,_RNvMNtNtCsbBf3qmLqCJ0_16wezterm_parallel6config9validatorNtB2_15ConfigValidator23validate_process_config
FNDA:0,_RNvMNtNtCsbBf3qmLqCJ0_16wezterm_parallel6config9validatorNtB2_15ConfigValidator25validate_workspace_config
FNDA:0,_RNvMNtNtCsbBf3qmLqCJ0_16wezterm_parallel6config9validatorNtB2_15ConfigValidator8validate
FNF:6
FNH:0
DA:6,0
DA:7,0
DA:8,0
DA:9,0
DA:10,0
DA:11,0
DA:12,0
DA:13,0
DA:15,0
DA:16,0
DA:17,0
DA:18,0
DA:19,0
DA:20,0
DA:21,0
DA:22,0
DA:23,0
DA:25,0
DA:26,0
DA:27,0
DA:28,0
DA:29,0
DA:30,0
DA:31,0
DA:32,0
DA:33,0
DA:35,0
DA:36,0
DA:37,0
DA:38,0
DA:39,0
DA:40,0
DA:42,0
DA:43,0
DA:44,0
DA:46,0
DA:47,0
DA:48,0
DA:49,0
DA:51,0
BRF:0
BRH:0
LF:40
LH:0
end_of_record
SF:/Users/aiq/work/wezterm-parallel/src/dashboard/broadcast.rs
FN:22,_RNCNCNvMs_NtNtCsezqlaDlZ1Zy_16wezterm_parallel9dashboard9broadcastNtB8_16BroadcastManager9broadcast00Bc_
FN:19,_RNCNvMs_NtNtCsezqlaDlZ1Zy_16wezterm_parallel9dashboard9broadcastNtB6_16BroadcastManager9broadcast0Ba_
FN:26,_RNCNvMs_NtNtCsezqlaDlZ1Zy_16wezterm_parallel9dashboard9broadcastNtB6_16BroadcastManager9subscribe0Ba_
FN:14,_RNvMs_NtNtCsezqlaDlZ1Zy_16wezterm_parallel9dashboard9broadcastNtB4_16BroadcastManager3new
FN:19,_RNvMs_NtNtCsezqlaDlZ1Zy_16wezterm_parallel9dashboard9broadcastNtB4_16BroadcastManager9broadcast
FN:26,_RNvMs_NtNtCsezqlaDlZ1Zy_16wezterm_parallel9dashboard9broadcastNtB4_16BroadcastManager9subscribe
FN:8,_RNvXNtNtCsezqlaDlZ1Zy_16wezterm_parallel9dashboard9broadcastNtB2_16BroadcastManagerNtNtCsd2KPTObkMr_4core7default7Default7default
FN:22,_RNCNCNvMs_NtNtCsbBf3qmLqCJ0_16wezterm_parallel9dashboard9broadcastNtB8_16BroadcastManager9broadcast00Bc_
FN:19,_RNCNvMs_NtNtCsbBf3qmLqCJ0_16wezterm_parallel9dashboard9broadcastNtB6_16BroadcastManager9broadcast0Ba_
FN:26,_RNCNvMs_NtNtCsbBf3qmLqCJ0_16wezterm_parallel9dashboard9broadcastNtB6_16BroadcastManager9subscribe0Ba_
FN:14,_RNvMs_NtNtCsbBf3qmLqCJ0_16wezterm_parallel9dashboard9broadcastNtB4_16BroadcastManager3new
FN:19,_RNvMs_NtNtCsbBf3qmLqCJ0_16wezterm_parallel9dashboard9broadcastNtB4_16BroadcastManager9broadcast
FN:26,_RNvMs_NtNtCsbBf3qmLqCJ0_16wezterm_parallel9dashboard9broadcastNtB4_16BroadcastManager9subscribe
FN:8,_RNvXNtNtCsbBf3qmLqCJ0_16wezterm_parallel9dashboard9broadcastNtB2_16BroadcastManagerNtNtCsd2KPTObkMr_4core7default7Default7default
FNDA:0,_RNCNCNvMs_NtNtCsezqlaDlZ1Zy_16wezterm_parallel9dashboard9broadcastNtB8_16BroadcastManager9broadcast00Bc_
FNDA:0,_RNCNvMs_NtNtCsezqlaDlZ1Zy_16wezterm_parallel9dashboard9broadcastNtB6_16BroadcastManager9broadcast0Ba_
FNDA:0,_RNCNvMs_NtNtCsezqlaDlZ1Zy_16wezterm_parallel9dashboard9broadcastNtB6_16BroadcastManager9subscribe0Ba_
FNDA:0,_RNvMs_NtNtCsezqlaDlZ1Zy_16wezterm_parallel9dashboard9broadcastNtB4_16BroadcastManager3new
FNDA:0,_RNvMs_NtNtCsezqlaDlZ1Zy_16wezterm_parallel9dashboard9broadcastNtB4_16BroadcastManager9broadcast
FNDA:0,_RNvMs_NtNtCsezqlaDlZ1Zy_16wezterm_parallel9dashboard9broadcastNtB4_16BroadcastManager9subscribe
FNDA:0,_RNvXNtNtCsezqlaDlZ1Zy_16wezterm_parallel9dashboard9broadcastNtB2_16BroadcastManagerNtNtCsd2KPTObkMr_4core7default7Default7default
FNDA:0,_RNCNCNvMs_NtNtCsbBf3qmLqCJ0_16wezterm_parallel9dashboard9broadcastNtB8_16BroadcastManager9broadcast00Bc_
FNDA:0,_RNCNvMs_NtNtCsbBf3qmLqCJ0_16wezterm_parallel9dashboard9broadcastNtB6_16BroadcastManager9broadcast0Ba_
FNDA:0,_RNCNvMs_NtNtCsbBf3qmLqCJ0_16wezterm_parallel9dashboard9broadcastNtB6_16BroadcastManager9subscribe0Ba_
FNDA:0,_RNvMs_NtNtCsbBf3qmLqCJ0_16wezterm_parallel9dashboard9broadcastNtB4_16BroadcastManager3new
FNDA:0,_RNvMs_NtNtCsbBf3qmLqCJ0_16wezterm_parallel9dashboard9broadcastNtB4_16BroadcastManager9broadcast
FNDA:0,_RNvMs_NtNtCsbBf3qmLqCJ0_16wezterm_parallel9dashboard9broadcastNtB4_16BroadcastManager9subscribe
FNDA:0,_RNvXNtNtCsbBf3qmLqCJ0_16wezterm_parallel9dashboard9broadcastNtB2_16BroadcastManagerNtNtCsd2KPTObkMr_4core7default7Default7default
FNF:7
FNH:0
DA:8,0
DA:9,0
DA:10,0
DA:14,0
DA:15,0
DA:16,0
DA:17,0
DA:19,0
DA:20,0
DA:21,0
DA:22,0
DA:23,0
DA:24,0
DA:26,0
DA:27,0
DA:28,0
BRF:0
BRH:0
LF:19
LH:0
end_of_record
SF:/Users/aiq/work/wezterm-parallel/src/dashboard/handlers.rs
FN:7,_RINvNtNtCsezqlaDlZ1Zy_16wezterm_parallel9dashboard8handlers16handle_websocketpEB6_
FN:13,_RNCINvNtNtCsezqlaDlZ1Zy_16wezterm_parallel9dashboard8handlers16handle_websocketpE0B8_
FN:22,_RNCNCINvNtNtCsezqlaDlZ1Zy_16wezterm_parallel9dashboard8handlers16handle_websocketpE00Ba_
FN:33,_RNCNCINvNtNtCsezqlaDlZ1Zy_16wezterm_parallel9dashboard8handlers16handle_websocketpE0s_0Ba_
FN:65,_RNCNvNtNtCsezqlaDlZ1Zy_16wezterm_parallel9dashboard8handlers19handle_static_files0B7_
FN:65,_RNvNtNtCsezqlaDlZ1Zy_16wezterm_parallel9dashboard8handlers19handle_static_files
FN:7,_RINvNtNtCsbBf3qmLqCJ0_16wezterm_parallel9dashboard8handlers16handle_websocketpEB6_
FN:13,_RNCINvNtNtCsbBf3qmLqCJ0_16wezterm_parallel9dashboard8handlers16handle_websocketpE0B8_
FN:22,_RNCNCINvNtNtCsbBf3qmLqCJ0_16wezterm_parallel9dashboard8handlers16handle_websocketpE00Ba_
FN:33,_RNCNCINvNtNtCsbBf3qmLqCJ0_16wezterm_parallel9dashboard8handlers16handle_websocketpE0s_0Ba_
FN:65,_RNCNvNtNtCsbBf3qmLqCJ0_16wezterm_parallel9dashboard8handlers19handle_static_files0B7_
FN:65,_RNvNtNtCsbBf3qmLqCJ0_16wezterm_parallel9dashboard8handlers19handle_static_files
FNDA:0,_RINvNtNtCsezqlaDlZ1Zy_16wezterm_parallel9dashboard8handlers16handle_websocketpEB6_
FNDA:0,_RNCINvNtNtCsezqlaDlZ1Zy_16wezterm_parallel9dashboard8handlers16handle_websocketpE0B8_
FNDA:0,_RNCNCINvNtNtCsezqlaDlZ1Zy_16wezterm_parallel9dashboard8handlers16handle_websocketpE00Ba_
FNDA:0,_RNCNCINvNtNtCsezqlaDlZ1Zy_16wezterm_parallel9dashboard8handlers16handle_websocketpE0s_0Ba_
FNDA:0,_RNCNvNtNtCsezqlaDlZ1Zy_16wezterm_parallel9dashboard8handlers19handle_static_files0B7_
FNDA:0,_RNvNtNtCsezqlaDlZ1Zy_16wezterm_parallel9dashboard8handlers19handle_static_files
FNDA:0,_RINvNtNtCsbBf3qmLqCJ0_16wezterm_parallel9dashboard8handlers16handle_websocketpEB6_
FNDA:0,_RNCINvNtNtCsbBf3qmLqCJ0_16wezterm_parallel9dashboard8handlers16handle_websocketpE0B8_
FNDA:0,_RNCNCINvNtNtCsbBf3qmLqCJ0_16wezterm_parallel9dashboard8handlers16handle_websocketpE00Ba_
FNDA:0,_RNCNCINvNtNtCsbBf3qmLqCJ0_16wezterm_parallel9dashboard8handlers16handle_websocketpE0s_0Ba_
FNDA:0,_RNCNvNtNtCsbBf3qmLqCJ0_16wezterm_parallel9dashboard8handlers19handle_static_files0B7_
FNDA:0,_RNvNtNtCsbBf3qmLqCJ0_16wezterm_parallel9dashboard8handlers19handle_static_files
FNF:6
FNH:0
DA:7,0
DA:8,0
DA:9,0
DA:10,0
DA:11,0
DA:12,0
DA:13,0
DA:14,0
DA:15,0
DA:18,0
DA:19,0
DA:22,0
DA:23,0
DA:24,0
DA:25,0
DA:26,0
DA:27,0
DA:28,0
DA:30,0
DA:33,0
DA:34,0
DA:35,0
DA:36,0
DA:37,0
DA:41,0
DA:42,0
DA:44,0
DA:45,0
DA:46,0
DA:48,0
DA:51,0
DA:53,0
DA:54,0
DA:55,0
DA:57,0
DA:58,0
DA:62,0
DA:63,0
DA:65,0
DA:67,0
DA:68,0
BRF:0
BRH:0
LF:44
LH:0
end_of_record
SF:/Users/aiq/work/wezterm-parallel/src/dashboard/mod.rs
FN:448,_RNCNCNvMs_NtCsezqlaDlZ1Zy_16wezterm_parallel9dashboardNtB8_14DashboardState18should_send_update00Ba_
FN:453,_RNCNCNvMs_NtCsezqlaDlZ1Zy_16wezterm_parallel9dashboardNtB8_14DashboardState18should_send_update0s_0Ba_
FN:471,_RNCNCNvMs_NtCsezqlaDlZ1Zy_16wezterm_parallel9dashboardNtB8_14DashboardState24get_client_subscriptions00Ba_
FN:427,_RNCNvMs_NtCsezqlaDlZ1Zy_16wezterm_parallel9dashboardNtB6_14DashboardState12client_count0B8_
FN:432,_RNCNvMs_NtCsezqlaDlZ1Zy_16wezterm_parallel9dashboardNtB6_14DashboardState14update_metrics0B8_
FN:415,_RNCNvMs_NtCsezqlaDlZ1Zy_16wezterm_parallel9dashboardNtB6_14DashboardState15register_client0B8_
FN:421,_RNCNvMs_NtCsezqlaDlZ1Zy_16wezterm_parallel9dashboardNtB6_14DashboardState17unregister_client0B8_
FN:438,_RNCNvMs_NtCsezqlaDlZ1Zy_16wezterm_parallel9dashboardNtB6_14DashboardState18should_send_update0B8_
FN:466,_RNCNvMs_NtCsezqlaDlZ1Zy_16wezterm_parallel9dashboardNtB6_14DashboardState24get_client_subscriptions0B8_
FN:481,_RNCNvMs_NtCsezqlaDlZ1Zy_16wezterm_parallel9dashboardNtB6_14DashboardState9get_stats0B8_
FN:427,_RNCNvMs_NtCsezqlaDlZ1Zy_16wezterm_parallel9dashboardNtB6_14DashboardState12client_count0CspnWSjikcw4_22end_to_end_integration
FN:481,_RNCNvMs_NtCsezqlaDlZ1Zy_16wezterm_parallel9dashboardNtB6_14DashboardState9get_stats0CspnWSjikcw4_22end_to_end_integration
FN:600,_RNvMs0_NtCsezqlaDlZ1Zy_16wezterm_parallel9dashboardNtB5_13MetricsUpdate11incremental
FN:577,_RNvMs0_NtCsezqlaDlZ1Zy_16wezterm_parallel9dashboardNtB5_13MetricsUpdate4full
FN:616,_RNvMs0_NtCsezqlaDlZ1Zy_16wezterm_parallel9dashboardNtB5_13MetricsUpdate8priority
FN:427,_RNvMs_NtCsezqlaDlZ1Zy_16wezterm_parallel9dashboardNtB4_14DashboardState12client_count
FN:432,_RNvMs_NtCsezqlaDlZ1Zy_16wezterm_parallel9dashboardNtB4_14DashboardState14update_metrics
FN:415,_RNvMs_NtCsezqlaDlZ1Zy_16wezterm_parallel9dashboardNtB4_14DashboardState15register_client
FN:421,_RNvMs_NtCsezqlaDlZ1Zy_16wezterm_parallel9dashboardNtB4_14DashboardState17unregister_client
FN:438,_RNvMs_NtCsezqlaDlZ1Zy_16wezterm_parallel9dashboardNtB4_14DashboardState18should_send_update
FN:466,_RNvMs_NtCsezqlaDlZ1Zy_16wezterm_parallel9dashboardNtB4_14DashboardState24get_client_subscriptions
FN:396,_RNvMs_NtCsezqlaDlZ1Zy_16wezterm_parallel9dashboardNtB4_14DashboardState3new
FN:476,_RNvMs_NtCsezqlaDlZ1Zy_16wezterm_parallel9dashboardNtB4_14DashboardState9broadcast
FN:481,_RNvMs_NtCsezqlaDlZ1Zy_16wezterm_parallel9dashboardNtB4_14DashboardState9get_stats
FN:45,_RNvXNtCsezqlaDlZ1Zy_16wezterm_parallel9dashboardNtB2_15DashboardConfigNtNtCsd2KPTObkMr_4core7default7Default7default
FN:448,_RNCNCNvMs_NtCsezqlaDlZ1Zy_16wezterm_parallel9dashboardNtB8_14DashboardState18should_send_update00CsjIgq8mvfQLP_16wezterm_parallel
FN:453,_RNCNCNvMs_NtCsezqlaDlZ1Zy_16wezterm_parallel9dashboardNtB8_14DashboardState18should_send_update0s_0CsjIgq8mvfQLP_16wezterm_parallel
FN:427,_RNCNvMs_NtCsezqlaDlZ1Zy_16wezterm_parallel9dashboardNtB6_14DashboardState12client_count0CsjIgq8mvfQLP_16wezterm_parallel
FN:415,_RNCNvMs_NtCsezqlaDlZ1Zy_16wezterm_parallel9dashboardNtB6_14DashboardState15register_client0CsjIgq8mvfQLP_16wezterm_parallel
FN:421,_RNCNvMs_NtCsezqlaDlZ1Zy_16wezterm_parallel9dashboardNtB6_14DashboardState17unregister_client0CsjIgq8mvfQLP_16wezterm_parallel
FN:438,_RNCNvMs_NtCsezqlaDlZ1Zy_16wezterm_parallel9dashboardNtB6_14DashboardState18should_send_update0CsjIgq8mvfQLP_16wezterm_parallel
FN:471,_RNCNCNvMs_NtCsbBf3qmLqCJ0_16wezterm_parallel9dashboardNtB8_14DashboardState24get_client_subscriptions00Ba_
FN:432,_RNCNvMs_NtCsbBf3qmLqCJ0_16wezterm_parallel9dashboardNtB6_14DashboardState14update_metrics0B8_
FN:466,_RNCNvMs_NtCsbBf3qmLqCJ0_16wezterm_parallel9dashboardNtB6_14DashboardState24get_client_subscriptions0B8_
FN:600,_RNvMs0_NtCsbBf3qmLqCJ0_16wezterm_parallel9dashboardNtB5_13MetricsUpdate11incremental
FN:616,_RNvMs0_NtCsbBf3qmLqCJ0_16wezterm_parallel9dashboardNtB5_13MetricsUpdate8priority
FN:432,_RNvMs_NtCsbBf3qmLqCJ0_16wezterm_parallel9dashboardNtB4_14DashboardState14update_metrics
FN:466,_RNvMs_NtCsbBf3qmLqCJ0_16wezterm_parallel9dashboardNtB4_14DashboardState24get_client_subscriptions
FN:448,_RNCNCNvMs_NtCsbBf3qmLqCJ0_16wezterm_parallel9dashboardNtB8_14DashboardState18should_send_update00Ba_
FN:453,_RNCNCNvMs_NtCsbBf3qmLqCJ0_16wezterm_parallel9dashboardNtB8_14DashboardState18should_send_update0s_0Ba_
FN:427,_RNCNvMs_NtCsbBf3qmLqCJ0_16wezterm_parallel9dashboardNtB6_14DashboardState12client_count0B8_
FN:415,_RNCNvMs_NtCsbBf3qmLqCJ0_16wezterm_parallel9dashboardNtB6_14DashboardState15register_client0B8_
FN:421,_RNCNvMs_NtCsbBf3qmLqCJ0_16wezterm_parallel9dashboardNtB6_14DashboardState17unregister_client0B8_
FN:438,_RNCNvMs_NtCsbBf3qmLqCJ0_16wezterm_parallel9dashboardNtB6_14DashboardState18should_send_update0B8_
FN:481,_RNCNvMs_NtCsbBf3qmLqCJ0_16wezterm_parallel9dashboardNtB6_14DashboardState9get_stats0B8_
FN:577,_RNvMs0_NtCsbBf3qmLqCJ0_16wezterm_parallel9dashboardNtB5_13MetricsUpdate4full
FN:427,_RNvMs_NtCsbBf3qmLqCJ0_16wezterm_parallel9dashboardNtB4_14DashboardState12client_count
FN:415,_RNvMs_NtCsbBf3qmLqCJ0_16wezterm_parallel9dashboardNtB4_14DashboardState15register_client
FN:421,_RNvMs_NtCsbBf3qmLqCJ0_16wezterm_parallel9dashboardNtB4_14DashboardState17unregister_client
FN:438,_RNvMs_NtCsbBf3qmLqCJ0_16wezterm_parallel9dashboardNtB4_14DashboardState18should_send_update
FN:396,_RNvMs_NtCsbBf3qmLqCJ0_16wezterm_parallel9dashboardNtB4_14DashboardState3new
FN:476,_RNvMs_NtCsbBf3qmLqCJ0_16wezterm_parallel9dashboardNtB4_14DashboardState9broadcast
FN:481,_RNvMs_NtCsbBf3qmLqCJ0_16wezterm_parallel9dashboardNtB4_14DashboardState9get_stats
FN:45,_RNvXNtCsbBf3qmLqCJ0_16wezterm_parallel9dashboardNtB2_15DashboardConfigNtNtCsd2KPTObkMr_4core7default7Default7default
FNDA:0,_RNCNCNvMs_NtCsezqlaDlZ1Zy_16wezterm_parallel9dashboardNtB8_14DashboardState18should_send_update00Ba_
FNDA:0,_RNCNCNvMs_NtCsezqlaDlZ1Zy_16wezterm_parallel9dashboardNtB8_14DashboardState18should_send_update0s_0Ba_
FNDA:0,_RNCNCNvMs_NtCsezqlaDlZ1Zy_16wezterm_parallel9dashboardNtB8_14DashboardState24get_client_subscriptions00Ba_
FNDA:0,_RNCNvMs_NtCsezqlaDlZ1Zy_16wezterm_parallel9dashboardNtB6_14DashboardState12client_count0B8_
FNDA:0,_RNCNvMs_NtCsezqlaDlZ1Zy_16wezterm_parallel9dashboardNtB6_14DashboardState14update_metrics0B8_
FNDA:0,_RNCNvMs_NtCsezqlaDlZ1Zy_16wezterm_parallel9dashboardNtB6_14DashboardState15register_client0B8_
FNDA:0,_RNCNvMs_NtCsezqlaDlZ1Zy_16wezterm_parallel9dashboardNtB6_14DashboardState17unregister_client0B8_
FNDA:0,_RNCNvMs_NtCsezqlaDlZ1Zy_16wezterm_parallel9dashboardNtB6_14DashboardState18should_send_update0B8_
FNDA:0,_RNCNvMs_NtCsezqlaDlZ1Zy_16wezterm_parallel9dashboardNtB6_14DashboardState24get_client_subscriptions0B8_
FNDA:0,_RNCNvMs_NtCsezqlaDlZ1Zy_16wezterm_parallel9dashboardNtB6_14DashboardState9get_stats0B8_
FNDA:1,_RNCNvMs_NtCsezqlaDlZ1Zy_16wezterm_parallel9dashboardNtB6_14DashboardState12client_count0CspnWSjikcw4_22end_to_end_integration
FNDA:2,_RNCNvMs_NtCsezqlaDlZ1Zy_16wezterm_parallel9dashboardNtB6_14DashboardState9get_stats0CspnWSjikcw4_22end_to_end_integration
FNDA:0,_RNvMs0_NtCsezqlaDlZ1Zy_16wezterm_parallel9dashboardNtB5_13MetricsUpdate11incremental
FNDA:0,_RNvMs0_NtCsezqlaDlZ1Zy_16wezterm_parallel9dashboardNtB5_13MetricsUpdate4full
FNDA:0,_RNvMs0_NtCsezqlaDlZ1Zy_16wezterm_parallel9dashboardNtB5_13MetricsUpdate8priority
FNDA:1,_RNvMs_NtCsezqlaDlZ1Zy_16wezterm_parallel9dashboardNtB4_14DashboardState12client_count
FNDA:0,_RNvMs_NtCsezqlaDlZ1Zy_16wezterm_parallel9dashboardNtB4_14DashboardState14update_metrics
FNDA:0,_RNvMs_NtCsezqlaDlZ1Zy_16wezterm_parallel9dashboardNtB4_14DashboardState15register_client
FNDA:0,_RNvMs_NtCsezqlaDlZ1Zy_16wezterm_parallel9dashboardNtB4_14DashboardState17unregister_client
FNDA:0,_RNvMs_NtCsezqlaDlZ1Zy_16wezterm_parallel9dashboardNtB4_14DashboardState18should_send_update
FNDA:0,_RNvMs_NtCsezqlaDlZ1Zy_16wezterm_parallel9dashboardNtB4_14DashboardState24get_client_subscriptions
FNDA:2,_RNvMs_NtCsezqlaDlZ1Zy_16wezterm_parallel9dashboardNtB4_14DashboardState3new
FNDA:0,_RNvMs_NtCsezqlaDlZ1Zy_16wezterm_parallel9dashboardNtB4_14DashboardState9broadcast
FNDA:2,_RNvMs_NtCsezqlaDlZ1Zy_16wezterm_parallel9dashboardNtB4_14DashboardState9get_stats
FNDA:0,_RNvXNtCsezqlaDlZ1Zy_16wezterm_parallel9dashboardNtB2_15DashboardConfigNtNtCsd2KPTObkMr_4core7default7Default7default
FNDA:0,_RNCNCNvMs_NtCsezqlaDlZ1Zy_16wezterm_parallel9dashboardNtB8_14DashboardState18should_send_update00CsjIgq8mvfQLP_16wezterm_parallel
FNDA:0,_RNCNCNvMs_NtCsezqlaDlZ1Zy_16wezterm_parallel9dashboardNtB8_14DashboardState18should_send_update0s_0CsjIgq8mvfQLP_16wezterm_parallel
FNDA:0,_RNCNvMs_NtCsezqlaDlZ1Zy_16wezterm_parallel9dashboardNtB6_14DashboardState12client_count0CsjIgq8mvfQLP_16wezterm_parallel
FNDA:0,_RNCNvMs_NtCsezqlaDlZ1Zy_16wezterm_parallel9dashboardNtB6_14DashboardState15register_client0CsjIgq8mvfQLP_16wezterm_parallel
FNDA:0,_RNCNvMs_NtCsezqlaDlZ1Zy_16wezterm_parallel9dashboardNtB6_14DashboardState17unregister_client0CsjIgq8mvfQLP_16wezterm_parallel
FNDA:0,_RNCNvMs_NtCsezqlaDlZ1Zy_16wezterm_parallel9dashboardNtB6_14DashboardState18should_send_update0CsjIgq8mvfQLP_16wezterm_parallel
FNDA:0,_RNCNCNvMs_NtCsbBf3qmLqCJ0_16wezterm_parallel9dashboardNtB8_14DashboardState24get_client_subscriptions00Ba_
FNDA:0,_RNCNvMs_NtCsbBf3qmLqCJ0_16wezterm_parallel9dashboardNtB6_14DashboardState14update_metrics0B8_
FNDA:0,_RNCNvMs_NtCsbBf3qmLqCJ0_16wezterm_parallel9dashboardNtB6_14DashboardState24get_client_subscriptions0B8_
FNDA:0,_RNvMs0_NtCsbBf3qmLqCJ0_16wezterm_parallel9dashboardNtB5_13MetricsUpdate11incremental
FNDA:0,_RNvMs0_NtCsbBf3qmLqCJ0_16wezterm_parallel9dashboardNtB5_13MetricsUpdate8priority
FNDA:0,_RNvMs_NtCsbBf3qmLqCJ0_16wezterm_parallel9dashboardNtB4_14DashboardState14update_metrics
FNDA:0,_RNvMs_NtCsbBf3qmLqCJ0_16wezterm_parallel9dashboardNtB4_14DashboardState24get_client_subscriptions
FNDA:0,_RNCNCNvMs_NtCsbBf3qmLqCJ0_16wezterm_parallel9dashboardNtB8_14DashboardState18should_send_update00Ba_
FNDA:0,_RNCNCNvMs_NtCsbBf3qmLqCJ0_16wezterm_parallel9dashboardNtB8_14DashboardState18should_send_update0s_0Ba_
FNDA:0,_RNCNvMs_NtCsbBf3qmLqCJ0_16wezterm_parallel9dashboardNtB6_14DashboardState12client_count0B8_
FNDA:0,_RNCNvMs_NtCsbBf3qmLqCJ0_16wezterm_parallel9dashboardNtB6_14DashboardState15register_client0B8_
FNDA:0,_RNCNvMs_NtCsbBf3qmLqCJ0_16wezterm_parallel9dashboardNtB6_14DashboardState17unregister_client0B8_
FNDA:0,_RNCNvMs_NtCsbBf3qmLqCJ0_16wezterm_parallel9dashboardNtB6_14DashboardState18should_send_update0B8_
FNDA:1,_RNCNvMs_NtCsbBf3qmLqCJ0_16wezterm_parallel9dashboardNtB6_14DashboardState9get_stats0B8_
FNDA:0,_RNvMs0_NtCsbBf3qmLqCJ0_16wezterm_parallel9dashboardNtB5_13MetricsUpdate4full
FNDA:0,_RNvMs_NtCsbBf3qmLqCJ0_16wezterm_parallel9dashboardNtB4_14DashboardState12client_count
FNDA:0,_RNvMs_NtCsbBf3qmLqCJ0_16wezterm_parallel9dashboardNtB4_14DashboardState15register_client
FNDA:0,_RNvMs_NtCsbBf3qmLqCJ0_16wezterm_parallel9dashboardNtB4_14DashboardState17unregister_client
FNDA:0,_RNvMs_NtCsbBf3qmLqCJ0_16wezterm_parallel9dashboardNtB4_14DashboardState18should_send_update
FNDA:3,_RNvMs_NtCsbBf3qmLqCJ0_16wezterm_parallel9dashboardNtB4_14DashboardState3new
FNDA:0,_RNvMs_NtCsbBf3qmLqCJ0_16wezterm_parallel9dashboardNtB4_14DashboardState9broadcast
FNDA:1,_RNvMs_NtCsbBf3qmLqCJ0_16wezterm_parallel9dashboardNtB4_14DashboardState9get_stats
FNDA:3,_RNvXNtCsbBf3qmLqCJ0_16wezterm_parallel9dashboardNtB2_15DashboardConfigNtNtCsd2KPTObkMr_4core7default7Default7default
FNF:23
FNH:6
DA:45,3
DA:46,3
DA:47,3
DA:48,3
DA:49,3
DA:50,3
DA:51,3
DA:52,3
DA:53,3
DA:54,3
DA:55,3
DA:396,5
DA:397,5
DA:398,5
DA:401,5
DA:403,5
DA:404,5
DA:405,5
DA:406,5
DA:407,5
DA:408,5
DA:409,5
DA:411,5
DA:412,5
DA:415,0
DA:416,0
DA:417,0
DA:418,0
DA:421,0
DA:422,0
DA:423,0
DA:424,0
DA:427,1
DA:428,1
DA:429,1
DA:432,0
DA:433,0
DA:434,0
DA:435,0
DA:438,0
DA:439,0
DA:441,0
DA:443,0
DA:444,0
DA:445,0
DA:446,0
DA:447,0
DA:448,0
DA:449,0
DA:450,0
DA:452,0
DA:453,0
DA:454,0
DA:455,0
DA:457,0
DA:460,0
DA:462,0
DA:463,0
DA:466,0
DA:467,0
DA:469,0
DA:470,0
DA:471,0
DA:472,0
DA:473,0
DA:476,0
DA:477,0
DA:478,0
DA:481,3
DA:482,3
DA:483,3
DA:485,3
DA:486,3
DA:487,3
DA:488,3
DA:489,3
DA:490,3
DA:491,3
DA:492,3
DA:577,0
DA:578,0
DA:579,0
DA:582,0
DA:583,0
DA:584,0
DA:585,0
DA:586,0
DA:589,0
DA:590,0
DA:591,0
DA:592,0
DA:593,0
DA:594,0
DA:595,0
DA:596,0
DA:597,0
DA:600,0
DA:601,0
DA:602,0
DA:603,0
DA:604,0
DA:605,0
DA:606,0
DA:607,0
DA:608,0
DA:609,0
DA:610,0
DA:611,0
DA:612,0
DA:613,0
DA:616,0
DA:617,0
DA:618,0
DA:619,0
DA:620,0
DA:621,0
DA:622,0
DA:623,0
DA:624,0
DA:625,0
BRF:0
BRH:0
LF:130
LH:40
end_of_record
SF:/Users/aiq/work/wezterm-parallel/src/dashboard/server.rs
FN:33,_RNCNCNvMNtNtCsezqlaDlZ1Zy_16wezterm_parallel9dashboard6serverNtB6_15DashboardServer5start00Ba_
FN:23,_RNCNvMNtNtCsezqlaDlZ1Zy_16wezterm_parallel9dashboard6serverNtB4_15DashboardServer5start0B8_
FN:50,_RNvMNtNtCsezqlaDlZ1Zy_16wezterm_parallel9dashboard6serverNtB2_15DashboardServer21get_broadcast_manager
FN:16,_RNvMNtNtCsezqlaDlZ1Zy_16wezterm_parallel9dashboard6serverNtB2_15DashboardServer3new
FN:23,_RNvMNtNtCsezqlaDlZ1Zy_16wezterm_parallel9dashboard6serverNtB2_15DashboardServer5start
FN:33,_RNCNCNvMNtNtCsbBf3qmLqCJ0_16wezterm_parallel9dashboard6serverNtB6_15DashboardServer5start00Ba_
FN:23,_RNCNvMNtNtCsbBf3qmLqCJ0_16wezterm_parallel9dashboard6serverNtB4_15DashboardServer5start0B8_
FN:50,_RNvMNtNtCsbBf3qmLqCJ0_16wezterm_parallel9dashboard6serverNtB2_15DashboardServer21get_broadcast_manager
FN:16,_RNvMNtNtCsbBf3qmLqCJ0_16wezterm_parallel9dashboard6serverNtB2_15DashboardServer3new
FN:23,_RNvMNtNtCsbBf3qmLqCJ0_16wezterm_parallel9dashboard6serverNtB2_15DashboardServer5start
FNDA:0,_RNCNCNvMNtNtCsezqlaDlZ1Zy_16wezterm_parallel9dashboard6serverNtB6_15DashboardServer5start00Ba_
FNDA:0,_RNCNvMNtNtCsezqlaDlZ1Zy_16wezterm_parallel9dashboard6serverNtB4_15DashboardServer5start0B8_
FNDA:0,_RNvMNtNtCsezqlaDlZ1Zy_16wezterm_parallel9dashboard6serverNtB2_15DashboardServer21get_broadcast_manager
FNDA:0,_RNvMNtNtCsezqlaDlZ1Zy_16wezterm_parallel9dashboard6serverNtB2_15DashboardServer3new
FNDA:0,_RNvMNtNtCsezqlaDlZ1Zy_16wezterm_parallel9dashboard6serverNtB2_15DashboardServer5start
FNDA:0,_RNCNCNvMNtNtCsbBf3qmLqCJ0_16wezterm_parallel9dashboard6serverNtB6_15DashboardServer5start00Ba_
FNDA:0,_RNCNvMNtNtCsbBf3qmLqCJ0_16wezterm_parallel9dashboard6serverNtB4_15DashboardServer5start0B8_
FNDA:0,_RNvMNtNtCsbBf3qmLqCJ0_16wezterm_parallel9dashboard6serverNtB2_15DashboardServer21get_broadcast_manager
FNDA:0,_RNvMNtNtCsbBf3qmLqCJ0_16wezterm_parallel9dashboard6serverNtB2_15DashboardServer3new
FNDA:0,_RNvMNtNtCsbBf3qmLqCJ0_16wezterm_parallel9dashboard6serverNtB2_15DashboardServer5start
FNF:5
FNH:0
DA:16,0
DA:17,0
DA:18,0
DA:19,0
DA:20,0
DA:21,0
DA:23,0
DA:24,0
DA:25,0
DA:26,0
DA:28,0
DA:29,0
DA:31,0
DA:33,0
DA:34,0
DA:35,0
DA:36,0
DA:37,0
DA:38,0
DA:40,0
DA:41,0
DA:44,0
DA:47,0
DA:48,0
DA:50,0
DA:51,0
DA:52,0
BRF:0
BRH:0
LF:29
LH:0
end_of_record
SF:/Users/aiq/work/wezterm-parallel/src/dashboard/task_board.rs
FN:228,_RNCNCNCNvMNtNtCsezqlaDlZ1Zy_16wezterm_parallel9dashboard10task_boardNtB8_16TaskBoardManager15get_board_state0s_00Bc_
FN:235,_RNCNCNCNvMNtNtCsezqlaDlZ1Zy_16wezterm_parallel9dashboard10task_boardNtB8_16TaskBoardManager15get_board_state0s_0s0_0Bc_
FN:229,_RNCNCNCNvMNtNtCsezqlaDlZ1Zy_16wezterm_parallel9dashboard10task_boardNtB8_16TaskBoardManager15get_board_state0s_0s_0Bc_
FN:198,_RNCNCNvMNtNtCsezqlaDlZ1Zy_16wezterm_parallel9dashboard10task_boardNtB6_16TaskBoardManager15get_board_state00Ba_
FN:227,_RNCNCNvMNtNtCsezqlaDlZ1Zy_16wezterm_parallel9dashboard10task_boardNtB6_16TaskBoardManager15get_board_state0s_0Ba_
FN:341,_RNCNCNvMNtNtCsezqlaDlZ1Zy_16wezterm_parallel9dashboard10task_boardNtB6_16TaskBoardManager20update_task_progress00Ba_
FN:349,_RNCNCNvMNtNtCsezqlaDlZ1Zy_16wezterm_parallel9dashboard10task_boardNtB6_16TaskBoardManager20update_task_progress0s_0Ba_
FN:560,_RNCNCNvMNtNtCsezqlaDlZ1Zy_16wezterm_parallel9dashboard10task_boardNtB6_16TaskBoardManager23start_real_time_updates00Ba_
FN:394,_RNCNCNvMNtNtCsezqlaDlZ1Zy_16wezterm_parallel9dashboard10task_boardNtB6_16TaskBoardManager26create_task_from_dashboard00Ba_
FN:401,_RNCNCNvMNtNtCsezqlaDlZ1Zy_16wezterm_parallel9dashboard10task_boardNtB6_16TaskBoardManager26create_task_from_dashboard0s_0Ba_
FN:465,_RNCNCNvMNtNtCsezqlaDlZ1Zy_16wezterm_parallel9dashboard10task_boardNtB6_16TaskBoardManager26delete_task_from_dashboard00Ba_
FN:432,_RNCNCNvMNtNtCsezqlaDlZ1Zy_16wezterm_parallel9dashboard10task_boardNtB6_16TaskBoardManager26update_task_from_dashboard00Ba_
FN:443,_RNCNCNvMNtNtCsezqlaDlZ1Zy_16wezterm_parallel9dashboard10task_boardNtB6_16TaskBoardManager26update_task_from_dashboard0s_0Ba_
FN:263,_RNCNCNvMNtNtCsezqlaDlZ1Zy_16wezterm_parallel9dashboard10task_boardNtB6_16TaskBoardManager9move_task00Ba_
FN:285,_RNCNCNvMNtNtCsezqlaDlZ1Zy_16wezterm_parallel9dashboard10task_boardNtB6_16TaskBoardManager9move_task0s_0Ba_
FN:45,_RNCNvMNtNtCsezqlaDlZ1Zy_16wezterm_parallel9dashboard10task_boardNtB4_16TaskBoardManager10initialize0B8_
FN:550,_RNCNvMNtNtCsezqlaDlZ1Zy_16wezterm_parallel9dashboard10task_boardNtB4_16TaskBoardManager11list_boards0B8_
FN:117,_RNCNvMNtNtCsezqlaDlZ1Zy_16wezterm_parallel9dashboard10task_boardNtB4_16TaskBoardManager12create_board0B8_
FN:175,_RNCNvMNtNtCsezqlaDlZ1Zy_16wezterm_parallel9dashboard10task_boardNtB4_16TaskBoardManager12delete_board0B8_
FN:146,_RNCNvMNtNtCsezqlaDlZ1Zy_16wezterm_parallel9dashboard10task_boardNtB4_16TaskBoardManager12update_board0B8_
FN:194,_RNCNvMNtNtCsezqlaDlZ1Zy_16wezterm_parallel9dashboard10task_boardNtB4_16TaskBoardManager15get_board_state0B8_
FN:335,_RNCNvMNtNtCsezqlaDlZ1Zy_16wezterm_parallel9dashboard10task_boardNtB4_16TaskBoardManager20update_task_progress0B8_
FN:506,_RNCNvMNtNtCsezqlaDlZ1Zy_16wezterm_parallel9dashboard10task_boardNtB4_16TaskBoardManager21broadcast_task_update0B8_
FN:492,_RNCNvMNtNtCsezqlaDlZ1Zy_16wezterm_parallel9dashboard10task_boardNtB4_16TaskBoardManager22broadcast_board_update0B8_
FN:556,_RNCNvMNtNtCsezqlaDlZ1Zy_16wezterm_parallel9dashboard10task_boardNtB4_16TaskBoardManager23start_real_time_updates0B8_
FN:391,_RNCNvMNtNtCsezqlaDlZ1Zy_16wezterm_parallel9dashboard10task_boardNtB4_16TaskBoardManager26create_task_from_dashboard0B8_
FN:459,_RNCNvMNtNtCsezqlaDlZ1Zy_16wezterm_parallel9dashboard10task_boardNtB4_16TaskBoardManager26delete_task_from_dashboard0B8_
FN:429,_RNCNvMNtNtCsezqlaDlZ1Zy_16wezterm_parallel9dashboard10task_boardNtB4_16TaskBoardManager26update_task_from_dashboard0B8_
FN:111,_RNCNvMNtNtCsezqlaDlZ1Zy_16wezterm_parallel9dashboard10task_boardNtB4_16TaskBoardManager9get_board0B8_
FN:257,_RNCNvMNtNtCsezqlaDlZ1Zy_16wezterm_parallel9dashboard10task_boardNtB4_16TaskBoardManager9move_task0B8_
FN:45,_RNvMNtNtCsezqlaDlZ1Zy_16wezterm_parallel9dashboard10task_boardNtB2_16TaskBoardManager10initialize
FN:550,_RNvMNtNtCsezqlaDlZ1Zy_16wezterm_parallel9dashboard10task_boardNtB2_16TaskBoardManager11list_boards
FN:117,_RNvMNtNtCsezqlaDlZ1Zy_16wezterm_parallel9dashboard10task_boardNtB2_16TaskBoardManager12create_board
FN:175,_RNvMNtNtCsezqlaDlZ1Zy_16wezterm_parallel9dashboard10task_boardNtB2_16TaskBoardManager12delete_board
FN:146,_RNvMNtNtCsezqlaDlZ1Zy_16wezterm_parallel9dashboard10task_boardNtB2_16TaskBoardManager12update_board
FN:194,_RNvMNtNtCsezqlaDlZ1Zy_16wezterm_parallel9dashboard10task_boardNtB2_16TaskBoardManager15get_board_state
FN:536,_RNvMNtNtCsezqlaDlZ1Zy_16wezterm_parallel9dashboard10task_boardNtB2_16TaskBoardManager19status_to_column_id
FN:335,_RNvMNtNtCsezqlaDlZ1Zy_16wezterm_parallel9dashboard10task_boardNtB2_16TaskBoardManager20update_task_progress
FN:506,_RNvMNtNtCsezqlaDlZ1Zy_16wezterm_parallel9dashboard10task_boardNtB2_16TaskBoardManager21broadcast_task_update
FN:489,_RNvMNtNtCsezqlaDlZ1Zy_16wezterm_parallel9dashboard10task_boardNtB2_16TaskBoardManager22broadcast_board_update
FN:556,_RNvMNtNtCsezqlaDlZ1Zy_16wezterm_parallel9dashboard10task_boardNtB2_16TaskBoardManager23start_real_time_updates
FN:388,_RNvMNtNtCsezqlaDlZ1Zy_16wezterm_parallel9dashboard10task_boardNtB2_16TaskBoardManager26create_task_from_dashboard
FN:459,_RNvMNtNtCsezqlaDlZ1Zy_16wezterm_parallel9dashboard10task_boardNtB2_16TaskBoardManager26delete_task_from_dashboard
FN:425,_RNvMNtNtCsezqlaDlZ1Zy_16wezterm_parallel9dashboard10task_boardNtB2_16TaskBoardManager26update_task_from_dashboard
FN:66,_RNvMNtNtCsezqlaDlZ1Zy_16wezterm_parallel9dashboard10task_boardNtB2_16TaskBoardManager27create_default_board_config
FN:30,_RNvMNtNtCsezqlaDlZ1Zy_16wezterm_parallel9dashboard10task_boardNtB2_16TaskBoardManager3new
FN:111,_RNvMNtNtCsezqlaDlZ1Zy_16wezterm_parallel9dashboard10task_boardNtB2_16TaskBoardManager9get_board
FN:251,_RNvMNtNtCsezqlaDlZ1Zy_16wezterm_parallel9dashboard10task_boardNtB2_16TaskBoardManager9move_task
FN:228,_RNCNCNCNvMNtNtCsezqlaDlZ1Zy_16wezterm_parallel9dashboard10task_boardNtB8_16TaskBoardManager15get_board_state0s_00CsjIgq8mvfQLP_16wezterm_parallel
FN:235,_RNCNCNCNvMNtNtCsezqlaDlZ1Zy_16wezterm_parallel9dashboard10task_boardNtB8_16TaskBoardManager15get_board_state0s_0s0_0CsjIgq8mvfQLP_16wezterm_parallel
FN:229,_RNCNCNCNvMNtNtCsezqlaDlZ1Zy_16wezterm_parallel9dashboard10task_boardNtB8_16TaskBoardManager15get_board_state0s_0s_0CsjIgq8mvfQLP_16wezterm_parallel
FN:198,_RNCNCNvMNtNtCsezqlaDlZ1Zy_16wezterm_parallel9dashboard10task_boardNtB6_16TaskBoardManager15get_board_state00CsjIgq8mvfQLP_16wezterm_parallel
FN:227,_RNCNCNvMNtNtCsezqlaDlZ1Zy_16wezterm_parallel9dashboard10task_boardNtB6_16TaskBoardManager15get_board_state0s_0CsjIgq8mvfQLP_16wezterm_parallel
FN:341,_RNCNCNvMNtNtCsezqlaDlZ1Zy_16wezterm_parallel9dashboard10task_boardNtB6_16TaskBoardManager20update_task_progress00CsjIgq8mvfQLP_16wezterm_parallel
FN:349,_RNCNCNvMNtNtCsezqlaDlZ1Zy_16wezterm_parallel9dashboard10task_boardNtB6_16TaskBoardManager20update_task_progress0s_0CsjIgq8mvfQLP_16wezterm_parallel
FN:394,_RNCNCNvMNtNtCsezqlaDlZ1Zy_16wezterm_parallel9dashboard10task_boardNtB6_16TaskBoardManager26create_task_from_dashboard00CsjIgq8mvfQLP_16wezterm_parallel
FN:401,_RNCNCNvMNtNtCsezqlaDlZ1Zy_16wezterm_parallel9dashboard10task_boardNtB6_16TaskBoardManager26create_task_from_dashboard0s_0CsjIgq8mvfQLP_16wezterm_parallel
FN:465,_RNCNCNvMNtNtCsezqlaDlZ1Zy_16wezterm_parallel9dashboard10task_boardNtB6_16TaskBoardManager26delete_task_from_dashboard00CsjIgq8mvfQLP_16wezterm_parallel
FN:432,_RNCNCNvMNtNtCsezqlaDlZ1Zy_16wezterm_parallel9dashboard10task_boardNtB6_16TaskBoardManager26update_task_from_dashboard00CsjIgq8mvfQLP_16wezterm_parallel
FN:443,_RNCNCNvMNtNtCsezqlaDlZ1Zy_16wezterm_parallel9dashboard10task_boardNtB6_16TaskBoardManager26update_task_from_dashboard0s_0CsjIgq8mvfQLP_16wezterm_parallel
FN:263,_RNCNCNvMNtNtCsezqlaDlZ1Zy_16wezterm_parallel9dashboard10task_boardNtB6_16TaskBoardManager9move_task00CsjIgq8mvfQLP_16wezterm_parallel
FN:285,_RNCNCNvMNtNtCsezqlaDlZ1Zy_16wezterm_parallel9dashboard10task_boardNtB6_16TaskBoardManager9move_task0s_0CsjIgq8mvfQLP_16wezterm_parallel
FN:45,_RNCNvMNtNtCsezqlaDlZ1Zy_16wezterm_parallel9dashboard10task_boardNtB4_16TaskBoardManager10initialize0CsjIgq8mvfQLP_16wezterm_parallel
FN:194,_RNCNvMNtNtCsezqlaDlZ1Zy_16wezterm_parallel9dashboard10task_boardNtB4_16TaskBoardManager15get_board_state0CsjIgq8mvfQLP_16wezterm_parallel
FN:335,_RNCNvMNtNtCsezqlaDlZ1Zy_16wezterm_parallel9dashboard10task_boardNtB4_16TaskBoardManager20update_task_progress0CsjIgq8mvfQLP_16wezterm_parallel
FN:506,_RNCNvMNtNtCsezqlaDlZ1Zy_16wezterm_parallel9dashboard10task_boardNtB4_16TaskBoardManager21broadcast_task_update0CsjIgq8mvfQLP_16wezterm_parallel
FN:492,_RNCNvMNtNtCsezqlaDlZ1Zy_16wezterm_parallel9dashboard10task_boardNtB4_16TaskBoardManager22broadcast_board_update0CsjIgq8mvfQLP_16wezterm_parallel
FN:391,_RNCNvMNtNtCsezqlaDlZ1Zy_16wezterm_parallel9dashboard10task_boardNtB4_16TaskBoardManager26create_task_from_dashboard0CsjIgq8mvfQLP_16wezterm_parallel
FN:459,_RNCNvMNtNtCsezqlaDlZ1Zy_16wezterm_parallel9dashboard10task_boardNtB4_16TaskBoardManager26delete_task_from_dashboard0CsjIgq8mvfQLP_16wezterm_parallel
FN:429,_RNCNvMNtNtCsezqlaDlZ1Zy_16wezterm_parallel9dashboard10task_boardNtB4_16TaskBoardManager26update_task_from_dashboard0CsjIgq8mvfQLP_16wezterm_parallel
FN:111,_RNCNvMNtNtCsezqlaDlZ1Zy_16wezterm_parallel9dashboard10task_boardNtB4_16TaskBoardManager9get_board0CsjIgq8mvfQLP_16wezterm_parallel
FN:257,_RNCNvMNtNtCsezqlaDlZ1Zy_16wezterm_parallel9dashboard10task_boardNtB4_16TaskBoardManager9move_task0CsjIgq8mvfQLP_16wezterm_parallel
FN:613,_RNvNtNtNtCsbBf3qmLqCJ0_16wezterm_parallel9dashboard10task_board5tests24create_test_task_manager
FN:732,_RNvNtNtNtCsbBf3qmLqCJ0_16wezterm_parallel9dashboard10task_board5testss_25test_update_task_progress
FN:654,_RNvNtNtNtCsbBf3qmLqCJ0_16wezterm_parallel9dashboard10task_board5testss_27test_board_state_with_tasks
FN:700,_RNvNtNtNtCsbBf3qmLqCJ0_16wezterm_parallel9dashboard10task_board5testss_30test_move_task_between_columns
FN:629,_RNvNtNtNtCsbBf3qmLqCJ0_16wezterm_parallel9dashboard10task_board5testss_32test_task_board_manager_creation
FN:560,_RNCNCNvMNtNtCsbBf3qmLqCJ0_16wezterm_parallel9dashboard10task_boardNtB6_16TaskBoardManager23start_real_time_updates00Ba_
FN:550,_RNCNvMNtNtCsbBf3qmLqCJ0_16wezterm_parallel9dashboard10task_boardNtB4_16TaskBoardManager11list_boards0B8_
FN:117,_RNCNvMNtNtCsbBf3qmLqCJ0_16wezterm_parallel9dashboard10task_boardNtB4_16TaskBoardManager12create_board0B8_
FN:175,_RNCNvMNtNtCsbBf3qmLqCJ0_16wezterm_parallel9dashboard10task_boardNtB4_16TaskBoardManager12delete_board0B8_
FN:146,_RNCNvMNtNtCsbBf3qmLqCJ0_16wezterm_parallel9dashboard10task_boardNtB4_16TaskBoardManager12update_board0B8_
FN:556,_RNCNvMNtNtCsbBf3qmLqCJ0_16wezterm_parallel9dashboard10task_boardNtB4_16TaskBoardManager23start_real_time_updates0B8_
FN:550,_RNvMNtNtCsbBf3qmLqCJ0_16wezterm_parallel9dashboard10task_boardNtB2_16TaskBoardManager11list_boards
FN:117,_RNvMNtNtCsbBf3qmLqCJ0_16wezterm_parallel9dashboard10task_boardNtB2_16TaskBoardManager12create_board
FN:175,_RNvMNtNtCsbBf3qmLqCJ0_16wezterm_parallel9dashboard10task_boardNtB2_16TaskBoardManager12delete_board
FN:146,_RNvMNtNtCsbBf3qmLqCJ0_16wezterm_parallel9dashboard10task_boardNtB2_16TaskBoardManager12update_board
FN:556,_RNvMNtNtCsbBf3qmLqCJ0_16wezterm_parallel9dashboard10task_boardNtB2_16TaskBoardManager23start_real_time_updates
FN:45,_RNvMNtNtCsbBf3qmLqCJ0_16wezterm_parallel9dashboard10task_boardNtB2_16TaskBoardManager10initialize
FN:194,_RNvMNtNtCsbBf3qmLqCJ0_16wezterm_parallel9dashboard10task_boardNtB2_16TaskBoardManager15get_board_state
FN:536,_RNvMNtNtCsbBf3qmLqCJ0_16wezterm_parallel9dashboard10task_boardNtB2_16TaskBoardManager19status_to_column_id
FN:335,_RNvMNtNtCsbBf3qmLqCJ0_16wezterm_parallel9dashboard10task_boardNtB2_16TaskBoardManager20update_task_progress
FN:506,_RNvMNtNtCsbBf3qmLqCJ0_16wezterm_parallel9dashboard10task_boardNtB2_16TaskBoardManager21broadcast_task_update
FN:489,_RNvMNtNtCsbBf3qmLqCJ0_16wezterm_parallel9dashboard10task_boardNtB2_16TaskBoardManager22broadcast_board_update
FN:388,_RNvMNtNtCsbBf3qmLqCJ0_16wezterm_parallel9dashboard10task_boardNtB2_16TaskBoardManager26create_task_from_dashboard
FN:459,_RNvMNtNtCsbBf3qmLqCJ0_16wezterm_parallel9dashboard10task_boardNtB2_16TaskBoardManager26delete_task_from_dashboard
FN:425,_RNvMNtNtCsbBf3qmLqCJ0_16wezterm_parallel9dashboard10task_boardNtB2_16TaskBoardManager26update_task_from_dashboard
FN:66,_RNvMNtNtCsbBf3qmLqCJ0_16wezterm_parallel9dashboard10task_boardNtB2_16TaskBoardManager27create_default_board_config
FN:30,_RNvMNtNtCsbBf3qmLqCJ0_16wezterm_parallel9dashboard10task_boardNtB2_16TaskBoardManager3new
FN:111,_RNvMNtNtCsbBf3qmLqCJ0_16wezterm_parallel9dashboard10task_boardNtB2_16TaskBoardManager9get_board
FN:251,_RNvMNtNtCsbBf3qmLqCJ0_16wezterm_parallel9dashboard10task_boardNtB2_16TaskBoardManager9move_task
FN:739,_RNCNCNvNtNtNtCsbBf3qmLqCJ0_16wezterm_parallel9dashboard10task_board5testss_25test_update_task_progress00Bb_
FN:661,_RNCNCNvNtNtNtCsbBf3qmLqCJ0_16wezterm_parallel9dashboard10task_board5testss_27test_board_state_with_tasks00Bb_
FN:692,_RNCNCNvNtNtNtCsbBf3qmLqCJ0_16wezterm_parallel9dashboard10task_board5testss_27test_board_state_with_tasks0s0_0Bb_
FN:688,_RNCNCNvNtNtNtCsbBf3qmLqCJ0_16wezterm_parallel9dashboard10task_board5testss_27test_board_state_with_tasks0s_0Bb_
FN:707,_RNCNCNvNtNtNtCsbBf3qmLqCJ0_16wezterm_parallel9dashboard10task_board5testss_30test_move_task_between_columns00Bb_
FN:636,_RNCNCNvNtNtNtCsbBf3qmLqCJ0_16wezterm_parallel9dashboard10task_board5testss_32test_task_board_manager_creation00Bb_
FN:732,_RNCNvNtNtNtCsbBf3qmLqCJ0_16wezterm_parallel9dashboard10task_board5testss_25test_update_task_progress0B9_
FN:654,_RNCNvNtNtNtCsbBf3qmLqCJ0_16wezterm_parallel9dashboard10task_board5testss_27test_board_state_with_tasks0B9_
FN:700,_RNCNvNtNtNtCsbBf3qmLqCJ0_16wezterm_parallel9dashboard10task_board5testss_30test_move_task_between_columns0B9_
FN:629,_RNCNvNtNtNtCsbBf3qmLqCJ0_16wezterm_parallel9dashboard10task_board5testss_32test_task_board_manager_creation0B9_
FN:228,_RNCNCNCNvMNtNtCsbBf3qmLqCJ0_16wezterm_parallel9dashboard10task_boardNtB8_16TaskBoardManager15get_board_state0s_00Bc_
FN:235,_RNCNCNCNvMNtNtCsbBf3qmLqCJ0_16wezterm_parallel9dashboard10task_boardNtB8_16TaskBoardManager15get_board_state0s_0s0_0Bc_
FN:229,_RNCNCNCNvMNtNtCsbBf3qmLqCJ0_16wezterm_parallel9dashboard10task_boardNtB8_16TaskBoardManager15get_board_state0s_0s_0Bc_
FN:198,_RNCNCNvMNtNtCsbBf3qmLqCJ0_16wezterm_parallel9dashboard10task_boardNtB6_16TaskBoardManager15get_board_state00Ba_
FN:227,_RNCNCNvMNtNtCsbBf3qmLqCJ0_16wezterm_parallel9dashboard10task_boardNtB6_16TaskBoardManager15get_board_state0s_0Ba_
FN:341,_RNCNCNvMNtNtCsbBf3qmLqCJ0_16wezterm_parallel9dashboard10task_boardNtB6_16TaskBoardManager20update_task_progress00Ba_
FN:349,_RNCNCNvMNtNtCsbBf3qmLqCJ0_16wezterm_parallel9dashboard10task_boardNtB6_16TaskBoardManager20update_task_progress0s_0Ba_
FN:394,_RNCNCNvMNtNtCsbBf3qmLqCJ0_16wezterm_parallel9dashboard10task_boardNtB6_16TaskBoardManager26create_task_from_dashboard00Ba_
FN:401,_RNCNCNvMNtNtCsbBf3qmLqCJ0_16wezterm_parallel9dashboard10task_boardNtB6_16TaskBoardManager26create_task_from_dashboard0s_0Ba_
FN:465,_RNCNCNvMNtNtCsbBf3qmLqCJ0_16wezterm_parallel9dashboard10task_boardNtB6_16TaskBoardManager26delete_task_from_dashboard00Ba_
FN:432,_RNCNCNvMNtNtCsbBf3qmLqCJ0_16wezterm_parallel9dashboard10task_boardNtB6_16TaskBoardManager26update_task_from_dashboard00Ba_
FN:443,_RNCNCNvMNtNtCsbBf3qmLqCJ0_16wezterm_parallel9dashboard10task_boardNtB6_16TaskBoardManager26update_task_from_dashboard0s_0Ba_
FN:263,_RNCNCNvMNtNtCsbBf3qmLqCJ0_16wezterm_parallel9dashboard10task_boardNtB6_16TaskBoardManager9move_task00Ba_
FN:285,_RNCNCNvMNtNtCsbBf3qmLqCJ0_16wezterm_parallel9dashboard10task_boardNtB6_16TaskBoardManager9move_task0s_0Ba_
FN:45,_RNCNvMNtNtCsbBf3qmLqCJ0_16wezterm_parallel9dashboard10task_boardNtB4_16TaskBoardManager10initialize0B8_
FN:194,_RNCNvMNtNtCsbBf3qmLqCJ0_16wezterm_parallel9dashboard10task_boardNtB4_16TaskBoardManager15get_board_state0B8_
FN:335,_RNCNvMNtNtCsbBf3qmLqCJ0_16wezterm_parallel9dashboard10task_boardNtB4_16TaskBoardManager20update_task_progress0B8_
FN:506,_RNCNvMNtNtCsbBf3qmLqCJ0_16wezterm_parallel9dashboard10task_boardNtB4_16TaskBoardManager21broadcast_task_update0B8_
FN:492,_RNCNvMNtNtCsbBf3qmLqCJ0_16wezterm_parallel9dashboard10task_boardNtB4_16TaskBoardManager22broadcast_board_update0B8_
FN:391,_RNCNvMNtNtCsbBf3qmLqCJ0_16wezterm_parallel9dashboard10task_boardNtB4_16TaskBoardManager26create_task_from_dashboard0B8_
FN:459,_RNCNvMNtNtCsbBf3qmLqCJ0_16wezterm_parallel9dashboard10task_boardNtB4_16TaskBoardManager26delete_task_from_dashboard0B8_
FN:429,_RNCNvMNtNtCsbBf3qmLqCJ0_16wezterm_parallel9dashboard10task_boardNtB4_16TaskBoardManager26update_task_from_dashboard0B8_
FN:111,_RNCNvMNtNtCsbBf3qmLqCJ0_16wezterm_parallel9dashboard10task_boardNtB4_16TaskBoardManager9get_board0B8_
FN:257,_RNCNvMNtNtCsbBf3qmLqCJ0_16wezterm_parallel9dashboard10task_boardNtB4_16TaskBoardManager9move_task0B8_
FNDA:0,_RNCNCNCNvMNtNtCsezqlaDlZ1Zy_16wezterm_parallel9dashboard10task_boardNtB8_16TaskBoardManager15get_board_state0s_00Bc_
FNDA:0,_RNCNCNCNvMNtNtCsezqlaDlZ1Zy_16wezterm_parallel9dashboard10task_boardNtB8_16TaskBoardManager15get_board_state0s_0s0_0Bc_
FNDA:0,_RNCNCNCNvMNtNtCsezqlaDlZ1Zy_16wezterm_parallel9dashboard10task_boardNtB8_16TaskBoardManager15get_board_state0s_0s_0Bc_
FNDA:0,_RNCNCNvMNtNtCsezqlaDlZ1Zy_16wezterm_parallel9dashboard10task_boardNtB6_16TaskBoardManager15get_board_state00Ba_
FNDA:0,_RNCNCNvMNtNtCsezqlaDlZ1Zy_16wezterm_parallel9dashboard10task_boardNtB6_16TaskBoardManager15get_board_state0s_0Ba_
FNDA:0,_RNCNCNvMNtNtCsezqlaDlZ1Zy_16wezterm_parallel9dashboard10task_boardNtB6_16TaskBoardManager20update_task_progress00Ba_
FNDA:0,_RNCNCNvMNtNtCsezqlaDlZ1Zy_16wezterm_parallel9dashboard10task_boardNtB6_16TaskBoardManager20update_task_progress0s_0Ba_
FNDA:0,_RNCNCNvMNtNtCsezqlaDlZ1Zy_16wezterm_parallel9dashboard10task_boardNtB6_16TaskBoardManager23start_real_time_updates00Ba_
FNDA:0,_RNCNCNvMNtNtCsezqlaDlZ1Zy_16wezterm_parallel9dashboard10task_boardNtB6_16TaskBoardManager26create_task_from_dashboard00Ba_
FNDA:0,_RNCNCNvMNtNtCsezqlaDlZ1Zy_16wezterm_parallel9dashboard10task_boardNtB6_16TaskBoardManager26create_task_from_dashboard0s_0Ba_
FNDA:0,_RNCNCNvMNtNtCsezqlaDlZ1Zy_16wezterm_parallel9dashboard10task_boardNtB6_16TaskBoardManager26delete_task_from_dashboard00Ba_
FNDA:0,_RNCNCNvMNtNtCsezqlaDlZ1Zy_16wezterm_parallel9dashboard10task_boardNtB6_16TaskBoardManager26update_task_from_dashboard00Ba_
FNDA:0,_RNCNCNvMNtNtCsezqlaDlZ1Zy_16wezterm_parallel9dashboard10task_boardNtB6_16TaskBoardManager26update_task_from_dashboard0s_0Ba_
FNDA:0,_RNCNCNvMNtNtCsezqlaDlZ1Zy_16wezterm_parallel9dashboard10task_boardNtB6_16TaskBoardManager9move_task00Ba_
FNDA:0,_RNCNCNvMNtNtCsezqlaDlZ1Zy_16wezterm_parallel9dashboard10task_boardNtB6_16TaskBoardManager9move_task0s_0Ba_
FNDA:0,_RNCNvMNtNtCsezqlaDlZ1Zy_16wezterm_parallel9dashboard10task_boardNtB4_16TaskBoardManager10initialize0B8_
FNDA:0,_RNCNvMNtNtCsezqlaDlZ1Zy_16wezterm_parallel9dashboard10task_boardNtB4_16TaskBoardManager11list_boards0B8_
FNDA:0,_RNCNvMNtNtCsezqlaDlZ1Zy_16wezterm_parallel9dashboard10task_boardNtB4_16TaskBoardManager12create_board0B8_
FNDA:0,_RNCNvMNtNtCsezqlaDlZ1Zy_16wezterm_parallel9dashboard10task_boardNtB4_16TaskBoardManager12delete_board0B8_
FNDA:0,_RNCNvMNtNtCsezqlaDlZ1Zy_16wezterm_parallel9dashboard10task_boardNtB4_16TaskBoardManager12update_board0B8_
FNDA:0,_RNCNvMNtNtCsezqlaDlZ1Zy_16wezterm_parallel9dashboard10task_boardNtB4_16TaskBoardManager15get_board_state0B8_
FNDA:0,_RNCNvMNtNtCsezqlaDlZ1Zy_16wezterm_parallel9dashboard10task_boardNtB4_16TaskBoardManager20update_task_progress0B8_
FNDA:0,_RNCNvMNtNtCsezqlaDlZ1Zy_16wezterm_parallel9dashboard10task_boardNtB4_16TaskBoardManager21broadcast_task_update0B8_
FNDA:0,_RNCNvMNtNtCsezqlaDlZ1Zy_16wezterm_parallel9dashboard10task_boardNtB4_16TaskBoardManager22broadcast_board_update0B8_
FNDA:0,_RNCNvMNtNtCsezqlaDlZ1Zy_16wezterm_parallel9dashboard10task_boardNtB4_16TaskBoardManager23start_real_time_updates0B8_
FNDA:0,_RNCNvMNtNtCsezqlaDlZ1Zy_16wezterm_parallel9dashboard10task_boardNtB4_16TaskBoardManager26create_task_from_dashboard0B8_
FNDA:0,_RNCNvMNtNtCsezqlaDlZ1Zy_16wezterm_parallel9dashboard10task_boardNtB4_16TaskBoardManager26delete_task_from_dashboard0B8_
FNDA:0,_RNCNvMNtNtCsezqlaDlZ1Zy_16wezterm_parallel9dashboard10task_boardNtB4_16TaskBoardManager26update_task_from_dashboard0B8_
FNDA:0,_RNCNvMNtNtCsezqlaDlZ1Zy_16wezterm_parallel9dashboard10task_boardNtB4_16TaskBoardManager9get_board0B8_
FNDA:0,_RNCNvMNtNtCsezqlaDlZ1Zy_16wezterm_parallel9dashboard10task_boardNtB4_16TaskBoardManager9move_task0B8_
FNDA:0,_RNvMNtNtCsezqlaDlZ1Zy_16wezterm_parallel9dashboard10task_boardNtB2_16TaskBoardManager10initialize
FNDA:0,_RNvMNtNtCsezqlaDlZ1Zy_16wezterm_parallel9dashboard10task_boardNtB2_16TaskBoardManager11list_boards
FNDA:0,_RNvMNtNtCsezqlaDlZ1Zy_16wezterm_parallel9dashboard10task_boardNtB2_16TaskBoardManager12create_board
FNDA:0,_RNvMNtNtCsezqlaDlZ1Zy_16wezterm_parallel9dashboard10task_boardNtB2_16TaskBoardManager12delete_board
FNDA:0,_RNvMNtNtCsezqlaDlZ1Zy_16wezterm_parallel9dashboard10task_boardNtB2_16TaskBoardManager12update_board
FNDA:0,_RNvMNtNtCsezqlaDlZ1Zy_16wezterm_parallel9dashboard10task_boardNtB2_16TaskBoardManager15get_board_state
FNDA:0,_RNvMNtNtCsezqlaDlZ1Zy_16wezterm_parallel9dashboard10task_boardNtB2_16TaskBoardManager19status_to_column_id
FNDA:0,_RNvMNtNtCsezqlaDlZ1Zy_16wezterm_parallel9dashboard10task_boardNtB2_16TaskBoardManager20update_task_progress
FNDA:0,_RNvMNtNtCsezqlaDlZ1Zy_16wezterm_parallel9dashboard10task_boardNtB2_16TaskBoardManager21broadcast_task_update
FNDA:0,_RNvMNtNtCsezqlaDlZ1Zy_16wezterm_parallel9dashboard10task_boardNtB2_16TaskBoardManager22broadcast_board_update
FNDA:0,_RNvMNtNtCsezqlaDlZ1Zy_16wezterm_parallel9dashboard10task_boardNtB2_16TaskBoardManager23start_real_time_updates
FNDA:0,_RNvMNtNtCsezqlaDlZ1Zy_16wezterm_parallel9dashboard10task_boardNtB2_16TaskBoardManager26create_task_from_dashboard
FNDA:0,_RNvMNtNtCsezqlaDlZ1Zy_16wezterm_parallel9dashboard10task_boardNtB2_16TaskBoardManager26delete_task_from_dashboard
FNDA:0,_RNvMNtNtCsezqlaDlZ1Zy_16wezterm_parallel9dashboard10task_boardNtB2_16TaskBoardManager26update_task_from_dashboard
FNDA:0,_RNvMNtNtCsezqlaDlZ1Zy_16wezterm_parallel9dashboard10task_boardNtB2_16TaskBoardManager27create_default_board_config
FNDA:0,_RNvMNtNtCsezqlaDlZ1Zy_16wezterm_parallel9dashboard10task_boardNtB2_16TaskBoardManager3new
FNDA:0,_RNvMNtNtCsezqlaDlZ1Zy_16wezterm_parallel9dashboard10task_boardNtB2_16TaskBoardManager9get_board
FNDA:0,_RNvMNtNtCsezqlaDlZ1Zy_16wezterm_parallel9dashboard10task_boardNtB2_16TaskBoardManager9move_task
FNDA:0,_RNCNCNCNvMNtNtCsezqlaDlZ1Zy_16wezterm_parallel9dashboard10task_boardNtB8_16TaskBoardManager15get_board_state0s_00CsjIgq8mvfQLP_16wezterm_parallel
FNDA:0,_RNCNCNCNvMNtNtCsezqlaDlZ1Zy_16wezterm_parallel9dashboard10task_boardNtB8_16TaskBoardManager15get_board_state0s_0s0_0CsjIgq8mvfQLP_16wezterm_parallel
FNDA:0,_RNCNCNCNvMNtNtCsezqlaDlZ1Zy_16wezterm_parallel9dashboard10task_boardNtB8_16TaskBoardManager15get_board_state0s_0s_0CsjIgq8mvfQLP_16wezterm_parallel
FNDA:0,_RNCNCNvMNtNtCsezqlaDlZ1Zy_16wezterm_parallel9dashboard10task_boardNtB6_16TaskBoardManager15get_board_state00CsjIgq8mvfQLP_16wezterm_parallel
FNDA:0,_RNCNCNvMNtNtCsezqlaDlZ1Zy_16wezterm_parallel9dashboard10task_boardNtB6_16TaskBoardManager15get_board_state0s_0CsjIgq8mvfQLP_16wezterm_parallel
FNDA:0,_RNCNCNvMNtNtCsezqlaDlZ1Zy_16wezterm_parallel9dashboard10task_boardNtB6_16TaskBoardManager20update_task_progress00CsjIgq8mvfQLP_16wezterm_parallel
FNDA:0,_RNCNCNvMNtNtCsezqlaDlZ1Zy_16wezterm_parallel9dashboard10task_boardNtB6_16TaskBoardManager20update_task_progress0s_0CsjIgq8mvfQLP_16wezterm_parallel
FNDA:0,_RNCNCNvMNtNtCsezqlaDlZ1Zy_16wezterm_parallel9dashboard10task_boardNtB6_16TaskBoardManager26create_task_from_dashboard00CsjIgq8mvfQLP_16wezterm_parallel
FNDA:0,_RNCNCNvMNtNtCsezqlaDlZ1Zy_16wezterm_parallel9dashboard10task_boardNtB6_16TaskBoardManager26create_task_from_dashboard0s_0CsjIgq8mvfQLP_16wezterm_parallel
FNDA:0,_RNCNCNvMNtNtCsezqlaDlZ1Zy_16wezterm_parallel9dashboard10task_boardNtB6_16TaskBoardManager26delete_task_from_dashboard00CsjIgq8mvfQLP_16wezterm_parallel
FNDA:0,_RNCNCNvMNtNtCsezqlaDlZ1Zy_16wezterm_parallel9dashboard10task_boardNtB6_16TaskBoardManager26update_task_from_dashboard00CsjIgq8mvfQLP_16wezterm_parallel
FNDA:0,_RNCNCNvMNtNtCsezqlaDlZ1Zy_16wezterm_parallel9dashboard10task_boardNtB6_16TaskBoardManager26update_task_from_dashboard0s_0CsjIgq8mvfQLP_16wezterm_parallel
FNDA:0,_RNCNCNvMNtNtCsezqlaDlZ1Zy_16wezterm_parallel9dashboard10task_boardNtB6_16TaskBoardManager9move_task00CsjIgq8mvfQLP_16wezterm_parallel
FNDA:0,_RNCNCNvMNtNtCsezqlaDlZ1Zy_16wezterm_parallel9dashboard10task_boardNtB6_16TaskBoardManager9move_task0s_0CsjIgq8mvfQLP_16wezterm_parallel
FNDA:0,_RNCNvMNtNtCsezqlaDlZ1Zy_16wezterm_parallel9dashboard10task_boardNtB4_16TaskBoardManager10initialize0CsjIgq8mvfQLP_16wezterm_parallel
FNDA:0,_RNCNvMNtNtCsezqlaDlZ1Zy_16wezterm_parallel9dashboard10task_boardNtB4_16TaskBoardManager15get_board_state0CsjIgq8mvfQLP_16wezterm_parallel
FNDA:0,_RNCNvMNtNtCsezqlaDlZ1Zy_16wezterm_parallel9dashboard10task_boardNtB4_16TaskBoardManager20update_task_progress0CsjIgq8mvfQLP_16wezterm_parallel
FNDA:0,_RNCNvMNtNtCsezqlaDlZ1Zy_16wezterm_parallel9dashboard10task_boardNtB4_16TaskBoardManager21broadcast_task_update0CsjIgq8mvfQLP_16wezterm_parallel
FNDA:0,_RNCNvMNtNtCsezqlaDlZ1Zy_16wezterm_parallel9dashboard10task_boardNtB4_16TaskBoardManager22broadcast_board_update0CsjIgq8mvfQLP_16wezterm_parallel
FNDA:0,_RNCNvMNtNtCsezqlaDlZ1Zy_16wezterm_parallel9dashboard10task_boardNtB4_16TaskBoardManager26create_task_from_dashboard0CsjIgq8mvfQLP_16wezterm_parallel
FNDA:0,_RNCNvMNtNtCsezqlaDlZ1Zy_16wezterm_parallel9dashboard10task_boardNtB4_16TaskBoardManager26delete_task_from_dashboard0CsjIgq8mvfQLP_16wezterm_parallel
FNDA:0,_RNCNvMNtNtCsezqlaDlZ1Zy_16wezterm_parallel9dashboard10task_boardNtB4_16TaskBoardManager26update_task_from_dashboard0CsjIgq8mvfQLP_16wezterm_parallel
FNDA:0,_RNCNvMNtNtCsezqlaDlZ1Zy_16wezterm_parallel9dashboard10task_boardNtB4_16TaskBoardManager9get_board0CsjIgq8mvfQLP_16wezterm_parallel
FNDA:0,_RNCNvMNtNtCsezqlaDlZ1Zy_16wezterm_parallel9dashboard10task_boardNtB4_16TaskBoardManager9move_task0CsjIgq8mvfQLP_16wezterm_parallel
FNDA:4,_RNvNtNtNtCsbBf3qmLqCJ0_16wezterm_parallel9dashboard10task_board5tests24create_test_task_manager
FNDA:1,_RNvNtNtNtCsbBf3qmLqCJ0_16wezterm_parallel9dashboard10task_board5testss_25test_update_task_progress
FNDA:1,_RNvNtNtNtCsbBf3qmLqCJ0_16wezterm_parallel9dashboard10task_board5testss_27test_board_state_with_tasks
FNDA:1,_RNvNtNtNtCsbBf3qmLqCJ0_16wezterm_parallel9dashboard10task_board5testss_30test_move_task_between_columns
FNDA:1,_RNvNtNtNtCsbBf3qmLqCJ0_16wezterm_parallel9dashboard10task_board5testss_32test_task_board_manager_creation
FNDA:0,_RNCNCNvMNtNtCsbBf3qmLqCJ0_16wezterm_parallel9dashboard10task_boardNtB6_16TaskBoardManager23start_real_time_updates00Ba_
FNDA:0,_RNCNvMNtNtCsbBf3qmLqCJ0_16wezterm_parallel9dashboard10task_boardNtB4_16TaskBoardManager11list_boards0B8_
FNDA:0,_RNCNvMNtNtCsbBf3qmLqCJ0_16wezterm_parallel9dashboard10task_boardNtB4_16TaskBoardManager12create_board0B8_
FNDA:0,_RNCNvMNtNtCsbBf3qmLqCJ0_16wezterm_parallel9dashboard10task_boardNtB4_16TaskBoardManager12delete_board0B8_
FNDA:0,_RNCNvMNtNtCsbBf3qmLqCJ0_16wezterm_parallel9dashboard10task_boardNtB4_16TaskBoardManager12update_board0B8_
FNDA:0,_RNCNvMNtNtCsbBf3qmLqCJ0_16wezterm_parallel9dashboard10task_boardNtB4_16TaskBoardManager23start_real_time_updates0B8_
FNDA:0,_RNvMNtNtCsbBf3qmLqCJ0_16wezterm_parallel9dashboard10task_boardNtB2_16TaskBoardManager11list_boards
FNDA:0,_RNvMNtNtCsbBf3qmLqCJ0_16wezterm_parallel9dashboard10task_boardNtB2_16TaskBoardManager12create_board
FNDA:0,_RNvMNtNtCsbBf3qmLqCJ0_16wezterm_parallel9dashboard10task_boardNtB2_16TaskBoardManager12delete_board
FNDA:0,_RNvMNtNtCsbBf3qmLqCJ0_16wezterm_parallel9dashboard10task_boardNtB2_16TaskBoardManager12update_board
FNDA:0,_RNvMNtNtCsbBf3qmLqCJ0_16wezterm_parallel9dashboard10task_boardNtB2_16TaskBoardManager23start_real_time_updates
FNDA:4,_RNvMNtNtCsbBf3qmLqCJ0_16wezterm_parallel9dashboard10task_boardNtB2_16TaskBoardManager10initialize
FNDA:6,_RNvMNtNtCsbBf3qmLqCJ0_16wezterm_parallel9dashboard10task_boardNtB2_16TaskBoardManager15get_board_state
FNDA:3,_RNvMNtNtCsbBf3qmLqCJ0_16wezterm_parallel9dashboard10task_boardNtB2_16TaskBoardManager19status_to_column_id
FNDA:1,_RNvMNtNtCsbBf3qmLqCJ0_16wezterm_parallel9dashboard10task_boardNtB2_16TaskBoardManager20update_task_progress
FNDA:0,_RNvMNtNtCsbBf3qmLqCJ0_16wezterm_parallel9dashboard10task_boardNtB2_16TaskBoardManager21broadcast_task_update
FNDA:5,_RNvMNtNtCsbBf3qmLqCJ0_16wezterm_parallel9dashboard10task_boardNtB2_16TaskBoardManager22broadcast_board_update
FNDA:0,_RNvMNtNtCsbBf3qmLqCJ0_16wezterm_parallel9dashboard10task_boardNtB2_16TaskBoardManager26create_task_from_dashboard
FNDA:0,_RNvMNtNtCsbBf3qmLqCJ0_16wezterm_parallel9dashboard10task_boardNtB2_16TaskBoardManager26delete_task_from_dashboard
FNDA:0,_RNvMNtNtCsbBf3qmLqCJ0_16wezterm_parallel9dashboard10task_boardNtB2_16TaskBoardManager26update_task_from_dashboard
FNDA:4,_RNvMNtNtCsbBf3qmLqCJ0_16wezterm_parallel9dashboard10task_boardNtB2_16TaskBoardManager27create_default_board_config
FNDA:4,_RNvMNtNtCsbBf3qmLqCJ0_16wezterm_parallel9dashboard10task_boardNtB2_16TaskBoardManager3new
FNDA:7,_RNvMNtNtCsbBf3qmLqCJ0_16wezterm_parallel9dashboard10task_boardNtB2_16TaskBoardManager9get_board
FNDA:1,_RNvMNtNtCsbBf3qmLqCJ0_16wezterm_parallel9dashboard10task_boardNtB2_16TaskBoardManager9move_task
FNDA:0,_RNCNCNvNtNtNtCsbBf3qmLqCJ0_16wezterm_parallel9dashboard10task_board5testss_25test_update_task_progress00Bb_
FNDA:0,_RNCNCNvNtNtNtCsbBf3qmLqCJ0_16wezterm_parallel9dashboard10task_board5testss_27test_board_state_with_tasks00Bb_
FNDA:2,_RNCNCNvNtNtNtCsbBf3qmLqCJ0_16wezterm_parallel9dashboard10task_board5testss_27test_board_state_with_tasks0s0_0Bb_
FNDA:1,_RNCNCNvNtNtNtCsbBf3qmLqCJ0_16wezterm_parallel9dashboard10task_board5testss_27test_board_state_with_tasks0s_0Bb_
FNDA:0,_RNCNCNvNtNtNtCsbBf3qmLqCJ0_16wezterm_parallel9dashboard10task_board5testss_30test_move_task_between_columns00Bb_
FNDA:0,_RNCNCNvNtNtNtCsbBf3qmLqCJ0_16wezterm_parallel9dashboard10task_board5testss_32test_task_board_manager_creation00Bb_
FNDA:1,_RNCNvNtNtNtCsbBf3qmLqCJ0_16wezterm_parallel9dashboard10task_board5testss_25test_update_task_progress0B9_
FNDA:1,_RNCNvNtNtNtCsbBf3qmLqCJ0_16wezterm_parallel9dashboard10task_board5testss_27test_board_state_with_tasks0B9_
FNDA:1,_RNCNvNtNtNtCsbBf3qmLqCJ0_16wezterm_parallel9dashboard10task_board5testss_30test_move_task_between_columns0B9_
FNDA:1,_RNCNvNtNtNtCsbBf3qmLqCJ0_16wezterm_parallel9dashboard10task_board5testss_32test_task_board_manager_creation0B9_
FNDA:0,_RNCNCNCNvMNtNtCsbBf3qmLqCJ0_16wezterm_parallel9dashboard10task_boardNtB8_16TaskBoardManager15get_board_state0s_00Bc_
FNDA:0,_RNCNCNCNvMNtNtCsbBf3qmLqCJ0_16wezterm_parallel9dashboard10task_boardNtB8_16TaskBoardManager15get_board_state0s_0s0_0Bc_
FNDA:0,_RNCNCNCNvMNtNtCsbBf3qmLqCJ0_16wezterm_parallel9dashboard10task_boardNtB8_16TaskBoardManager15get_board_state0s_0s_0Bc_
FNDA:0,_RNCNCNvMNtNtCsbBf3qmLqCJ0_16wezterm_parallel9dashboard10task_boardNtB6_16TaskBoardManager15get_board_state00Ba_
FNDA:0,_RNCNCNvMNtNtCsbBf3qmLqCJ0_16wezterm_parallel9dashboard10task_boardNtB6_16TaskBoardManager15get_board_state0s_0Ba_
FNDA:0,_RNCNCNvMNtNtCsbBf3qmLqCJ0_16wezterm_parallel9dashboard10task_boardNtB6_16TaskBoardManager20update_task_progress00Ba_
FNDA:0,_RNCNCNvMNtNtCsbBf3qmLqCJ0_16wezterm_parallel9dashboard10task_boardNtB6_16TaskBoardManager20update_task_progress0s_0Ba_
FNDA:0,_RNCNCNvMNtNtCsbBf3qmLqCJ0_16wezterm_parallel9dashboard10task_boardNtB6_16TaskBoardManager26create_task_from_dashboard00Ba_
FNDA:0,_RNCNCNvMNtNtCsbBf3qmLqCJ0_16wezterm_parallel9dashboard10task_boardNtB6_16TaskBoardManager26create_task_from_dashboard0s_0Ba_
FNDA:0,_RNCNCNvMNtNtCsbBf3qmLqCJ0_16wezterm_parallel9dashboard10task_boardNtB6_16TaskBoardManager26delete_task_from_dashboard00Ba_
FNDA:0,_RNCNCNvMNtNtCsbBf3qmLqCJ0_16wezterm_parallel9dashboard10task_boardNtB6_16TaskBoardManager26update_task_from_dashboard00Ba_
FNDA:0,_RNCNCNvMNtNtCsbBf3qmLqCJ0_16wezterm_parallel9dashboard10task_boardNtB6_16TaskBoardManager26update_task_from_dashboard0s_0Ba_
FNDA:0,_RNCNCNvMNtNtCsbBf3qmLqCJ0_16wezterm_parallel9dashboard10task_boardNtB6_16TaskBoardManager9move_task00Ba_
FNDA:0,_RNCNCNvMNtNtCsbBf3qmLqCJ0_16wezterm_parallel9dashboard10task_boardNtB6_16TaskBoardManager9move_task0s_0Ba_
FNDA:4,_RNCNvMNtNtCsbBf3qmLqCJ0_16wezterm_parallel9dashboard10task_boardNtB4_16TaskBoardManager10initialize0B8_
FNDA:6,_RNCNvMNtNtCsbBf3qmLqCJ0_16wezterm_parallel9dashboard10task_boardNtB4_16TaskBoardManager15get_board_state0B8_
FNDA:1,_RNCNvMNtNtCsbBf3qmLqCJ0_16wezterm_parallel9dashboard10task_boardNtB4_16TaskBoardManager20update_task_progress0B8_
FNDA:0,_RNCNvMNtNtCsbBf3qmLqCJ0_16wezterm_parallel9dashboard10task_boardNtB4_16TaskBoardManager21broadcast_task_update0B8_
FNDA:5,_RNCNvMNtNtCsbBf3qmLqCJ0_16wezterm_parallel9dashboard10task_boardNtB4_16TaskBoardManager22broadcast_board_update0B8_
FNDA:0,_RNCNvMNtNtCsbBf3qmLqCJ0_16wezterm_parallel9dashboard10task_boardNtB4_16TaskBoardManager26create_task_from_dashboard0B8_
FNDA:0,_RNCNvMNtNtCsbBf3qmLqCJ0_16wezterm_parallel9dashboard10task_boardNtB4_16TaskBoardManager26delete_task_from_dashboard0B8_
FNDA:0,_RNCNvMNtNtCsbBf3qmLqCJ0_16wezterm_parallel9dashboard10task_boardNtB4_16TaskBoardManager26update_task_from_dashboard0B8_
FNDA:7,_RNCNvMNtNtCsbBf3qmLqCJ0_16wezterm_parallel9dashboard10task_boardNtB4_16TaskBoardManager9get_board0B8_
FNDA:1,_RNCNvMNtNtCsbBf3qmLqCJ0_16wezterm_parallel9dashboard10task_boardNtB4_16TaskBoardManager9move_task0B8_
FNF:63
FNH:26
DA:30,4
DA:31,4
DA:32,4
DA:33,4
DA:34,4
DA:36,4
DA:37,4
DA:38,4
DA:39,4
DA:40,4
DA:41,4
DA:42,4
DA:45,4
DA:46,4
DA:49,4
DA:50,4
DA:54,4
DA:56,4
DA:57,4
DA:58,4
DA:59,4
DA:60,4
DA:62,4
DA:63,4
DA:66,4
DA:67,4
DA:68,4
DA:69,4
DA:70,4
DA:71,4
DA:72,4
DA:73,4
DA:74,4
DA:75,4
DA:76,4
DA:77,4
DA:78,4
DA:79,4
DA:80,4
DA:81,4
DA:82,4
DA:83,4
DA:84,4
DA:85,4
DA:86,4
DA:87,4
DA:88,4
DA:89,4
DA:90,4
DA:91,4
DA:92,4
DA:93,4
DA:94,4
DA:95,4
DA:96,4
DA:97,4
DA:98,4
DA:99,4
DA:100,4
DA:101,4
DA:102,4
DA:103,4
DA:104,4
DA:105,4
DA:106,4
DA:107,4
DA:108,4
DA:111,7
DA:112,7
DA:113,7
DA:114,7
DA:117,0
DA:118,0
DA:121,0
DA:122,0
DA:123,0
DA:124,0
DA:125,0
DA:129,0
DA:130,0
DA:131,0
DA:132,0
DA:133,0
DA:134,0
DA:135,0
DA:136,0
DA:137,0
DA:139,0
DA:140,0
DA:141,0
DA:142,0
DA:143,0
DA:146,0
DA:147,0
DA:150,0
DA:151,0
DA:152,0
DA:153,0
DA:154,0
DA:158,0
DA:159,0
DA:160,0
DA:161,0
DA:162,0
DA:163,0
DA:164,0
DA:165,0
DA:166,0
DA:168,0
DA:169,0
DA:170,0
DA:171,0
DA:172,0
DA:175,0
DA:176,0
DA:177,0
DA:178,0
DA:181,0
DA:182,0
DA:183,0
DA:184,0
DA:187,0
DA:188,0
DA:189,0
DA:190,0
DA:191,0
DA:194,6
DA:195,6
DA:196,6
DA:197,6
DA:198,6
DA:201,6
DA:202,6
DA:205,30
DA:206,24
DA:209,24
DA:210,24
DA:211,18
DA:212,12
DA:213,6
DA:214,0
DA:215,0
DA:216,0
DA:220,36
DA:221,12
DA:222,3
DA:223,9
DA:227,24
DA:228,0
DA:229,0
DA:231,0
DA:232,0
DA:233,0
DA:234,0
DA:235,0
DA:236,0
DA:238,0
DA:241,6
DA:242,6
DA:243,6
DA:244,6
DA:245,6
DA:246,6
DA:247,6
DA:248,6
DA:251,1
DA:252,1
DA:253,1
DA:254,1
DA:255,1
DA:256,1
DA:257,1
DA:259,1
DA:260,1
DA:261,1
DA:262,1
DA:263,1
DA:265,1
DA:268,1
DA:269,1
DA:270,1
DA:271,0
DA:272,0
DA:273,0
DA:274,0
DA:275,0
DA:279,1
DA:282,1
DA:283,1
DA:284,1
DA:285,1
DA:288,1
DA:289,1
DA:290,1
DA:291,1
DA:292,1
DA:293,1
DA:294,1
DA:296,1
DA:297,0
DA:298,0
DA:299,0
DA:300,0
DA:301,0
DA:302,0
DA:303,0
DA:304,1
DA:307,1
DA:308,0
DA:309,0
DA:310,0
DA:311,0
DA:312,0
DA:313,0
DA:314,0
DA:315,1
DA:317,1
DA:318,1
DA:319,1
DA:320,1
DA:321,1
DA:323,1
DA:324,1
DA:325,1
DA:326,1
DA:328,1
DA:331,1
DA:332,1
DA:335,1
DA:337,1
DA:338,1
DA:339,1
DA:340,1
DA:341,1
DA:343,1
DA:346,1
DA:347,1
DA:348,1
DA:349,1
DA:352,1
DA:353,1
DA:354,1
DA:355,1
DA:356,1
DA:358,1
DA:359,0
DA:360,0
DA:361,0
DA:362,0
DA:363,0
DA:364,0
DA:365,0
DA:366,0
DA:367,1
DA:370,1
DA:371,0
DA:372,0
DA:373,1
DA:375,1
DA:376,1
DA:377,1
DA:378,1
DA:379,1
DA:380,1
DA:384,1
DA:385,1
DA:388,0
DA:389,0
DA:390,0
DA:391,0
DA:393,0
DA:394,0
DA:397,0
DA:398,0
DA:399,0
DA:400,0
DA:401,0
DA:404,0
DA:407,0
DA:408,0
DA:409,0
DA:410,0
DA:411,0
DA:412,0
DA:413,0
DA:414,0
DA:415,0
DA:416,0
DA:418,0
DA:419,0
DA:420,0
DA:421,0
DA:422,0
DA:425,0
DA:426,0
DA:427,0
DA:428,0
DA:429,0
DA:431,0
DA:432,0
DA:435,0
DA:436,0
DA:437,0
DA:440,0
DA:441,0
DA:442,0
DA:443,0
DA:446,0
DA:448,0
DA:449,0
DA:450,0
DA:451,0
DA:452,0
DA:455,0
DA:456,0
DA:459,0
DA:461,0
DA:462,0
DA:463,0
DA:464,0
DA:465,0
DA:468,0
DA:471,0
DA:472,0
DA:473,0
DA:474,0
DA:475,0
DA:476,0
DA:477,0
DA:478,0
DA:479,0
DA:480,0
DA:482,0
DA:483,0
DA:484,0
DA:485,0
DA:486,0
DA:489,5
DA:490,5
DA:491,5
DA:492,5
DA:493,5
DA:495,5
DA:496,5
DA:497,5
DA:498,5
DA:499,5
DA:501,5
DA:502,5
DA:503,5
DA:506,0
DA:507,0
DA:508,0
DA:509,0
DA:510,0
DA:511,0
DA:512,0
DA:513,0
DA:517,0
DA:518,0
DA:519,0
DA:520,0
DA:521,0
DA:523,0
DA:524,0
DA:525,0
DA:526,0
DA:527,0
DA:528,0
DA:529,0
DA:530,0
DA:531,0
DA:532,0
DA:533,0
DA:536,3
DA:537,3
DA:538,3
DA:539,0
DA:540,0
DA:541,0
DA:542,0
DA:543,0
DA:544,0
DA:545,0
DA:547,3
DA:550,0
DA:551,0
DA:552,0
DA:553,0
DA:556,0
DA:557,0
DA:558,0
DA:559,0
DA:560,0
DA:562,0
DA:563,0
DA:564,0
DA:567,0
DA:568,0
DA:569,0
DA:570,0
DA:571,0
DA:572,0
DA:573,0
DA:574,0
DA:575,0
DA:576,0
DA:578,0
DA:579,0
DA:580,0
DA:581,0
DA:582,0
DA:585,0
DA:586,0
DA:613,4
DA:614,4
DA:615,4
DA:616,4
DA:617,4
DA:618,4
DA:619,4
DA:620,4
DA:621,4
DA:622,4
DA:623,4
DA:624,4
DA:625,4
DA:626,4
DA:629,1
DA:630,1
DA:631,1
DA:633,1
DA:636,1
DA:638,0
DA:639,0
DA:640,0
DA:641,0
DA:643,1
DA:645,1
DA:646,1
DA:648,1
DA:649,1
DA:650,1
DA:651,1
DA:654,1
DA:655,1
DA:656,1
DA:658,1
DA:661,1
DA:663,0
DA:664,0
DA:665,0
DA:666,0
DA:668,1
DA:671,1
DA:672,1
DA:674,1
DA:675,1
DA:678,1
DA:679,1
DA:680,1
DA:683,1
DA:685,1
DA:688,1
DA:689,1
DA:690,1
DA:691,1
DA:692,2
DA:693,1
DA:695,1
DA:696,1
DA:697,1
DA:700,1
DA:701,1
DA:702,1
DA:704,1
DA:707,1
DA:709,0
DA:710,0
DA:711,0
DA:712,0
DA:714,1
DA:717,1
DA:718,1
DA:721,1
DA:722,1
DA:723,1
DA:724,1
DA:727,1
DA:728,1
DA:729,1
DA:732,1
DA:733,1
DA:734,1
DA:736,1
DA:739,1
DA:741,0
DA:742,0
DA:743,0
DA:744,0
DA:746,1
DA:749,1
DA:750,1
DA:753,1
DA:754,1
DA:757,1
DA:758,1
DA:759,1
BRF:0
BRH:0
LF:552
LH:281
end_of_record
SF:/Users/aiq/work/wezterm-parallel/src/dashboard/websocket_server.rs
FN:147,_RNCNCNvMNtNtCsezqlaDlZ1Zy_16wezterm_parallel9dashboard16websocket_serverNtB6_15WebSocketServer20start_heartbeat_task00Ba_
FN:126,_RNCNCNvMNtNtCsezqlaDlZ1Zy_16wezterm_parallel9dashboard16websocket_serverNtB6_15WebSocketServer25start_metrics_broadcaster00Ba_
FN:101,_RNCNCNvMNtNtCsezqlaDlZ1Zy_16wezterm_parallel9dashboard16websocket_serverNtB6_15WebSocketServer5start00Ba_
FN:227,_RNCNCNvNtNtCsezqlaDlZ1Zy_16wezterm_parallel9dashboard16websocket_server24handle_client_connection00B9_
FN:255,_RNCNCNvNtNtCsezqlaDlZ1Zy_16wezterm_parallel9dashboard16websocket_server24handle_client_connection0s_0B9_
FN:171,_RNCNvMNtNtCsezqlaDlZ1Zy_16wezterm_parallel9dashboard16websocket_serverNtB4_15WebSocketServer10send_alert0B8_
FN:166,_RNCNvMNtNtCsezqlaDlZ1Zy_16wezterm_parallel9dashboard16websocket_serverNtB4_15WebSocketServer14update_metrics0B8_
FN:144,_RNCNvMNtNtCsezqlaDlZ1Zy_16wezterm_parallel9dashboard16websocket_serverNtB4_15WebSocketServer20start_heartbeat_task0B8_
FN:122,_RNCNvMNtNtCsezqlaDlZ1Zy_16wezterm_parallel9dashboard16websocket_serverNtB4_15WebSocketServer25start_metrics_broadcaster0B8_
FN:50,_RNCNvMNtNtCsezqlaDlZ1Zy_16wezterm_parallel9dashboard16websocket_serverNtB4_15WebSocketServer5start0B8_
FN:177,_RNCNvMNtNtCsezqlaDlZ1Zy_16wezterm_parallel9dashboard16websocket_serverNtB4_15WebSocketServer9get_stats0B8_
FN:407,_RNCNvNtNtCsezqlaDlZ1Zy_16wezterm_parallel9dashboard16websocket_server18handle_task_action0B7_
FN:322,_RNCNvNtNtCsezqlaDlZ1Zy_16wezterm_parallel9dashboard16websocket_server21handle_client_message0B7_
FN:187,_RNCNvNtNtCsezqlaDlZ1Zy_16wezterm_parallel9dashboard16websocket_server24handle_client_connection0B7_
FN:177,_RNCNvMNtNtCsezqlaDlZ1Zy_16wezterm_parallel9dashboard16websocket_serverNtB4_15WebSocketServer9get_stats0CspnWSjikcw4_22end_to_end_integration
FN:171,_RNvMNtNtCsezqlaDlZ1Zy_16wezterm_parallel9dashboard16websocket_serverNtB2_15WebSocketServer10send_alert
FN:166,_RNvMNtNtCsezqlaDlZ1Zy_16wezterm_parallel9dashboard16websocket_serverNtB2_15WebSocketServer14update_metrics
FN:43,_RNvMNtNtCsezqlaDlZ1Zy_16wezterm_parallel9dashboard16websocket_serverNtB2_15WebSocketServer17with_task_manager
FN:144,_RNvMNtNtCsezqlaDlZ1Zy_16wezterm_parallel9dashboard16websocket_serverNtB2_15WebSocketServer20start_heartbeat_task
FN:122,_RNvMNtNtCsezqlaDlZ1Zy_16wezterm_parallel9dashboard16websocket_serverNtB2_15WebSocketServer25start_metrics_broadcaster
FN:30,_RNvMNtNtCsezqlaDlZ1Zy_16wezterm_parallel9dashboard16websocket_serverNtB2_15WebSocketServer3new
FN:50,_RNvMNtNtCsezqlaDlZ1Zy_16wezterm_parallel9dashboard16websocket_serverNtB2_15WebSocketServer5start
FN:117,_RNvMNtNtCsezqlaDlZ1Zy_16wezterm_parallel9dashboard16websocket_serverNtB2_15WebSocketServer9get_state
FN:177,_RNvMNtNtCsezqlaDlZ1Zy_16wezterm_parallel9dashboard16websocket_serverNtB2_15WebSocketServer9get_stats
FN:401,_RNvNtNtCsezqlaDlZ1Zy_16wezterm_parallel9dashboard16websocket_server18handle_task_action
FN:316,_RNvNtNtCsezqlaDlZ1Zy_16wezterm_parallel9dashboard16websocket_server21handle_client_message
FN:182,_RNvNtNtCsezqlaDlZ1Zy_16wezterm_parallel9dashboard16websocket_server24handle_client_connection
FN:147,_RNCNCNvMNtNtCsezqlaDlZ1Zy_16wezterm_parallel9dashboard16websocket_serverNtB6_15WebSocketServer20start_heartbeat_task00CsjIgq8mvfQLP_16wezterm_parallel
FN:126,_RNCNCNvMNtNtCsezqlaDlZ1Zy_16wezterm_parallel9dashboard16websocket_serverNtB6_15WebSocketServer25start_metrics_broadcaster00CsjIgq8mvfQLP_16wezterm_parallel
FN:101,_RNCNCNvMNtNtCsezqlaDlZ1Zy_16wezterm_parallel9dashboard16websocket_serverNtB6_15WebSocketServer5start00CsjIgq8mvfQLP_16wezterm_parallel
FN:227,_RNCNCNvNtNtCsezqlaDlZ1Zy_16wezterm_parallel9dashboard16websocket_server24handle_client_connection00CsjIgq8mvfQLP_16wezterm_parallel
FN:255,_RNCNCNvNtNtCsezqlaDlZ1Zy_16wezterm_parallel9dashboard16websocket_server24handle_client_connection0s_0CsjIgq8mvfQLP_16wezterm_parallel
FN:144,_RNCNvMNtNtCsezqlaDlZ1Zy_16wezterm_parallel9dashboard16websocket_serverNtB4_15WebSocketServer20start_heartbeat_task0CsjIgq8mvfQLP_16wezterm_parallel
FN:122,_RNCNvMNtNtCsezqlaDlZ1Zy_16wezterm_parallel9dashboard16websocket_serverNtB4_15WebSocketServer25start_metrics_broadcaster0CsjIgq8mvfQLP_16wezterm_parallel
FN:50,_RNCNvMNtNtCsezqlaDlZ1Zy_16wezterm_parallel9dashboard16websocket_serverNtB4_15WebSocketServer5start0CsjIgq8mvfQLP_16wezterm_parallel
FN:407,_RNCNvNtNtCsezqlaDlZ1Zy_16wezterm_parallel9dashboard16websocket_server18handle_task_action0CsjIgq8mvfQLP_16wezterm_parallel
FN:322,_RNCNvNtNtCsezqlaDlZ1Zy_16wezterm_parallel9dashboard16websocket_server21handle_client_message0CsjIgq8mvfQLP_16wezterm_parallel
FN:187,_RNCNvNtNtCsezqlaDlZ1Zy_16wezterm_parallel9dashboard16websocket_server24handle_client_connection0CsjIgq8mvfQLP_16wezterm_parallel
FN:171,_RNCNvMNtNtCsbBf3qmLqCJ0_16wezterm_parallel9dashboard16websocket_serverNtB4_15WebSocketServer10send_alert0B8_
FN:166,_RNCNvMNtNtCsbBf3qmLqCJ0_16wezterm_parallel9dashboard16websocket_serverNtB4_15WebSocketServer14update_metrics0B8_
FN:171,_RNvMNtNtCsbBf3qmLqCJ0_16wezterm_parallel9dashboard16websocket_serverNtB2_15WebSocketServer10send_alert
FN:166,_RNvMNtNtCsbBf3qmLqCJ0_16wezterm_parallel9dashboard16websocket_serverNtB2_15WebSocketServer14update_metrics
FN:43,_RNvMNtNtCsbBf3qmLqCJ0_16wezterm_parallel9dashboard16websocket_serverNtB2_15WebSocketServer17with_task_manager
FN:117,_RNvMNtNtCsbBf3qmLqCJ0_16wezterm_parallel9dashboard16websocket_serverNtB2_15WebSocketServer9get_state
FN:556,_RNCNvNtNtNtCsbBf3qmLqCJ0_16wezterm_parallel9dashboard16websocket_server5testss_19test_metrics_update0B9_
FN:583,_RNCNvNtNtNtCsbBf3qmLqCJ0_16wezterm_parallel9dashboard16websocket_server5testss_20test_disabled_server0B9_
FN:541,_RNCNvNtNtNtCsbBf3qmLqCJ0_16wezterm_parallel9dashboard16websocket_server5testss_30test_websocket_server_creation0B9_
FN:144,_RNvMNtNtCsbBf3qmLqCJ0_16wezterm_parallel9dashboard16websocket_serverNtB2_15WebSocketServer20start_heartbeat_task
FN:122,_RNvMNtNtCsbBf3qmLqCJ0_16wezterm_parallel9dashboard16websocket_serverNtB2_15WebSocketServer25start_metrics_broadcaster
FN:30,_RNvMNtNtCsbBf3qmLqCJ0_16wezterm_parallel9dashboard16websocket_serverNtB2_15WebSocketServer3new
FN:50,_RNvMNtNtCsbBf3qmLqCJ0_16wezterm_parallel9dashboard16websocket_serverNtB2_15WebSocketServer5start
FN:177,_RNvMNtNtCsbBf3qmLqCJ0_16wezterm_parallel9dashboard16websocket_serverNtB2_15WebSocketServer9get_stats
FN:401,_RNvNtNtCsbBf3qmLqCJ0_16wezterm_parallel9dashboard16websocket_server18handle_task_action
FN:316,_RNvNtNtCsbBf3qmLqCJ0_16wezterm_parallel9dashboard16websocket_server21handle_client_message
FN:182,_RNvNtNtCsbBf3qmLqCJ0_16wezterm_parallel9dashboard16websocket_server24handle_client_connection
FN:147,_RNCNCNvMNtNtCsbBf3qmLqCJ0_16wezterm_parallel9dashboard16websocket_serverNtB6_15WebSocketServer20start_heartbeat_task00Ba_
FN:126,_RNCNCNvMNtNtCsbBf3qmLqCJ0_16wezterm_parallel9dashboard16websocket_serverNtB6_15WebSocketServer25start_metrics_broadcaster00Ba_
FN:101,_RNCNCNvMNtNtCsbBf3qmLqCJ0_16wezterm_parallel9dashboard16websocket_serverNtB6_15WebSocketServer5start00Ba_
FN:227,_RNCNCNvNtNtCsbBf3qmLqCJ0_16wezterm_parallel9dashboard16websocket_server24handle_client_connection00B9_
FN:255,_RNCNCNvNtNtCsbBf3qmLqCJ0_16wezterm_parallel9dashboard16websocket_server24handle_client_connection0s_0B9_
FN:144,_RNCNvMNtNtCsbBf3qmLqCJ0_16wezterm_parallel9dashboard16websocket_serverNtB4_15WebSocketServer20start_heartbeat_task0B8_
FN:122,_RNCNvMNtNtCsbBf3qmLqCJ0_16wezterm_parallel9dashboard16websocket_serverNtB4_15WebSocketServer25start_metrics_broadcaster0B8_
FN:50,_RNCNvMNtNtCsbBf3qmLqCJ0_16wezterm_parallel9dashboard16websocket_serverNtB4_15WebSocketServer5start0B8_
FN:177,_RNCNvMNtNtCsbBf3qmLqCJ0_16wezterm_parallel9dashboard16websocket_serverNtB4_15WebSocketServer9get_stats0B8_
FN:407,_RNCNvNtNtCsbBf3qmLqCJ0_16wezterm_parallel9dashboard16websocket_server18handle_task_action0B7_
FN:322,_RNCNvNtNtCsbBf3qmLqCJ0_16wezterm_parallel9dashboard16websocket_server21handle_client_message0B7_
FN:187,_RNCNvNtNtCsbBf3qmLqCJ0_16wezterm_parallel9dashboard16websocket_server24handle_client_connection0B7_
FN:556,_RNvNtNtNtCsbBf3qmLqCJ0_16wezterm_parallel9dashboard16websocket_server5testss_19test_metrics_update
FN:583,_RNvNtNtNtCsbBf3qmLqCJ0_16wezterm_parallel9dashboard16websocket_server5testss_20test_disabled_server
FN:541,_RNvNtNtNtCsbBf3qmLqCJ0_16wezterm_parallel9dashboard16websocket_server5testss_30test_websocket_server_creation
FNDA:0,_RNCNCNvMNtNtCsezqlaDlZ1Zy_16wezterm_parallel9dashboard16websocket_serverNtB6_15WebSocketServer20start_heartbeat_task00Ba_
FNDA:0,_RNCNCNvMNtNtCsezqlaDlZ1Zy_16wezterm_parallel9dashboard16websocket_serverNtB6_15WebSocketServer25start_metrics_broadcaster00Ba_
FNDA:0,_RNCNCNvMNtNtCsezqlaDlZ1Zy_16wezterm_parallel9dashboard16websocket_serverNtB6_15WebSocketServer5start00Ba_
FNDA:0,_RNCNCNvNtNtCsezqlaDlZ1Zy_16wezterm_parallel9dashboard16websocket_server24handle_client_connection00B9_
FNDA:0,_RNCNCNvNtNtCsezqlaDlZ1Zy_16wezterm_parallel9dashboard16websocket_server24handle_client_connection0s_0B9_
FNDA:0,_RNCNvMNtNtCsezqlaDlZ1Zy_16wezterm_parallel9dashboard16websocket_serverNtB4_15WebSocketServer10send_alert0B8_
FNDA:0,_RNCNvMNtNtCsezqlaDlZ1Zy_16wezterm_parallel9dashboard16websocket_serverNtB4_15WebSocketServer14update_metrics0B8_
FNDA:0,_RNCNvMNtNtCsezqlaDlZ1Zy_16wezterm_parallel9dashboard16websocket_serverNtB4_15WebSocketServer20start_heartbeat_task0B8_
FNDA:0,_RNCNvMNtNtCsezqlaDlZ1Zy_16wezterm_parallel9dashboard16websocket_serverNtB4_15WebSocketServer25start_metrics_broadcaster0B8_
FNDA:0,_RNCNvMNtNtCsezqlaDlZ1Zy_16wezterm_parallel9dashboard16websocket_serverNtB4_15WebSocketServer5start0B8_
FNDA:0,_RNCNvMNtNtCsezqlaDlZ1Zy_16wezterm_parallel9dashboard16websocket_serverNtB4_15WebSocketServer9get_stats0B8_
FNDA:0,_RNCNvNtNtCsezqlaDlZ1Zy_16wezterm_parallel9dashboard16websocket_server18handle_task_action0B7_
FNDA:0,_RNCNvNtNtCsezqlaDlZ1Zy_16wezterm_parallel9dashboard16websocket_server21handle_client_message0B7_
FNDA:0,_RNCNvNtNtCsezqlaDlZ1Zy_16wezterm_parallel9dashboard16websocket_server24handle_client_connection0B7_
FNDA:2,_RNCNvMNtNtCsezqlaDlZ1Zy_16wezterm_parallel9dashboard16websocket_serverNtB4_15WebSocketServer9get_stats0CspnWSjikcw4_22end_to_end_integration
FNDA:0,_RNvMNtNtCsezqlaDlZ1Zy_16wezterm_parallel9dashboard16websocket_serverNtB2_15WebSocketServer10send_alert
FNDA:0,_RNvMNtNtCsezqlaDlZ1Zy_16wezterm_parallel9dashboard16websocket_serverNtB2_15WebSocketServer14update_metrics
FNDA:0,_RNvMNtNtCsezqlaDlZ1Zy_16wezterm_parallel9dashboard16websocket_serverNtB2_15WebSocketServer17with_task_manager
FNDA:0,_RNvMNtNtCsezqlaDlZ1Zy_16wezterm_parallel9dashboard16websocket_serverNtB2_15WebSocketServer20start_heartbeat_task
FNDA:0,_RNvMNtNtCsezqlaDlZ1Zy_16wezterm_parallel9dashboard16websocket_serverNtB2_15WebSocketServer25start_metrics_broadcaster
FNDA:2,_RNvMNtNtCsezqlaDlZ1Zy_16wezterm_parallel9dashboard16websocket_serverNtB2_15WebSocketServer3new
FNDA:0,_RNvMNtNtCsezqlaDlZ1Zy_16wezterm_parallel9dashboard16websocket_serverNtB2_15WebSocketServer5start
FNDA:1,_RNvMNtNtCsezqlaDlZ1Zy_16wezterm_parallel9dashboard16websocket_serverNtB2_15WebSocketServer9get_state
FNDA:2,_RNvMNtNtCsezqlaDlZ1Zy_16wezterm_parallel9dashboard16websocket_serverNtB2_15WebSocketServer9get_stats
FNDA:0,_RNvNtNtCsezqlaDlZ1Zy_16wezterm_parallel9dashboard16websocket_server18handle_task_action
FNDA:0,_RNvNtNtCsezqlaDlZ1Zy_16wezterm_parallel9dashboard16websocket_server21handle_client_message
FNDA:0,_RNvNtNtCsezqlaDlZ1Zy_16wezterm_parallel9dashboard16websocket_server24handle_client_connection
FNDA:0,_RNCNCNvMNtNtCsezqlaDlZ1Zy_16wezterm_parallel9dashboard16websocket_serverNtB6_15WebSocketServer20start_heartbeat_task00CsjIgq8mvfQLP_16wezterm_parallel
FNDA:0,_RNCNCNvMNtNtCsezqlaDlZ1Zy_16wezterm_parallel9dashboard16websocket_serverNtB6_15WebSocketServer25start_metrics_broadcaster00CsjIgq8mvfQLP_16wezterm_parallel
FNDA:0,_RNCNCNvMNtNtCsezqlaDlZ1Zy_16wezterm_parallel9dashboard16websocket_serverNtB6_15WebSocketServer5start00CsjIgq8mvfQLP_16wezterm_parallel
FNDA:0,_RNCNCNvNtNtCsezqlaDlZ1Zy_16wezterm_parallel9dashboard16websocket_server24handle_client_connection00CsjIgq8mvfQLP_16wezterm_parallel
FNDA:0,_RNCNCNvNtNtCsezqlaDlZ1Zy_16wezterm_parallel9dashboard16websocket_server24handle_client_connection0s_0CsjIgq8mvfQLP_16wezterm_parallel
FNDA:0,_RNCNvMNtNtCsezqlaDlZ1Zy_16wezterm_parallel9dashboard16websocket_serverNtB4_15WebSocketServer20start_heartbeat_task0CsjIgq8mvfQLP_16wezterm_parallel
FNDA:0,_RNCNvMNtNtCsezqlaDlZ1Zy_16wezterm_parallel9dashboard16websocket_serverNtB4_15WebSocketServer25start_metrics_broadcaster0CsjIgq8mvfQLP_16wezterm_parallel
FNDA:0,_RNCNvMNtNtCsezqlaDlZ1Zy_16wezterm_parallel9dashboard16websocket_serverNtB4_15WebSocketServer5start0CsjIgq8mvfQLP_16wezterm_parallel
FNDA:0,_RNCNvNtNtCsezqlaDlZ1Zy_16wezterm_parallel9dashboard16websocket_server18handle_task_action0CsjIgq8mvfQLP_16wezterm_parallel
FNDA:0,_RNCNvNtNtCsezqlaDlZ1Zy_16wezterm_parallel9dashboard16websocket_server21handle_client_message0CsjIgq8mvfQLP_16wezterm_parallel
FNDA:0,_RNCNvNtNtCsezqlaDlZ1Zy_16wezterm_parallel9dashboard16websocket_server24handle_client_connection0CsjIgq8mvfQLP_16wezterm_parallel
FNDA:0,_RNCNvMNtNtCsbBf3qmLqCJ0_16wezterm_parallel9dashboard16websocket_serverNtB4_15WebSocketServer10send_alert0B8_
FNDA:0,_RNCNvMNtNtCsbBf3qmLqCJ0_16wezterm_parallel9dashboard16websocket_serverNtB4_15WebSocketServer14update_metrics0B8_
FNDA:0,_RNvMNtNtCsbBf3qmLqCJ0_16wezterm_parallel9dashboard16websocket_serverNtB2_15WebSocketServer10send_alert
FNDA:0,_RNvMNtNtCsbBf3qmLqCJ0_16wezterm_parallel9dashboard16websocket_serverNtB2_15WebSocketServer14update_metrics
FNDA:0,_RNvMNtNtCsbBf3qmLqCJ0_16wezterm_parallel9dashboard16websocket_serverNtB2_15WebSocketServer17with_task_manager
FNDA:0,_RNvMNtNtCsbBf3qmLqCJ0_16wezterm_parallel9dashboard16websocket_serverNtB2_15WebSocketServer9get_state
FNDA:1,_RNCNvNtNtNtCsbBf3qmLqCJ0_16wezterm_parallel9dashboard16websocket_server5testss_19test_metrics_update0B9_
FNDA:1,_RNCNvNtNtNtCsbBf3qmLqCJ0_16wezterm_parallel9dashboard16websocket_server5testss_20test_disabled_server0B9_
FNDA:1,_RNCNvNtNtNtCsbBf3qmLqCJ0_16wezterm_parallel9dashboard16websocket_server5testss_30test_websocket_server_creation0B9_
FNDA:0,_RNvMNtNtCsbBf3qmLqCJ0_16wezterm_parallel9dashboard16websocket_serverNtB2_15WebSocketServer20start_heartbeat_task
FNDA:0,_RNvMNtNtCsbBf3qmLqCJ0_16wezterm_parallel9dashboard16websocket_serverNtB2_15WebSocketServer25start_metrics_broadcaster
FNDA:3,_RNvMNtNtCsbBf3qmLqCJ0_16wezterm_parallel9dashboard16websocket_serverNtB2_15WebSocketServer3new
FNDA:1,_RNvMNtNtCsbBf3qmLqCJ0_16wezterm_parallel9dashboard16websocket_serverNtB2_15WebSocketServer5start
FNDA:1,_RNvMNtNtCsbBf3qmLqCJ0_16wezterm_parallel9dashboard16websocket_serverNtB2_15WebSocketServer9get_stats
FNDA:0,_RNvNtNtCsbBf3qmLqCJ0_16wezterm_parallel9dashboard16websocket_server18handle_task_action
FNDA:0,_RNvNtNtCsbBf3qmLqCJ0_16wezterm_parallel9dashboard16websocket_server21handle_client_message
FNDA:0,_RNvNtNtCsbBf3qmLqCJ0_16wezterm_parallel9dashboard16websocket_server24handle_client_connection
FNDA:0,_RNCNCNvMNtNtCsbBf3qmLqCJ0_16wezterm_parallel9dashboard16websocket_serverNtB6_15WebSocketServer20start_heartbeat_task00Ba_
FNDA:0,_RNCNCNvMNtNtCsbBf3qmLqCJ0_16wezterm_parallel9dashboard16websocket_serverNtB6_15WebSocketServer25start_metrics_broadcaster00Ba_
FNDA:0,_RNCNCNvMNtNtCsbBf3qmLqCJ0_16wezterm_parallel9dashboard16websocket_serverNtB6_15WebSocketServer5start00Ba_
FNDA:0,_RNCNCNvNtNtCsbBf3qmLqCJ0_16wezterm_parallel9dashboard16websocket_server24handle_client_connection00B9_
FNDA:0,_RNCNCNvNtNtCsbBf3qmLqCJ0_16wezterm_parallel9dashboard16websocket_server24handle_client_connection0s_0B9_
FNDA:0,_RNCNvMNtNtCsbBf3qmLqCJ0_16wezterm_parallel9dashboard16websocket_serverNtB4_15WebSocketServer20start_heartbeat_task0B8_
FNDA:0,_RNCNvMNtNtCsbBf3qmLqCJ0_16wezterm_parallel9dashboard16websocket_serverNtB4_15WebSocketServer25start_metrics_broadcaster0B8_
FNDA:1,_RNCNvMNtNtCsbBf3qmLqCJ0_16wezterm_parallel9dashboard16websocket_serverNtB4_15WebSocketServer5start0B8_
FNDA:1,_RNCNvMNtNtCsbBf3qmLqCJ0_16wezterm_parallel9dashboard16websocket_serverNtB4_15WebSocketServer9get_stats0B8_
FNDA:0,_RNCNvNtNtCsbBf3qmLqCJ0_16wezterm_parallel9dashboard16websocket_server18handle_task_action0B7_
FNDA:0,_RNCNvNtNtCsbBf3qmLqCJ0_16wezterm_parallel9dashboard16websocket_server21handle_client_message0B7_
FNDA:0,_RNCNvNtNtCsbBf3qmLqCJ0_16wezterm_parallel9dashboard16websocket_server24handle_client_connection0B7_
FNDA:1,_RNvNtNtNtCsbBf3qmLqCJ0_16wezterm_parallel9dashboard16websocket_server5testss_19test_metrics_update
FNDA:1,_RNvNtNtNtCsbBf3qmLqCJ0_16wezterm_parallel9dashboard16websocket_server5testss_20test_disabled_server
FNDA:1,_RNvNtNtNtCsbBf3qmLqCJ0_16wezterm_parallel9dashboard16websocket_server5testss_30test_websocket_server_creation
FNF:32
FNH:12
DA:30,5
DA:31,5
DA:33,5
DA:34,5
DA:35,5
DA:36,5
DA:37,5
DA:39,5
DA:40,5
DA:43,0
DA:44,0
DA:45,0
DA:46,0
DA:47,0
DA:48,0
DA:50,1
DA:51,1
DA:52,1
DA:53,1
DA:54,0
DA:57,0
DA:58,0
DA:59,0
DA:61,0
DA:63,0
DA:65,0
DA:66,0
DA:67,0
DA:70,0
DA:71,0
DA:74,0
DA:75,0
DA:76,0
DA:77,0
DA:81,0
DA:82,0
DA:83,0
DA:84,0
DA:85,0
DA:86,0
DA:88,0
DA:90,0
DA:91,0
DA:92,0
DA:93,0
DA:97,0
DA:98,0
DA:99,0
DA:101,0
DA:102,0
DA:103,0
DA:105,0
DA:106,0
DA:107,0
DA:111,0
DA:112,0
DA:114,0
DA:115,1
DA:117,1
DA:118,1
DA:119,1
DA:122,0
DA:123,0
DA:124,0
DA:126,0
DA:127,0
DA:128,0
DA:131,0
DA:134,0
DA:135,0
DA:136,0
DA:137,0
DA:138,0
DA:141,0
DA:144,0
DA:145,0
DA:147,0
DA:148,0
DA:151,0
DA:153,0
DA:154,0
DA:155,0
DA:156,0
DA:157,0
DA:158,0
DA:160,0
DA:163,0
DA:166,0
DA:167,0
DA:168,0
DA:171,0
DA:172,0
DA:173,0
DA:174,0
DA:177,3
DA:178,3
DA:179,3
DA:182,0
DA:183,0
DA:184,0
DA:185,0
DA:186,0
DA:187,0
DA:188,0
DA:189,0
DA:191,0
DA:194,0
DA:195,0
DA:196,0
DA:197,0
DA:198,0
DA:199,0
DA:200,0
DA:201,0
DA:202,0
DA:203,0
DA:204,0
DA:205,0
DA:206,0
DA:208,0
DA:209,0
DA:212,0
DA:213,0
DA:214,0
DA:215,0
DA:218,0
DA:221,0
DA:224,0
DA:225,0
DA:226,0
DA:227,0
DA:228,0
DA:230,0
DA:231,0
DA:232,0
DA:234,0
DA:237,0
DA:238,0
DA:239,0
DA:240,0
DA:241,0
DA:243,0
DA:244,0
DA:245,0
DA:246,0
DA:248,0
DA:250,0
DA:252,0
DA:255,0
DA:256,0
DA:257,0
DA:258,0
DA:259,0
DA:260,0
DA:262,0
DA:265,0
DA:266,0
DA:267,0
DA:268,0
DA:271,0
DA:272,0
DA:273,0
DA:274,0
DA:275,0
DA:276,0
DA:277,0
DA:279,0
DA:281,0
DA:282,0
DA:284,0
DA:288,0
DA:289,0
DA:291,0
DA:292,0
DA:293,0
DA:294,0
DA:295,0
DA:297,0
DA:298,0
DA:299,0
DA:300,0
DA:301,0
DA:302,0
DA:308,0
DA:309,0
DA:310,0
DA:311,0
DA:313,0
DA:314,0
DA:316,0
DA:317,0
DA:318,0
DA:319,0
DA:320,0
DA:321,0
DA:322,0
DA:323,0
DA:324,0
DA:325,0
DA:326,0
DA:328,0
DA:329,0
DA:330,0
DA:331,0
DA:332,0
DA:333,0
DA:334,0
DA:335,0
DA:338,0
DA:339,0
DA:340,0
DA:341,0
DA:342,0
DA:343,0
DA:346,0
DA:350,0
DA:351,0
DA:353,0
DA:354,0
DA:355,0
DA:356,0
DA:358,0
DA:359,0
DA:360,0
DA:362,0
DA:363,0
DA:364,0
DA:365,0
DA:366,0
DA:367,0
DA:368,0
DA:369,0
DA:370,0
DA:371,0
DA:373,0
DA:378,0
DA:384,0
DA:385,0
DA:386,0
DA:387,0
DA:388,0
DA:389,0
DA:390,0
DA:393,0
DA:397,0
DA:398,0
DA:401,0
DA:402,0
DA:403,0
DA:404,0
DA:405,0
DA:406,0
DA:407,0
DA:408,0
DA:409,0
DA:410,0
DA:411,0
DA:412,0
DA:414,0
DA:415,0
DA:416,0
DA:418,0
DA:419,0
DA:420,0
DA:424,0
DA:425,0
DA:426,0
DA:427,0
DA:430,0
DA:431,0
DA:433,0
DA:434,0
DA:435,0
DA:438,0
DA:442,0
DA:443,0
DA:444,0
DA:445,0
DA:448,0
DA:449,0
DA:451,0
DA:452,0
DA:453,0
DA:456,0
DA:461,0
DA:462,0
DA:463,0
DA:465,0
DA:466,0
DA:467,0
DA:470,0
DA:471,0
DA:474,0
DA:476,0
DA:477,0
DA:478,0
DA:481,0
DA:485,0
DA:486,0
DA:487,0
DA:488,0
DA:491,0
DA:492,0
DA:495,0
DA:497,0
DA:498,0
DA:499,0
DA:502,0
DA:507,0
DA:508,0
DA:511,0
DA:516,0
DA:517,0
DA:518,0
DA:521,0
DA:522,0
DA:523,0
DA:524,0
DA:525,0
DA:526,0
DA:528,0
DA:529,0
DA:530,0
DA:532,0
DA:533,0
DA:541,1
DA:542,1
DA:543,1
DA:544,1
DA:545,1
DA:546,1
DA:548,1
DA:549,1
DA:551,1
DA:552,1
DA:553,1
DA:556,1
DA:557,1
DA:558,1
DA:559,1
DA:560,1
DA:561,1
DA:563,1
DA:566,1
DA:567,1
DA:568,1
DA:569,1
DA:570,1
DA:571,1
DA:572,1
DA:573,1
DA:574,1
DA:575,1
DA:576,1
DA:578,1
DA:579,1
DA:580,1
DA:583,1
DA:584,1
DA:585,1
DA:586,1
DA:587,1
DA:589,1
DA:592,1
DA:593,1
DA:594,1
BRF:0
BRH:0
LF:386
LH:69
end_of_record
SF:/Users/aiq/work/wezterm-parallel/src/error/mod.rs
FN:417,_RINvNtCsezqlaDlZ1Zy_16wezterm_parallel5error19safe_file_operationppEB4_
FN:451,_RINvNtCsezqlaDlZ1Zy_16wezterm_parallel5error19safe_lock_operationpppEB4_
FN:467,_RINvNtCsezqlaDlZ1Zy_16wezterm_parallel5error20safe_async_operationpppEB4_
FN:436,_RINvNtCsezqlaDlZ1Zy_16wezterm_parallel5error22safe_process_operationppEB4_
FN:471,_RNCINvNtCsezqlaDlZ1Zy_16wezterm_parallel5error20safe_async_operationpppE0B6_
FN:277,_RNvMs3_NtCsezqlaDlZ1Zy_16wezterm_parallel5errorNtB5_9UserError12task_timeout
FN:113,_RNvMs3_NtCsezqlaDlZ1Zy_16wezterm_parallel5errorNtB5_9UserError14room_not_found
FN:239,_RNvMs3_NtCsezqlaDlZ1Zy_16wezterm_parallel5errorNtB5_9UserError14task_not_found
FN:254,_RNvMs3_NtCsezqlaDlZ1Zy_16wezterm_parallel5errorNtB5_9UserError15task_queue_full
FN:333,_RNvMs3_NtCsezqlaDlZ1Zy_16wezterm_parallel5errorNtB5_9UserError15with_debug_info
FN:187,_RNvMs3_NtCsezqlaDlZ1Zy_16wezterm_parallel5errorNtB5_9UserError18config_load_failed
FN:135,_RNvMs3_NtCsezqlaDlZ1Zy_16wezterm_parallel5errorNtB5_9UserError20room_creation_failed
FN:328,_RNvMs3_NtCsezqlaDlZ1Zy_16wezterm_parallel5errorNtB5_9UserError21execute_auto_recovery
FN:209,_RNvMs3_NtCsezqlaDlZ1Zy_16wezterm_parallel5errorNtB5_9UserError21file_operation_failed
FN:364,_RNvMs3_NtCsezqlaDlZ1Zy_16wezterm_parallel5errorNtB5_9UserError21with_performance_info
FN:300,_RNvMs3_NtCsezqlaDlZ1Zy_16wezterm_parallel5errorNtB5_9UserError22task_dependency_failed
FN:224,_RNvMs3_NtCsezqlaDlZ1Zy_16wezterm_parallel5errorNtB5_9UserError25system_resource_exhausted
FN:150,_RNvMs3_NtCsezqlaDlZ1Zy_16wezterm_parallel5errorNtB5_9UserError26claude_code_startup_failed
FN:172,_RNvMs3_NtCsezqlaDlZ1Zy_16wezterm_parallel5errorNtB5_9UserError28process_communication_failed
FN:318,_RNvMs3_NtCsezqlaDlZ1Zy_16wezterm_parallel5errorNtB5_9UserError8severity
FN:19,_RNvXNtCsezqlaDlZ1Zy_16wezterm_parallel5errorNtB2_8LogLevelNtNtCsd2KPTObkMr_4core7default7Default7default
FN:66,_RNvXs0_NtCsezqlaDlZ1Zy_16wezterm_parallel5errorNtB5_19ErrorHandlingConfigNtNtCsd2KPTObkMr_4core7default7Default7default
FN:105,_RNvXs1_NtCsezqlaDlZ1Zy_16wezterm_parallel5errorNtB5_9UserErrorNtNtCsd2KPTObkMr_4core3fmt7Display3fmt
FN:485,_RNvXs4_NtCsezqlaDlZ1Zy_16wezterm_parallel5errorNtB5_9UserErrorINtNtCsd2KPTObkMr_4core7convert4FromNtNtNtCs9QY0sRQ9KnX_3std2io5error5ErrorE4from
FN:491,_RNvXs5_NtCsezqlaDlZ1Zy_16wezterm_parallel5errorNtB5_9UserErrorINtNtCsd2KPTObkMr_4core7convert4FromNtNtCsiY5iOtlMhIC_10serde_json5error5ErrorE4from
FN:497,_RNvXs6_NtCsezqlaDlZ1Zy_16wezterm_parallel5errorNtB5_9UserErrorINtNtCsd2KPTObkMr_4core7convert4FromNtNtCs3u5ZBO8f4qD_10serde_yaml5error5ErrorE4from
FN:503,_RNvXs7_NtCsezqlaDlZ1Zy_16wezterm_parallel5errorNtB5_9UserErrorINtNtCsd2KPTObkMr_4core7convert4FromNtNtB7_4task9TaskErrorE4from
FN:44,_RNvXs_NtCsezqlaDlZ1Zy_16wezterm_parallel5errorNtB4_11DebugConfigNtNtCsd2KPTObkMr_4core7default7Default7default
FN:603,_RNvNtNtCsbBf3qmLqCJ0_16wezterm_parallel5error5testss_21test_log_level_config
FN:584,_RNvNtNtCsbBf3qmLqCJ0_16wezterm_parallel5error5testss_21test_performance_info
FN:558,_RNvNtNtCsbBf3qmLqCJ0_16wezterm_parallel5error5testss_24test_error_serialization
FN:537,_RNvNtNtCsbBf3qmLqCJ0_16wezterm_parallel5error5testss_25test_room_not_found_error
FN:566,_RNvNtNtCsbBf3qmLqCJ0_16wezterm_parallel5error5testss_26test_debug_info_generation
FN:552,_RNvNtNtCsbBf3qmLqCJ0_16wezterm_parallel5error5testss_28test_auto_recovery_detection
FN:545,_RNvNtNtCsbBf3qmLqCJ0_16wezterm_parallel5error5testss_30test_claude_code_startup_error
FN:595,_RNvNtNtCsbBf3qmLqCJ0_16wezterm_parallel5error5testss_34test_error_handling_config_default
FN:417,_RINvNtCsbBf3qmLqCJ0_16wezterm_parallel5error19safe_file_operationppEB4_
FN:451,_RINvNtCsbBf3qmLqCJ0_16wezterm_parallel5error19safe_lock_operationpppEB4_
FN:467,_RINvNtCsbBf3qmLqCJ0_16wezterm_parallel5error20safe_async_operationpppEB4_
FN:436,_RINvNtCsbBf3qmLqCJ0_16wezterm_parallel5error22safe_process_operationppEB4_
FN:471,_RNCINvNtCsbBf3qmLqCJ0_16wezterm_parallel5error20safe_async_operationpppE0B6_
FN:277,_RNvMs3_NtCsbBf3qmLqCJ0_16wezterm_parallel5errorNtB5_9UserError12task_timeout
FN:239,_RNvMs3_NtCsbBf3qmLqCJ0_16wezterm_parallel5errorNtB5_9UserError14task_not_found
FN:254,_RNvMs3_NtCsbBf3qmLqCJ0_16wezterm_parallel5errorNtB5_9UserError15task_queue_full
FN:300,_RNvMs3_NtCsbBf3qmLqCJ0_16wezterm_parallel5errorNtB5_9UserError22task_dependency_failed
FN:491,_RNvXs5_NtCsbBf3qmLqCJ0_16wezterm_parallel5errorNtB5_9UserErrorINtNtCsd2KPTObkMr_4core7convert4FromNtNtCsiY5iOtlMhIC_10serde_json5error5ErrorE4from
FN:497,_RNvXs6_NtCsbBf3qmLqCJ0_16wezterm_parallel5errorNtB5_9UserErrorINtNtCsd2KPTObkMr_4core7convert4FromNtNtCs3u5ZBO8f4qD_10serde_yaml5error5ErrorE4from
FN:503,_RNvXs7_NtCsbBf3qmLqCJ0_16wezterm_parallel5errorNtB5_9UserErrorINtNtCsd2KPTObkMr_4core7convert4FromNtNtB7_4task9TaskErrorE4from
FN:113,_RNvMs3_NtCsbBf3qmLqCJ0_16wezterm_parallel5errorNtB5_9UserError14room_not_found
FN:333,_RNvMs3_NtCsbBf3qmLqCJ0_16wezterm_parallel5errorNtB5_9UserError15with_debug_info
FN:187,_RNvMs3_NtCsbBf3qmLqCJ0_16wezterm_parallel5errorNtB5_9UserError18config_load_failed
FN:135,_RNvMs3_NtCsbBf3qmLqCJ0_16wezterm_parallel5errorNtB5_9UserError20room_creation_failed
FN:328,_RNvMs3_NtCsbBf3qmLqCJ0_16wezterm_parallel5errorNtB5_9UserError21execute_auto_recovery
FN:209,_RNvMs3_NtCsbBf3qmLqCJ0_16wezterm_parallel5errorNtB5_9UserError21file_operation_failed
FN:364,_RNvMs3_NtCsbBf3qmLqCJ0_16wezterm_parallel5errorNtB5_9UserError21with_performance_info
FN:224,_RNvMs3_NtCsbBf3qmLqCJ0_16wezterm_parallel5errorNtB5_9UserError25system_resource_exhausted
FN:150,_RNvMs3_NtCsbBf3qmLqCJ0_16wezterm_parallel5errorNtB5_9UserError26claude_code_startup_failed
FN:172,_RNvMs3_NtCsbBf3qmLqCJ0_16wezterm_parallel5errorNtB5_9UserError28process_communication_failed
FN:318,_RNvMs3_NtCsbBf3qmLqCJ0_16wezterm_parallel5errorNtB5_9UserError8severity
FN:19,_RNvXNtCsbBf3qmLqCJ0_16wezterm_parallel5errorNtB2_8LogLevelNtNtCsd2KPTObkMr_4core7default7Default7default
FN:66,_RNvXs0_NtCsbBf3qmLqCJ0_16wezterm_parallel5errorNtB5_19ErrorHandlingConfigNtNtCsd2KPTObkMr_4core7default7Default7default
FN:105,_RNvXs1_NtCsbBf3qmLqCJ0_16wezterm_parallel5errorNtB5_9UserErrorNtNtCsd2KPTObkMr_4core3fmt7Display3fmt
FN:485,_RNvXs4_NtCsbBf3qmLqCJ0_16wezterm_parallel5errorNtB5_9UserErrorINtNtCsd2KPTObkMr_4core7convert4FromNtNtNtCs9QY0sRQ9KnX_3std2io5error5ErrorE4from
FN:44,_RNvXs_NtCsbBf3qmLqCJ0_16wezterm_parallel5errorNtB4_11DebugConfigNtNtCsd2KPTObkMr_4core7default7Default7default
FNDA:0,_RINvNtCsezqlaDlZ1Zy_16wezterm_parallel5error19safe_file_operationppEB4_
FNDA:0,_RINvNtCsezqlaDlZ1Zy_16wezterm_parallel5error19safe_lock_operationpppEB4_
FNDA:0,_RINvNtCsezqlaDlZ1Zy_16wezterm_parallel5error20safe_async_operationpppEB4_
FNDA:0,_RINvNtCsezqlaDlZ1Zy_16wezterm_parallel5error22safe_process_operationppEB4_
FNDA:0,_RNCINvNtCsezqlaDlZ1Zy_16wezterm_parallel5error20safe_async_operationpppE0B6_
FNDA:0,_RNvMs3_NtCsezqlaDlZ1Zy_16wezterm_parallel5errorNtB5_9UserError12task_timeout
FNDA:1,_RNvMs3_NtCsezqlaDlZ1Zy_16wezterm_parallel5errorNtB5_9UserError14room_not_found
FNDA:0,_RNvMs3_NtCsezqlaDlZ1Zy_16wezterm_parallel5errorNtB5_9UserError14task_not_found
FNDA:0,_RNvMs3_NtCsezqlaDlZ1Zy_16wezterm_parallel5errorNtB5_9UserError15task_queue_full
FNDA:0,_RNvMs3_NtCsezqlaDlZ1Zy_16wezterm_parallel5errorNtB5_9UserError15with_debug_info
FNDA:0,_RNvMs3_NtCsezqlaDlZ1Zy_16wezterm_parallel5errorNtB5_9UserError18config_load_failed
FNDA:1,_RNvMs3_NtCsezqlaDlZ1Zy_16wezterm_parallel5errorNtB5_9UserError20room_creation_failed
FNDA:0,_RNvMs3_NtCsezqlaDlZ1Zy_16wezterm_parallel5errorNtB5_9UserError21execute_auto_recovery
FNDA:0,_RNvMs3_NtCsezqlaDlZ1Zy_16wezterm_parallel5errorNtB5_9UserError21file_operation_failed
FNDA:0,_RNvMs3_NtCsezqlaDlZ1Zy_16wezterm_parallel5errorNtB5_9UserError21with_performance_info
FNDA:0,_RNvMs3_NtCsezqlaDlZ1Zy_16wezterm_parallel5errorNtB5_9UserError22task_dependency_failed
FNDA:0,_RNvMs3_NtCsezqlaDlZ1Zy_16wezterm_parallel5errorNtB5_9UserError25system_resource_exhausted
FNDA:7,_RNvMs3_NtCsezqlaDlZ1Zy_16wezterm_parallel5errorNtB5_9UserError26claude_code_startup_failed
FNDA:0,_RNvMs3_NtCsezqlaDlZ1Zy_16wezterm_parallel5errorNtB5_9UserError28process_communication_failed
FNDA:0,_RNvMs3_NtCsezqlaDlZ1Zy_16wezterm_parallel5errorNtB5_9UserError8severity
FNDA:0,_RNvXNtCsezqlaDlZ1Zy_16wezterm_parallel5errorNtB2_8LogLevelNtNtCsd2KPTObkMr_4core7default7Default7default
FNDA:0,_RNvXs0_NtCsezqlaDlZ1Zy_16wezterm_parallel5errorNtB5_19ErrorHandlingConfigNtNtCsd2KPTObkMr_4core7default7Default7default
FNDA:0,_RNvXs1_NtCsezqlaDlZ1Zy_16wezterm_parallel5errorNtB5_9UserErrorNtNtCsd2KPTObkMr_4core3fmt7Display3fmt
FNDA:0,_RNvXs4_NtCsezqlaDlZ1Zy_16wezterm_parallel5errorNtB5_9UserErrorINtNtCsd2KPTObkMr_4core7convert4FromNtNtNtCs9QY0sRQ9KnX_3std2io5error5ErrorE4from
FNDA:0,_RNvXs5_NtCsezqlaDlZ1Zy_16wezterm_parallel5errorNtB5_9UserErrorINtNtCsd2KPTObkMr_4core7convert4FromNtNtCsiY5iOtlMhIC_10serde_json5error5ErrorE4from
FNDA:0,_RNvXs6_NtCsezqlaDlZ1Zy_16wezterm_parallel5errorNtB5_9UserErrorINtNtCsd2KPTObkMr_4core7convert4FromNtNtCs3u5ZBO8f4qD_10serde_yaml5error5ErrorE4from
FNDA:0,_RNvXs7_NtCsezqlaDlZ1Zy_16wezterm_parallel5errorNtB5_9UserErrorINtNtCsd2KPTObkMr_4core7convert4FromNtNtB7_4task9TaskErrorE4from
FNDA:0,_RNvXs_NtCsezqlaDlZ1Zy_16wezterm_parallel5errorNtB4_11DebugConfigNtNtCsd2KPTObkMr_4core7default7Default7default
FNDA:1,_RNvNtNtCsbBf3qmLqCJ0_16wezterm_parallel5error5testss_21test_log_level_config
FNDA:1,_RNvNtNtCsbBf3qmLqCJ0_16wezterm_parallel5error5testss_21test_performance_info
FNDA:1,_RNvNtNtCsbBf3qmLqCJ0_16wezterm_parallel5error5testss_24test_error_serialization
FNDA:1,_RNvNtNtCsbBf3qmLqCJ0_16wezterm_parallel5error5testss_25test_room_not_found_error
FNDA:1,_RNvNtNtCsbBf3qmLqCJ0_16wezterm_parallel5error5testss_26test_debug_info_generation
FNDA:1,_RNvNtNtCsbBf3qmLqCJ0_16wezterm_parallel5error5testss_28test_auto_recovery_detection
FNDA:1,_RNvNtNtCsbBf3qmLqCJ0_16wezterm_parallel5error5testss_30test_claude_code_startup_error
FNDA:1,_RNvNtNtCsbBf3qmLqCJ0_16wezterm_parallel5error5testss_34test_error_handling_config_default
FNDA:0,_RINvNtCsbBf3qmLqCJ0_16wezterm_parallel5error19safe_file_operationppEB4_
FNDA:0,_RINvNtCsbBf3qmLqCJ0_16wezterm_parallel5error19safe_lock_operationpppEB4_
FNDA:0,_RINvNtCsbBf3qmLqCJ0_16wezterm_parallel5error20safe_async_operationpppEB4_
FNDA:0,_RINvNtCsbBf3qmLqCJ0_16wezterm_parallel5error22safe_process_operationppEB4_
FNDA:0,_RNCINvNtCsbBf3qmLqCJ0_16wezterm_parallel5error20safe_async_operationpppE0B6_
FNDA:0,_RNvMs3_NtCsbBf3qmLqCJ0_16wezterm_parallel5errorNtB5_9UserError12task_timeout
FNDA:0,_RNvMs3_NtCsbBf3qmLqCJ0_16wezterm_parallel5errorNtB5_9UserError14task_not_found
FNDA:0,_RNvMs3_NtCsbBf3qmLqCJ0_16wezterm_parallel5errorNtB5_9UserError15task_queue_full
FNDA:0,_RNvMs3_NtCsbBf3qmLqCJ0_16wezterm_parallel5errorNtB5_9UserError22task_dependency_failed
FNDA:0,_RNvXs5_NtCsbBf3qmLqCJ0_16wezterm_parallel5errorNtB5_9UserErrorINtNtCsd2KPTObkMr_4core7convert4FromNtNtCsiY5iOtlMhIC_10serde_json5error5ErrorE4from
FNDA:0,_RNvXs6_NtCsbBf3qmLqCJ0_16wezterm_parallel5errorNtB5_9UserErrorINtNtCsd2KPTObkMr_4core7convert4FromNtNtCs3u5ZBO8f4qD_10serde_yaml5error5ErrorE4from
FNDA:0,_RNvXs7_NtCsbBf3qmLqCJ0_16wezterm_parallel5errorNtB5_9UserErrorINtNtCsd2KPTObkMr_4core7convert4FromNtNtB7_4task9TaskErrorE4from
FNDA:6,_RNvMs3_NtCsbBf3qmLqCJ0_16wezterm_parallel5errorNtB5_9UserError14room_not_found
FNDA:5,_RNvMs3_NtCsbBf3qmLqCJ0_16wezterm_parallel5errorNtB5_9UserError15with_debug_info
FNDA:0,_RNvMs3_NtCsbBf3qmLqCJ0_16wezterm_parallel5errorNtB5_9UserError18config_load_failed
FNDA:3,_RNvMs3_NtCsbBf3qmLqCJ0_16wezterm_parallel5errorNtB5_9UserError20room_creation_failed
FNDA:1,_RNvMs3_NtCsbBf3qmLqCJ0_16wezterm_parallel5errorNtB5_9UserError21execute_auto_recovery
FNDA:0,_RNvMs3_NtCsbBf3qmLqCJ0_16wezterm_parallel5errorNtB5_9UserError21file_operation_failed
FNDA:1,_RNvMs3_NtCsbBf3qmLqCJ0_16wezterm_parallel5errorNtB5_9UserError21with_performance_info
FNDA:0,_RNvMs3_NtCsbBf3qmLqCJ0_16wezterm_parallel5errorNtB5_9UserError25system_resource_exhausted
FNDA:2,_RNvMs3_NtCsbBf3qmLqCJ0_16wezterm_parallel5errorNtB5_9UserError26claude_code_startup_failed
FNDA:1,_RNvMs3_NtCsbBf3qmLqCJ0_16wezterm_parallel5errorNtB5_9UserError28process_communication_failed
FNDA:6,_RNvMs3_NtCsbBf3qmLqCJ0_16wezterm_parallel5errorNtB5_9UserError8severity
FNDA:5,_RNvXNtCsbBf3qmLqCJ0_16wezterm_parallel5errorNtB2_8LogLevelNtNtCsd2KPTObkMr_4core7default7Default7default
FNDA:4,_RNvXs0_NtCsbBf3qmLqCJ0_16wezterm_parallel5errorNtB5_19ErrorHandlingConfigNtNtCsd2KPTObkMr_4core7default7Default7default
FNDA:0,_RNvXs1_NtCsbBf3qmLqCJ0_16wezterm_parallel5errorNtB5_9UserErrorNtNtCsd2KPTObkMr_4core3fmt7Display3fmt
FNDA:0,_RNvXs4_NtCsbBf3qmLqCJ0_16wezterm_parallel5errorNtB5_9UserErrorINtNtCsd2KPTObkMr_4core7convert4FromNtNtNtCs9QY0sRQ9KnX_3std2io5error5ErrorE4from
FNDA:4,_RNvXs_NtCsbBf3qmLqCJ0_16wezterm_parallel5errorNtB4_11DebugConfigNtNtCsd2KPTObkMr_4core7default7Default7default
FNF:36
FNH:19
DA:19,5
DA:20,5
DA:21,5
DA:22,5
DA:23,5
DA:24,5
DA:26,5
DA:27,5
DA:28,5
DA:29,5
DA:30,5
DA:44,4
DA:45,4
DA:46,4
DA:47,4
DA:48,4
DA:49,4
DA:50,4
DA:51,4
DA:52,4
DA:66,4
DA:67,4
DA:68,4
DA:69,4
DA:70,4
DA:71,4
DA:72,4
DA:73,4
DA:74,4
DA:105,0
DA:106,0
DA:107,0
DA:113,7
DA:114,7
DA:115,7
DA:116,7
DA:117,7
DA:118,7
DA:119,7
DA:120,7
DA:121,7
DA:122,7
DA:123,7
DA:124,7
DA:125,7
DA:126,7
DA:127,7
DA:128,7
DA:129,7
DA:130,7
DA:131,7
DA:132,7
DA:133,7
DA:135,4
DA:136,4
DA:137,4
DA:138,4
DA:139,4
DA:140,4
DA:141,4
DA:142,4
DA:143,4
DA:144,4
DA:145,4
DA:146,4
DA:147,4
DA:148,4
DA:150,9
DA:151,9
DA:152,9
DA:153,9
DA:154,9
DA:155,9
DA:156,9
DA:157,9
DA:158,9
DA:159,9
DA:160,9
DA:161,9
DA:162,9
DA:163,9
DA:164,9
DA:165,9
DA:166,9
DA:167,9
DA:168,9
DA:169,9
DA:170,9
DA:172,1
DA:173,1
DA:174,1
DA:175,1
DA:176,1
DA:177,1
DA:178,1
DA:179,1
DA:180,1
DA:181,1
DA:182,1
DA:183,1
DA:184,1
DA:185,1
DA:187,0
DA:188,0
DA:189,0
DA:190,0
DA:191,0
DA:192,0
DA:193,0
DA:194,0
DA:195,0
DA:196,0
DA:197,0
DA:198,0
DA:199,0
DA:200,0
DA:201,0
DA:202,0
DA:203,0
DA:204,0
DA:205,0
DA:206,0
DA:207,0
DA:209,0
DA:210,0
DA:211,0
DA:212,0
DA:213,0
DA:214,0
DA:215,0
DA:216,0
DA:217,0
DA:218,0
DA:219,0
DA:220,0
DA:221,0
DA:222,0
DA:224,0
DA:225,0
DA:226,0
DA:227,0
DA:228,0
DA:229,0
DA:230,0
DA:231,0
DA:232,0
DA:233,0
DA:234,0
DA:235,0
DA:236,0
DA:237,0
DA:239,0
DA:240,0
DA:241,0
DA:242,0
DA:243,0
DA:244,0
DA:245,0
DA:246,0
DA:247,0
DA:248,0
DA:249,0
DA:250,0
DA:251,0
DA:252,0
DA:254,0
DA:255,0
DA:256,0
DA:257,0
DA:258,0
DA:259,0
DA:260,0
DA:261,0
DA:262,0
DA:263,0
DA:264,0
DA:265,0
DA:266,0
DA:267,0
DA:268,0
DA:269,0
DA:270,0
DA:271,0
DA:272,0
DA:273,0
DA:274,0
DA:275,0
DA:277,0
DA:278,0
DA:279,0
DA:280,0
DA:281,0
DA:282,0
DA:283,0
DA:284,0
DA:285,0
DA:286,0
DA:287,0
DA:288,0
DA:289,0
DA:290,0
DA:291,0
DA:292,0
DA:293,0
DA:294,0
DA:295,0
DA:296,0
DA:297,0
DA:298,0
DA:300,0
DA:301,0
DA:302,0
DA:303,0
DA:304,0
DA:305,0
DA:306,0
DA:307,0
DA:308,0
DA:309,0
DA:310,0
DA:311,0
DA:312,0
DA:313,0
DA:314,0
DA:315,0
DA:318,6
DA:319,6
DA:320,0
DA:321,4
DA:322,2
DA:323,0
DA:325,6
DA:328,1
DA:329,1
DA:330,1
DA:333,5
DA:334,5
DA:336,5
DA:337,5
DA:338,5
DA:339,5
DA:340,5
DA:342,5
DA:343,4
DA:344,4
DA:346,5
DA:348,5
DA:349,5
DA:350,10
DA:351,10
DA:352,10
DA:353,10
DA:354,10
DA:355,10
DA:356,10
DA:357,10
DA:358,0
DA:360,5
DA:361,5
DA:364,1
DA:365,1
DA:366,1
DA:367,1
DA:368,1
DA:369,1
DA:370,1
DA:373,1
DA:375,1
DA:417,0
DA:418,0
DA:419,0
DA:421,0
DA:422,0
DA:423,0
DA:424,0
DA:425,0
DA:426,0
DA:427,0
DA:428,0
DA:429,0
DA:432,0
DA:436,0
DA:437,0
DA:438,0
DA:440,0
DA:441,0
DA:442,0
DA:443,0
DA:444,0
DA:447,0
DA:451,0
DA:452,0
DA:453,0
DA:455,0
DA:456,0
DA:458,0
DA:459,0
DA:460,0
DA:461,0
DA:464,0
DA:467,0
DA:468,0
DA:469,0
DA:470,0
DA:471,0
DA:472,0
DA:473,0
DA:474,0
DA:475,0
DA:476,0
DA:477,0
DA:478,0
DA:481,0
DA:485,0
DA:486,0
DA:487,0
DA:491,0
DA:492,0
DA:493,0
DA:497,0
DA:498,0
DA:499,0
DA:503,0
DA:504,0
DA:505,0
DA:506,0
DA:507,0
DA:508,0
DA:510,0
DA:511,0
DA:513,0
DA:514,0
DA:516,0
DA:517,0
DA:519,0
DA:520,0
DA:522,0
DA:523,0
DA:525,0
DA:526,0
DA:529,0
DA:537,1
DA:538,1
DA:539,1
DA:540,1
DA:541,1
DA:542,1
DA:545,1
DA:546,1
DA:547,1
DA:548,1
DA:549,1
DA:552,1
DA:553,1
DA:554,1
DA:555,1
DA:558,1
DA:559,1
DA:560,1
DA:561,1
DA:562,1
DA:563,1
DA:566,1
DA:567,1
DA:568,1
DA:569,1
DA:570,1
DA:571,1
DA:572,1
DA:573,1
DA:574,1
DA:576,1
DA:577,1
DA:578,1
DA:579,1
DA:580,1
DA:581,1
DA:584,1
DA:585,1
DA:586,1
DA:587,1
DA:589,1
DA:590,1
DA:591,1
DA:592,1
DA:595,1
DA:596,1
DA:597,1
DA:598,1
DA:599,1
DA:600,1
DA:603,1
DA:604,1
DA:605,1
DA:606,1
DA:607,1
BRF:0
BRH:0
LF:396
LH:194
end_of_record
SF:/Users/aiq/work/wezterm-parallel/src/error/recovery.rs
FN:64,_RNCNvMNtNtCsezqlaDlZ1Zy_16wezterm_parallel5error8recoveryNtB4_20ErrorRecoveryManager16attempt_recovery0B8_
FN:232,_RNCNvMNtNtCsezqlaDlZ1Zy_16wezterm_parallel5error8recoveryNtB4_20ErrorRecoveryManager18recover_file_error0B8_
FN:169,_RNCNvMNtNtCsezqlaDlZ1Zy_16wezterm_parallel5error8recoveryNtB4_20ErrorRecoveryManager18recover_room_error0B8_
FN:277,_RNCNvMNtNtCsezqlaDlZ1Zy_16wezterm_parallel5error8recoveryNtB4_20ErrorRecoveryManager19ensure_default_room0B8_
FN:222,_RNCNvMNtNtCsezqlaDlZ1Zy_16wezterm_parallel5error8recoveryNtB4_20ErrorRecoveryManager20recover_config_error0B8_
FN:249,_RNCNvMNtNtCsezqlaDlZ1Zy_16wezterm_parallel5error8recoveryNtB4_20ErrorRecoveryManager20recover_system_error0B8_
FN:399,_RNCNvMNtNtCsezqlaDlZ1Zy_16wezterm_parallel5error8recoveryNtB4_20ErrorRecoveryManager21cleanup_old_processes0B8_
FN:266,_RNCNvMNtNtCsezqlaDlZ1Zy_16wezterm_parallel5error8recoveryNtB4_20ErrorRecoveryManager21recover_network_error0B8_
FN:190,_RNCNvMNtNtCsezqlaDlZ1Zy_16wezterm_parallel5error8recoveryNtB4_20ErrorRecoveryManager21recover_process_error0B8_
FN:385,_RNCNvMNtNtCsezqlaDlZ1Zy_16wezterm_parallel5error8recoveryNtB4_20ErrorRecoveryManager24restart_failed_processes0B8_
FN:434,_RNCNvMNtNtCsezqlaDlZ1Zy_16wezterm_parallel5error8recoveryNtB4_20ErrorRecoveryManager18get_recovery_stats0B8_
FN:434,_RNCNvMNtNtCsbBf3qmLqCJ0_16wezterm_parallel5error8recoveryNtB4_20ErrorRecoveryManager18get_recovery_stats0B8_
FN:35,_RNvMNtNtCsbBf3qmLqCJ0_16wezterm_parallel5error8recoveryNtB2_20ErrorRecoveryManager11with_config
FN:427,_RNvMNtNtCsbBf3qmLqCJ0_16wezterm_parallel5error8recoveryNtB2_20ErrorRecoveryManager18get_recovery_stats
FN:346,_RNvMNtNtCsbBf3qmLqCJ0_16wezterm_parallel5error8recoveryNtB2_20ErrorRecoveryManager20debug_recovery_state
FN:311,_RNvMNtNtCsbBf3qmLqCJ0_16wezterm_parallel5error8recoveryNtB2_20ErrorRecoveryManager20log_error_statistics
FN:55,_RNvMNtNtCsbBf3qmLqCJ0_16wezterm_parallel5error8recoveryNtB2_20ErrorRecoveryManager21get_recovery_attempts
FN:59,_RNvMNtNtCsbBf3qmLqCJ0_16wezterm_parallel5error8recoveryNtB2_20ErrorRecoveryManager25get_max_recovery_attempts
FN:452,_RNvNtNtNtCsbBf3qmLqCJ0_16wezterm_parallel5error8recovery5tests19create_test_manager
FN:501,_RNvNtNtNtCsbBf3qmLqCJ0_16wezterm_parallel5error8recovery5testss_24test_guidance_generation
FN:460,_RNvNtNtNtCsbBf3qmLqCJ0_16wezterm_parallel5error8recovery5testss_24test_room_error_recovery
FN:470,_RNvNtNtNtCsbBf3qmLqCJ0_16wezterm_parallel5error8recovery5testss_27test_recovery_attempt_limit
FN:64,_RNvMNtNtCsbBf3qmLqCJ0_16wezterm_parallel5error8recoveryNtB2_20ErrorRecoveryManager16attempt_recovery
FN:232,_RNvMNtNtCsbBf3qmLqCJ0_16wezterm_parallel5error8recoveryNtB2_20ErrorRecoveryManager18recover_file_error
FN:169,_RNvMNtNtCsbBf3qmLqCJ0_16wezterm_parallel5error8recoveryNtB2_20ErrorRecoveryManager18recover_room_error
FN:277,_RNvMNtNtCsbBf3qmLqCJ0_16wezterm_parallel5error8recoveryNtB2_20ErrorRecoveryManager19ensure_default_room
FN:50,_RNvMNtNtCsbBf3qmLqCJ0_16wezterm_parallel5error8recoveryNtB2_20ErrorRecoveryManager19set_process_manager
FN:222,_RNvMNtNtCsbBf3qmLqCJ0_16wezterm_parallel5error8recoveryNtB2_20ErrorRecoveryManager20recover_config_error
FN:249,_RNvMNtNtCsbBf3qmLqCJ0_16wezterm_parallel5error8recoveryNtB2_20ErrorRecoveryManager20recover_system_error
FN:399,_RNvMNtNtCsbBf3qmLqCJ0_16wezterm_parallel5error8recoveryNtB2_20ErrorRecoveryManager21cleanup_old_processes
FN:266,_RNvMNtNtCsbBf3qmLqCJ0_16wezterm_parallel5error8recoveryNtB2_20ErrorRecoveryManager21recover_network_error
FN:190,_RNvMNtNtCsbBf3qmLqCJ0_16wezterm_parallel5error8recoveryNtB2_20ErrorRecoveryManager21recover_process_error
FN:385,_RNvMNtNtCsbBf3qmLqCJ0_16wezterm_parallel5error8recoveryNtB2_20ErrorRecoveryManager24restart_failed_processes
FN:408,_RNvMNtNtCsbBf3qmLqCJ0_16wezterm_parallel5error8recoveryNtB2_20ErrorRecoveryManager26generate_recovery_guidance
FN:22,_RNvMNtNtCsbBf3qmLqCJ0_16wezterm_parallel5error8recoveryNtB2_20ErrorRecoveryManager3new
FN:64,_RNCNvMNtNtCsbBf3qmLqCJ0_16wezterm_parallel5error8recoveryNtB4_20ErrorRecoveryManager16attempt_recovery0B8_
FN:232,_RNCNvMNtNtCsbBf3qmLqCJ0_16wezterm_parallel5error8recoveryNtB4_20ErrorRecoveryManager18recover_file_error0B8_
FN:169,_RNCNvMNtNtCsbBf3qmLqCJ0_16wezterm_parallel5error8recoveryNtB4_20ErrorRecoveryManager18recover_room_error0B8_
FN:277,_RNCNvMNtNtCsbBf3qmLqCJ0_16wezterm_parallel5error8recoveryNtB4_20ErrorRecoveryManager19ensure_default_room0B8_
FN:222,_RNCNvMNtNtCsbBf3qmLqCJ0_16wezterm_parallel5error8recoveryNtB4_20ErrorRecoveryManager20recover_config_error0B8_
FN:249,_RNCNvMNtNtCsbBf3qmLqCJ0_16wezterm_parallel5error8recoveryNtB4_20ErrorRecoveryManager20recover_system_error0B8_
FN:399,_RNCNvMNtNtCsbBf3qmLqCJ0_16wezterm_parallel5error8recoveryNtB4_20ErrorRecoveryManager21cleanup_old_processes0B8_
FN:266,_RNCNvMNtNtCsbBf3qmLqCJ0_16wezterm_parallel5error8recoveryNtB4_20ErrorRecoveryManager21recover_network_error0B8_
FN:190,_RNCNvMNtNtCsbBf3qmLqCJ0_16wezterm_parallel5error8recoveryNtB4_20ErrorRecoveryManager21recover_process_error0B8_
FN:385,_RNCNvMNtNtCsbBf3qmLqCJ0_16wezterm_parallel5error8recoveryNtB4_20ErrorRecoveryManager24restart_failed_processes0B8_
FN:452,_RNCNvNtNtNtCsbBf3qmLqCJ0_16wezterm_parallel5error8recovery5tests19create_test_manager0B9_
FN:501,_RNCNvNtNtNtCsbBf3qmLqCJ0_16wezterm_parallel5error8recovery5testss_24test_guidance_generation0B9_
FN:460,_RNCNvNtNtNtCsbBf3qmLqCJ0_16wezterm_parallel5error8recovery5testss_24test_room_error_recovery0B9_
FN:470,_RNCNvNtNtNtCsbBf3qmLqCJ0_16wezterm_parallel5error8recovery5testss_27test_recovery_attempt_limit0B9_
FNDA:0,_RNCNvMNtNtCsezqlaDlZ1Zy_16wezterm_parallel5error8recoveryNtB4_20ErrorRecoveryManager16attempt_recovery0B8_
FNDA:0,_RNCNvMNtNtCsezqlaDlZ1Zy_16wezterm_parallel5error8recoveryNtB4_20ErrorRecoveryManager18recover_file_error0B8_
FNDA:0,_RNCNvMNtNtCsezqlaDlZ1Zy_16wezterm_parallel5error8recoveryNtB4_20ErrorRecoveryManager18recover_room_error0B8_
FNDA:0,_RNCNvMNtNtCsezqlaDlZ1Zy_16wezterm_parallel5error8recoveryNtB4_20ErrorRecoveryManager19ensure_default_room0B8_
FNDA:0,_RNCNvMNtNtCsezqlaDlZ1Zy_16wezterm_parallel5error8recoveryNtB4_20ErrorRecoveryManager20recover_config_error0B8_
FNDA:0,_RNCNvMNtNtCsezqlaDlZ1Zy_16wezterm_parallel5error8recoveryNtB4_20ErrorRecoveryManager20recover_system_error0B8_
FNDA:0,_RNCNvMNtNtCsezqlaDlZ1Zy_16wezterm_parallel5error8recoveryNtB4_20ErrorRecoveryManager21cleanup_old_processes0B8_
FNDA:0,_RNCNvMNtNtCsezqlaDlZ1Zy_16wezterm_parallel5error8recoveryNtB4_20ErrorRecoveryManager21recover_network_error0B8_
FNDA:0,_RNCNvMNtNtCsezqlaDlZ1Zy_16wezterm_parallel5error8recoveryNtB4_20ErrorRecoveryManager21recover_process_error0B8_
FNDA:0,_RNCNvMNtNtCsezqlaDlZ1Zy_16wezterm_parallel5error8recoveryNtB4_20ErrorRecoveryManager24restart_failed_processes0B8_
FNDA:0,_RNCNvMNtNtCsezqlaDlZ1Zy_16wezterm_parallel5error8recoveryNtB4_20ErrorRecoveryManager18get_recovery_stats0B8_
FNDA:0,_RNCNvMNtNtCsbBf3qmLqCJ0_16wezterm_parallel5error8recoveryNtB4_20ErrorRecoveryManager18get_recovery_stats0B8_
FNDA:0,_RNvMNtNtCsbBf3qmLqCJ0_16wezterm_parallel5error8recoveryNtB2_20ErrorRecoveryManager11with_config
FNDA:0,_RNvMNtNtCsbBf3qmLqCJ0_16wezterm_parallel5error8recoveryNtB2_20ErrorRecoveryManager18get_recovery_stats
FNDA:0,_RNvMNtNtCsbBf3qmLqCJ0_16wezterm_parallel5error8recoveryNtB2_20ErrorRecoveryManager20debug_recovery_state
FNDA:0,_RNvMNtNtCsbBf3qmLqCJ0_16wezterm_parallel5error8recoveryNtB2_20ErrorRecoveryManager20log_error_statistics
FNDA:0,_RNvMNtNtCsbBf3qmLqCJ0_16wezterm_parallel5error8recoveryNtB2_20ErrorRecoveryManager21get_recovery_attempts
FNDA:0,_RNvMNtNtCsbBf3qmLqCJ0_16wezterm_parallel5error8recoveryNtB2_20ErrorRecoveryManager25get_max_recovery_attempts
FNDA:3,_RNvNtNtNtCsbBf3qmLqCJ0_16wezterm_parallel5error8recovery5tests19create_test_manager
FNDA:1,_RNvNtNtNtCsbBf3qmLqCJ0_16wezterm_parallel5error8recovery5testss_24test_guidance_generation
FNDA:1,_RNvNtNtNtCsbBf3qmLqCJ0_16wezterm_parallel5error8recovery5testss_24test_room_error_recovery
FNDA:1,_RNvNtNtNtCsbBf3qmLqCJ0_16wezterm_parallel5error8recovery5testss_27test_recovery_attempt_limit
FNDA:6,_RNvMNtNtCsbBf3qmLqCJ0_16wezterm_parallel5error8recoveryNtB2_20ErrorRecoveryManager16attempt_recovery
FNDA:0,_RNvMNtNtCsbBf3qmLqCJ0_16wezterm_parallel5error8recoveryNtB2_20ErrorRecoveryManager18recover_file_error
FNDA:1,_RNvMNtNtCsbBf3qmLqCJ0_16wezterm_parallel5error8recoveryNtB2_20ErrorRecoveryManager18recover_room_error
FNDA:0,_RNvMNtNtCsbBf3qmLqCJ0_16wezterm_parallel5error8recoveryNtB2_20ErrorRecoveryManager19ensure_default_room
FNDA:1,_RNvMNtNtCsbBf3qmLqCJ0_16wezterm_parallel5error8recoveryNtB2_20ErrorRecoveryManager19set_process_manager
FNDA:0,_RNvMNtNtCsbBf3qmLqCJ0_16wezterm_parallel5error8recoveryNtB2_20ErrorRecoveryManager20recover_config_error
FNDA:0,_RNvMNtNtCsbBf3qmLqCJ0_16wezterm_parallel5error8recoveryNtB2_20ErrorRecoveryManager20recover_system_error
FNDA:0,_RNvMNtNtCsbBf3qmLqCJ0_16wezterm_parallel5error8recoveryNtB2_20ErrorRecoveryManager21cleanup_old_processes
FNDA:0,_RNvMNtNtCsbBf3qmLqCJ0_16wezterm_parallel5error8recoveryNtB2_20ErrorRecoveryManager21recover_network_error
FNDA:3,_RNvMNtNtCsbBf3qmLqCJ0_16wezterm_parallel5error8recoveryNtB2_20ErrorRecoveryManager21recover_process_error
FNDA:0,_RNvMNtNtCsbBf3qmLqCJ0_16wezterm_parallel5error8recoveryNtB2_20ErrorRecoveryManager24restart_failed_processes
FNDA:1,_RNvMNtNtCsbBf3qmLqCJ0_16wezterm_parallel5error8recoveryNtB2_20ErrorRecoveryManager26generate_recovery_guidance
FNDA:3,_RNvMNtNtCsbBf3qmLqCJ0_16wezterm_parallel5error8recoveryNtB2_20ErrorRecoveryManager3new
FNDA:6,_RNCNvMNtNtCsbBf3qmLqCJ0_16wezterm_parallel5error8recoveryNtB4_20ErrorRecoveryManager16attempt_recovery0B8_
FNDA:0,_RNCNvMNtNtCsbBf3qmLqCJ0_16wezterm_parallel5error8recoveryNtB4_20ErrorRecoveryManager18recover_file_error0B8_
FNDA:1,_RNCNvMNtNtCsbBf3qmLqCJ0_16wezterm_parallel5error8recoveryNtB4_20ErrorRecoveryManager18recover_room_error0B8_
FNDA:0,_RNCNvMNtNtCsbBf3qmLqCJ0_16wezterm_parallel5error8recoveryNtB4_20ErrorRecoveryManager19ensure_default_room0B8_
FNDA:0,_RNCNvMNtNtCsbBf3qmLqCJ0_16wezterm_parallel5error8recoveryNtB4_20ErrorRecoveryManager20recover_config_error0B8_
FNDA:0,_RNCNvMNtNtCsbBf3qmLqCJ0_16wezterm_parallel5error8recoveryNtB4_20ErrorRecoveryManager20recover_system_error0B8_
FNDA:0,_RNCNvMNtNtCsbBf3qmLqCJ0_16wezterm_parallel5error8recoveryNtB4_20ErrorRecoveryManager21cleanup_old_processes0B8_
FNDA:0,_RNCNvMNtNtCsbBf3qmLqCJ0_16wezterm_parallel5error8recoveryNtB4_20ErrorRecoveryManager21recover_network_error0B8_
FNDA:3,_RNCNvMNtNtCsbBf3qmLqCJ0_16wezterm_parallel5error8recoveryNtB4_20ErrorRecoveryManager21recover_process_error0B8_
FNDA:0,_RNCNvMNtNtCsbBf3qmLqCJ0_16wezterm_parallel5error8recoveryNtB4_20ErrorRecoveryManager24restart_failed_processes0B8_
FNDA:3,_RNCNvNtNtNtCsbBf3qmLqCJ0_16wezterm_parallel5error8recovery5tests19create_test_manager0B9_
FNDA:1,_RNCNvNtNtNtCsbBf3qmLqCJ0_16wezterm_parallel5error8recovery5testss_24test_guidance_generation0B9_
FNDA:1,_RNCNvNtNtNtCsbBf3qmLqCJ0_16wezterm_parallel5error8recovery5testss_24test_room_error_recovery0B9_
FNDA:1,_RNCNvNtNtNtCsbBf3qmLqCJ0_16wezterm_parallel5error8recovery5testss_27test_recovery_attempt_limit0B9_
FNF:38
FNH:17
DA:22,3
DA:23,3
DA:24,3
DA:26,3
DA:27,3
DA:28,3
DA:29,3
DA:30,3
DA:31,3
DA:32,3
DA:33,3
DA:35,0
DA:36,0
DA:37,0
DA:38,0
DA:39,0
DA:41,0
DA:42,0
DA:43,0
DA:44,0
DA:45,0
DA:46,0
DA:47,0
DA:48,0
DA:50,1
DA:51,1
DA:52,1
DA:55,0
DA:56,0
DA:57,0
DA:59,0
DA:60,0
DA:61,0
DA:64,6
DA:66,6
DA:67,0
DA:68,0
DA:69,0
DA:70,0
DA:71,0
DA:74,0
DA:75,6
DA:77,6
DA:80,6
DA:81,6
DA:82,2
DA:83,2
DA:84,2
DA:85,2
DA:86,2
DA:88,2
DA:89,2
DA:90,2
DA:94,2
DA:95,4
DA:98,4
DA:99,4
DA:102,4
DA:103,4
DA:104,4
DA:105,4
DA:106,4
DA:107,4
DA:110,4
DA:111,4
DA:112,4
DA:113,4
DA:115,4
DA:118,4
DA:119,4
DA:120,4
DA:121,4
DA:122,4
DA:123,4
DA:124,4
DA:125,4
DA:126,4
DA:127,0
DA:128,0
DA:129,0
DA:130,0
DA:131,0
DA:132,0
DA:133,0
DA:134,0
DA:135,0
DA:137,4
DA:138,1
DA:139,3
DA:140,0
DA:141,0
DA:142,0
DA:143,0
DA:146,4
DA:147,3
DA:148,3
DA:149,3
DA:150,3
DA:151,3
DA:152,3
DA:153,3
DA:154,3
DA:155,3
DA:156,3
DA:157,1
DA:158,1
DA:159,1
DA:160,1
DA:161,1
DA:162,1
DA:163,1
DA:164,1
DA:166,4
DA:167,6
DA:169,1
DA:170,1
DA:171,1
DA:173,1
DA:175,0
DA:177,0
DA:178,0
DA:179,0
DA:180,0
DA:181,0
DA:182,0
DA:184,0
DA:186,0
DA:188,1
DA:190,3
DA:191,3
DA:192,3
DA:193,3
DA:195,3
DA:196,3
DA:197,3
DA:198,3
DA:199,3
DA:200,3
DA:202,3
DA:205,3
DA:207,0
DA:209,0
DA:210,0
DA:211,0
DA:212,0
DA:213,0
DA:215,0
DA:218,0
DA:220,3
DA:222,0
DA:224,0
DA:225,0
DA:226,0
DA:227,0
DA:229,0
DA:230,0
DA:232,0
DA:234,0
DA:236,0
DA:237,0
DA:238,0
DA:239,0
DA:240,0
DA:243,0
DA:245,0
DA:247,0
DA:249,0
DA:250,0
DA:251,0
DA:253,0
DA:254,0
DA:255,0
DA:256,0
DA:257,0
DA:258,0
DA:260,0
DA:262,0
DA:264,0
DA:266,0
DA:268,0
DA:269,0
DA:270,0
DA:271,0
DA:273,0
DA:274,0
DA:275,0
DA:277,0
DA:279,0
DA:281,0
DA:282,0
DA:283,0
DA:286,0
DA:287,0
DA:288,0
DA:289,0
DA:290,0
DA:291,0
DA:294,0
DA:295,0
DA:296,0
DA:297,0
DA:299,0
DA:300,0
DA:301,0
DA:302,0
DA:303,0
DA:308,0
DA:311,0
DA:312,0
DA:314,0
DA:315,0
DA:316,0
DA:317,0
DA:318,0
DA:319,0
DA:320,0
DA:322,0
DA:323,0
DA:324,0
DA:330,0
DA:331,0
DA:332,0
DA:333,0
DA:334,0
DA:335,0
DA:336,0
DA:337,0
DA:338,0
DA:339,0
DA:340,0
DA:341,0
DA:342,0
DA:343,0
DA:346,0
DA:347,0
DA:348,0
DA:350,0
DA:351,0
DA:352,0
DA:353,0
DA:355,0
DA:356,0
DA:357,0
DA:361,0
DA:362,0
DA:363,0
DA:364,0
DA:366,0
DA:367,0
DA:368,0
DA:369,0
DA:372,0
DA:373,0
DA:374,0
DA:375,0
DA:376,0
DA:377,0
DA:378,0
DA:379,0
DA:380,0
DA:381,0
DA:382,0
DA:383,0
DA:385,0
DA:387,0
DA:388,0
DA:389,0
DA:392,0
DA:396,0
DA:397,0
DA:399,0
DA:401,0
DA:402,0
DA:403,0
DA:404,0
DA:405,0
DA:408,1
DA:409,1
DA:410,1
DA:412,1
DA:413,1
DA:414,2
DA:415,2
DA:416,2
DA:417,0
DA:418,2
DA:420,0
DA:422,1
DA:423,1
DA:424,1
DA:427,0
DA:429,0
DA:430,0
DA:431,0
DA:432,0
DA:433,0
DA:434,0
DA:435,0
DA:437,0
DA:452,3
DA:453,3
DA:454,3
DA:455,3
DA:456,3
DA:457,3
DA:460,1
DA:461,1
DA:462,1
DA:465,1
DA:466,1
DA:467,1
DA:470,1
DA:471,1
DA:473,1
DA:474,1
DA:475,1
DA:476,1
DA:477,1
DA:478,1
DA:479,1
DA:480,1
DA:481,1
DA:482,1
DA:483,1
DA:484,1
DA:485,1
DA:487,1
DA:490,6
DA:491,5
DA:492,5
DA:493,3
DA:494,1
DA:495,2
DA:496,1
DA:497,1
DA:498,1
DA:501,1
DA:502,1
DA:503,1
DA:505,1
DA:506,1
DA:507,1
DA:508,1
DA:509,1
BRF:0
BRH:0
LF:366
LH:165
end_of_record
SF:/Users/aiq/work/wezterm-parallel/src/lib.rs
FN:90,_RNvMCsezqlaDlZ1Zy_16wezterm_parallelNtB2_19CoordinationMessage3new
FN:90,_RNvMCsbBf3qmLqCJ0_16wezterm_parallelNtB2_19CoordinationMessage3new
FN:249,_RNvNtCsbBf3qmLqCJ0_16wezterm_parallel5testss_23test_ping_pong_messages
FN:205,_RNvNtCsbBf3qmLqCJ0_16wezterm_parallel5testss_23test_task_queue_message
FN:272,_RNvNtCsbBf3qmLqCJ0_16wezterm_parallel5testss_24test_message_size_limits
FN:264,_RNvNtCsbBf3qmLqCJ0_16wezterm_parallel5testss_26test_invalid_json_handling
FN:158,_RNvNtCsbBf3qmLqCJ0_16wezterm_parallel5testss_26test_message_serialization
FN:186,_RNvNtCsbBf3qmLqCJ0_16wezterm_parallel5testss_26test_process_spawn_message
FN:230,_RNvNtCsbBf3qmLqCJ0_16wezterm_parallel5testss_26test_status_update_message
FN:167,_RNvNtCsbBf3qmLqCJ0_16wezterm_parallel5testss_29test_workspace_create_message
FNDA:2,_RNvMCsezqlaDlZ1Zy_16wezterm_parallelNtB2_19CoordinationMessage3new
FNDA:3,_RNvMCsbBf3qmLqCJ0_16wezterm_parallelNtB2_19CoordinationMessage3new
FNDA:1,_RNvNtCsbBf3qmLqCJ0_16wezterm_parallel5testss_23test_ping_pong_messages
FNDA:1,_RNvNtCsbBf3qmLqCJ0_16wezterm_parallel5testss_23test_task_queue_message
FNDA:1,_RNvNtCsbBf3qmLqCJ0_16wezterm_parallel5testss_24test_message_size_limits
FNDA:1,_RNvNtCsbBf3qmLqCJ0_16wezterm_parallel5testss_26test_invalid_json_handling
FNDA:1,_RNvNtCsbBf3qmLqCJ0_16wezterm_parallel5testss_26test_message_serialization
FNDA:1,_RNvNtCsbBf3qmLqCJ0_16wezterm_parallel5testss_26test_process_spawn_message
FNDA:1,_RNvNtCsbBf3qmLqCJ0_16wezterm_parallel5testss_26test_status_update_message
FNDA:1,_RNvNtCsbBf3qmLqCJ0_16wezterm_parallel5testss_29test_workspace_create_message
FNF:9
FNH:9
DA:90,5
DA:91,5
DA:92,5
DA:93,5
DA:94,5
DA:95,5
DA:96,5
DA:97,5
DA:158,1
DA:159,1
DA:160,1
DA:161,1
DA:163,1
DA:164,1
DA:167,1
DA:168,1
DA:169,1
DA:170,1
DA:171,1
DA:173,1
DA:174,1
DA:176,1
DA:177,1
DA:178,1
DA:179,1
DA:181,0
DA:183,1
DA:186,1
DA:187,1
DA:188,1
DA:189,1
DA:190,1
DA:192,1
DA:193,1
DA:195,1
DA:196,1
DA:197,1
DA:198,1
DA:200,0
DA:202,1
DA:205,1
DA:206,1
DA:207,1
DA:208,1
DA:209,1
DA:210,1
DA:212,1
DA:213,1
DA:215,1
DA:217,1
DA:218,1
DA:219,1
DA:221,1
DA:222,1
DA:223,1
DA:225,0
DA:227,1
DA:230,1
DA:231,1
DA:232,1
DA:233,1
DA:234,1
DA:236,1
DA:237,1
DA:239,1
DA:240,1
DA:241,1
DA:242,1
DA:244,0
DA:246,1
DA:249,1
DA:250,1
DA:251,1
DA:253,1
DA:254,1
DA:256,1
DA:257,1
DA:259,1
DA:260,1
DA:261,1
DA:264,1
DA:265,1
DA:266,1
DA:268,1
DA:269,1
DA:272,1
DA:274,1
DA:275,1
DA:277,1
DA:278,1
DA:279,1
DA:280,1
DA:282,1
DA:283,1
DA:285,1
DA:286,1
DA:287,1
DA:288,1
DA:290,0
DA:292,1
BRF:0
BRH:0
LF:100
LH:95
end_of_record
SF:/Users/aiq/work/wezterm-parallel/src/logging/enhancer.rs
FN:45,_RNvNtNtCsezqlaDlZ1Zy_16wezterm_parallel7logging8enhancer16create_log_entry
FN:16,_RNvNtNtCsezqlaDlZ1Zy_16wezterm_parallel7logging8enhancer16log_with_context
FN:80,_RNvNtNtCsezqlaDlZ1Zy_16wezterm_parallel7logging8enhancer16output_log_entry
FN:126,_RNvNtNtCsezqlaDlZ1Zy_16wezterm_parallel7logging8enhancer21format_human_readable
FN:358,_RNvNtNtCsezqlaDlZ1Zy_16wezterm_parallel7logging8enhancer23set_component_log_level
FN:342,_RNvNtNtCsezqlaDlZ1Zy_16wezterm_parallel7logging8enhancer23update_logging_strategy
FN:189,_RNvNtNtNtCsezqlaDlZ1Zy_16wezterm_parallel7logging8enhancer7process16log_process_stop
FN:203,_RNvNtNtNtCsezqlaDlZ1Zy_16wezterm_parallel7logging8enhancer7process17log_process_error
FN:175,_RNvNtNtNtCsezqlaDlZ1Zy_16wezterm_parallel7logging8enhancer7process17log_process_start
FN:215,_RNvNtNtNtCsezqlaDlZ1Zy_16wezterm_parallel7logging8enhancer7process21log_process_heartbeat
FN:282,_RNvNtNtNtCsezqlaDlZ1Zy_16wezterm_parallel7logging8enhancer6config15log_config_load
FN:308,_RNvNtNtNtCsezqlaDlZ1Zy_16wezterm_parallel7logging8enhancer6config16log_config_error
FN:294,_RNvNtNtNtCsezqlaDlZ1Zy_16wezterm_parallel7logging8enhancer6config17log_config_reload
FN:320,_RNvNtNtNtCsezqlaDlZ1Zy_16wezterm_parallel7logging8enhancer6config21log_config_validation
FN:54,_RNCNvNtNtCsezqlaDlZ1Zy_16wezterm_parallel7logging8enhancer16create_log_entry0B7_
FN:112,_RNCNvNtNtCsezqlaDlZ1Zy_16wezterm_parallel7logging8enhancer16output_log_entry0B7_
FN:97,_RNCNvNtNtCsezqlaDlZ1Zy_16wezterm_parallel7logging8enhancer16output_log_entrys0_0B7_
FN:87,_RNCNvNtNtCsezqlaDlZ1Zy_16wezterm_parallel7logging8enhancer16output_log_entrys_0B7_
FN:158,_RNCNvNtNtCsezqlaDlZ1Zy_16wezterm_parallel7logging8enhancer21format_human_readable0B7_
FN:234,_RNvNtNtNtCsezqlaDlZ1Zy_16wezterm_parallel7logging8enhancer3ipc16log_message_send
FN:250,_RNvNtNtNtCsezqlaDlZ1Zy_16wezterm_parallel7logging8enhancer3ipc19log_message_receive
FN:265,_RNvNtNtNtCsezqlaDlZ1Zy_16wezterm_parallel7logging8enhancer3ipc20log_connection_error
FN:203,_RNvNtNtNtCsbBf3qmLqCJ0_16wezterm_parallel7logging8enhancer7process17log_process_error
FN:175,_RNvNtNtNtCsbBf3qmLqCJ0_16wezterm_parallel7logging8enhancer7process17log_process_start
FN:358,_RNvNtNtCsbBf3qmLqCJ0_16wezterm_parallel7logging8enhancer23set_component_log_level
FN:342,_RNvNtNtCsbBf3qmLqCJ0_16wezterm_parallel7logging8enhancer23update_logging_strategy
FN:234,_RNvNtNtNtCsbBf3qmLqCJ0_16wezterm_parallel7logging8enhancer3ipc16log_message_send
FN:265,_RNvNtNtNtCsbBf3qmLqCJ0_16wezterm_parallel7logging8enhancer3ipc20log_connection_error
FN:294,_RNvNtNtNtCsbBf3qmLqCJ0_16wezterm_parallel7logging8enhancer6config17log_config_reload
FN:320,_RNvNtNtNtCsbBf3qmLqCJ0_16wezterm_parallel7logging8enhancer6config21log_config_validation
FN:189,_RNvNtNtNtCsbBf3qmLqCJ0_16wezterm_parallel7logging8enhancer7process16log_process_stop
FN:215,_RNvNtNtNtCsbBf3qmLqCJ0_16wezterm_parallel7logging8enhancer7process21log_process_heartbeat
FN:45,_RNvNtNtCsbBf3qmLqCJ0_16wezterm_parallel7logging8enhancer16create_log_entry
FN:16,_RNvNtNtCsbBf3qmLqCJ0_16wezterm_parallel7logging8enhancer16log_with_context
FN:80,_RNvNtNtCsbBf3qmLqCJ0_16wezterm_parallel7logging8enhancer16output_log_entry
FN:126,_RNvNtNtCsbBf3qmLqCJ0_16wezterm_parallel7logging8enhancer21format_human_readable
FN:250,_RNvNtNtNtCsbBf3qmLqCJ0_16wezterm_parallel7logging8enhancer3ipc19log_message_receive
FN:385,_RNvNtNtNtCsbBf3qmLqCJ0_16wezterm_parallel7logging8enhancer5testss_23test_log_entry_creation
FN:403,_RNvNtNtNtCsbBf3qmLqCJ0_16wezterm_parallel7logging8enhancer5testss_26test_human_readable_format
FN:54,_RNCNvNtNtCsbBf3qmLqCJ0_16wezterm_parallel7logging8enhancer16create_log_entry0B7_
FN:112,_RNCNvNtNtCsbBf3qmLqCJ0_16wezterm_parallel7logging8enhancer16output_log_entry0B7_
FN:97,_RNCNvNtNtCsbBf3qmLqCJ0_16wezterm_parallel7logging8enhancer16output_log_entrys0_0B7_
FN:87,_RNCNvNtNtCsbBf3qmLqCJ0_16wezterm_parallel7logging8enhancer16output_log_entrys_0B7_
FN:158,_RNCNvNtNtCsbBf3qmLqCJ0_16wezterm_parallel7logging8enhancer21format_human_readable0B7_
FN:282,_RNvNtNtNtCsbBf3qmLqCJ0_16wezterm_parallel7logging8enhancer6config15log_config_load
FN:308,_RNvNtNtNtCsbBf3qmLqCJ0_16wezterm_parallel7logging8enhancer6config16log_config_error
FNDA:67,_RNvNtNtCsezqlaDlZ1Zy_16wezterm_parallel7logging8enhancer16create_log_entry
FNDA:70,_RNvNtNtCsezqlaDlZ1Zy_16wezterm_parallel7logging8enhancer16log_with_context
FNDA:67,_RNvNtNtCsezqlaDlZ1Zy_16wezterm_parallel7logging8enhancer16output_log_entry
FNDA:0,_RNvNtNtCsezqlaDlZ1Zy_16wezterm_parallel7logging8enhancer21format_human_readable
FNDA:0,_RNvNtNtCsezqlaDlZ1Zy_16wezterm_parallel7logging8enhancer23set_component_log_level
FNDA:0,_RNvNtNtCsezqlaDlZ1Zy_16wezterm_parallel7logging8enhancer23update_logging_strategy
FNDA:5,_RNvNtNtNtCsezqlaDlZ1Zy_16wezterm_parallel7logging8enhancer7process16log_process_stop
FNDA:7,_RNvNtNtNtCsezqlaDlZ1Zy_16wezterm_parallel7logging8enhancer7process17log_process_error
FNDA:15,_RNvNtNtNtCsezqlaDlZ1Zy_16wezterm_parallel7logging8enhancer7process17log_process_start
FNDA:0,_RNvNtNtNtCsezqlaDlZ1Zy_16wezterm_parallel7logging8enhancer7process21log_process_heartbeat
FNDA:0,_RNvNtNtNtCsezqlaDlZ1Zy_16wezterm_parallel7logging8enhancer6config15log_config_load
FNDA:0,_RNvNtNtNtCsezqlaDlZ1Zy_16wezterm_parallel7logging8enhancer6config16log_config_error
FNDA:0,_RNvNtNtNtCsezqlaDlZ1Zy_16wezterm_parallel7logging8enhancer6config17log_config_reload
FNDA:0,_RNvNtNtNtCsezqlaDlZ1Zy_16wezterm_parallel7logging8enhancer6config21log_config_validation
FNDA:0,_RNCNvNtNtCsezqlaDlZ1Zy_16wezterm_parallel7logging8enhancer16create_log_entry0B7_
FNDA:0,_RNCNvNtNtCsezqlaDlZ1Zy_16wezterm_parallel7logging8enhancer16output_log_entry0B7_
FNDA:0,_RNCNvNtNtCsezqlaDlZ1Zy_16wezterm_parallel7logging8enhancer16output_log_entrys0_0B7_
FNDA:0,_RNCNvNtNtCsezqlaDlZ1Zy_16wezterm_parallel7logging8enhancer16output_log_entrys_0B7_
FNDA:0,_RNCNvNtNtCsezqlaDlZ1Zy_16wezterm_parallel7logging8enhancer21format_human_readable0B7_
FNDA:0,_RNvNtNtNtCsezqlaDlZ1Zy_16wezterm_parallel7logging8enhancer3ipc16log_message_send
FNDA:0,_RNvNtNtNtCsezqlaDlZ1Zy_16wezterm_parallel7logging8enhancer3ipc19log_message_receive
FNDA:0,_RNvNtNtNtCsezqlaDlZ1Zy_16wezterm_parallel7logging8enhancer3ipc20log_connection_error
FNDA:0,_RNvNtNtNtCsbBf3qmLqCJ0_16wezterm_parallel7logging8enhancer7process17log_process_error
FNDA:15,_RNvNtNtNtCsbBf3qmLqCJ0_16wezterm_parallel7logging8enhancer7process17log_process_start
FNDA:0,_RNvNtNtCsbBf3qmLqCJ0_16wezterm_parallel7logging8enhancer23set_component_log_level
FNDA:0,_RNvNtNtCsbBf3qmLqCJ0_16wezterm_parallel7logging8enhancer23update_logging_strategy
FNDA:0,_RNvNtNtNtCsbBf3qmLqCJ0_16wezterm_parallel7logging8enhancer3ipc16log_message_send
FNDA:0,_RNvNtNtNtCsbBf3qmLqCJ0_16wezterm_parallel7logging8enhancer3ipc20log_connection_error
FNDA:0,_RNvNtNtNtCsbBf3qmLqCJ0_16wezterm_parallel7logging8enhancer6config17log_config_reload
FNDA:0,_RNvNtNtNtCsbBf3qmLqCJ0_16wezterm_parallel7logging8enhancer6config21log_config_validation
FNDA:0,_RNvNtNtNtCsbBf3qmLqCJ0_16wezterm_parallel7logging8enhancer7process16log_process_stop
FNDA:0,_RNvNtNtNtCsbBf3qmLqCJ0_16wezterm_parallel7logging8enhancer7process21log_process_heartbeat
FNDA:74,_RNvNtNtCsbBf3qmLqCJ0_16wezterm_parallel7logging8enhancer16create_log_entry
FNDA:98,_RNvNtNtCsbBf3qmLqCJ0_16wezterm_parallel7logging8enhancer16log_with_context
FNDA:73,_RNvNtNtCsbBf3qmLqCJ0_16wezterm_parallel7logging8enhancer16output_log_entry
FNDA:1,_RNvNtNtCsbBf3qmLqCJ0_16wezterm_parallel7logging8enhancer21format_human_readable
FNDA:0,_RNvNtNtNtCsbBf3qmLqCJ0_16wezterm_parallel7logging8enhancer3ipc19log_message_receive
FNDA:1,_RNvNtNtNtCsbBf3qmLqCJ0_16wezterm_parallel7logging8enhancer5testss_23test_log_entry_creation
FNDA:1,_RNvNtNtNtCsbBf3qmLqCJ0_16wezterm_parallel7logging8enhancer5testss_26test_human_readable_format
FNDA:0,_RNCNvNtNtCsbBf3qmLqCJ0_16wezterm_parallel7logging8enhancer16create_log_entry0B7_
FNDA:0,_RNCNvNtNtCsbBf3qmLqCJ0_16wezterm_parallel7logging8enhancer16output_log_entry0B7_
FNDA:0,_RNCNvNtNtCsbBf3qmLqCJ0_16wezterm_parallel7logging8enhancer16output_log_entrys0_0B7_
FNDA:0,_RNCNvNtNtCsbBf3qmLqCJ0_16wezterm_parallel7logging8enhancer16output_log_entrys_0B7_
FNDA:1,_RNCNvNtNtCsbBf3qmLqCJ0_16wezterm_parallel7logging8enhancer21format_human_readable0B7_
FNDA:1,_RNvNtNtNtCsbBf3qmLqCJ0_16wezterm_parallel7logging8enhancer6config15log_config_load
FNDA:0,_RNvNtNtNtCsbBf3qmLqCJ0_16wezterm_parallel7logging8enhancer6config16log_config_error
FNF:24
FNH:11
DA:16,168
DA:17,168
DA:18,168
DA:19,168
DA:20,168
DA:21,168
DA:22,168
DA:23,168
DA:24,168
DA:27,168
DA:28,168
DA:29,28
DA:30,140
DA:33,140
DA:34,0
DA:35,140
DA:38,140
DA:41,140
DA:42,168
DA:45,141
DA:46,141
DA:47,141
DA:48,141
DA:49,141
DA:50,141
DA:51,141
DA:52,141
DA:53,141
DA:54,141
DA:55,141
DA:57,141
DA:58,141
DA:59,141
DA:62,141
DA:63,0
DA:65,141
DA:68,141
DA:69,141
DA:70,141
DA:71,141
DA:72,141
DA:73,141
DA:74,141
DA:75,141
DA:76,141
DA:77,141
DA:80,140
DA:81,420
DA:82,280
DA:84,140
DA:85,140
DA:86,140
DA:87,140
DA:89,0
DA:90,0
DA:91,0
DA:94,0
DA:95,0
DA:96,0
DA:97,0
DA:99,0
DA:100,0
DA:101,0
DA:103,0
DA:105,0
DA:106,0
DA:107,0
DA:108,0
DA:110,140
DA:111,140
DA:112,140
DA:113,140
DA:114,0
DA:115,140
DA:117,0
DA:118,0
DA:119,0
DA:120,0
DA:123,140
DA:126,1
DA:127,1
DA:128,1
DA:130,1
DA:135,1
DA:136,1
DA:137,1
DA:139,1
DA:140,0
DA:141,1
DA:143,1
DA:145,1
DA:146,1
DA:147,1
DA:149,1
DA:150,0
DA:151,1
DA:153,1
DA:154,1
DA:155,1
DA:156,1
DA:157,1
DA:158,1
DA:159,1
DA:160,1
DA:161,1
DA:162,0
DA:164,1
DA:165,0
DA:166,1
DA:168,1
DA:169,1
DA:175,30
DA:176,30
DA:177,30
DA:178,30
DA:180,30
DA:181,30
DA:182,30
DA:183,30
DA:184,30
DA:185,30
DA:187,30
DA:189,5
DA:190,5
DA:191,5
DA:192,5
DA:194,5
DA:195,0
DA:196,0
DA:197,5
DA:200,5
DA:201,5
DA:203,7
DA:204,7
DA:206,7
DA:207,7
DA:208,7
DA:209,7
DA:210,7
DA:211,7
DA:213,7
DA:215,0
DA:216,0
DA:217,0
DA:218,0
DA:220,0
DA:221,0
DA:222,0
DA:223,0
DA:224,0
DA:225,0
DA:227,0
DA:234,0
DA:235,0
DA:236,0
DA:237,0
DA:238,0
DA:239,0
DA:241,0
DA:242,0
DA:243,0
DA:244,0
DA:245,0
DA:246,0
DA:248,0
DA:250,0
DA:251,0
DA:252,0
DA:253,0
DA:254,0
DA:256,0
DA:257,0
DA:258,0
DA:259,0
DA:260,0
DA:261,0
DA:263,0
DA:265,0
DA:266,0
DA:268,0
DA:269,0
DA:270,0
DA:271,0
DA:272,0
DA:273,0
DA:275,0
DA:282,1
DA:283,1
DA:285,1
DA:286,1
DA:287,1
DA:288,1
DA:289,1
DA:290,1
DA:292,1
DA:294,0
DA:295,0
DA:296,0
DA:297,0
DA:299,0
DA:300,0
DA:301,0
DA:302,0
DA:303,0
DA:304,0
DA:306,0
DA:308,0
DA:309,0
DA:311,0
DA:312,0
DA:313,0
DA:314,0
DA:315,0
DA:316,0
DA:318,0
DA:320,0
DA:321,0
DA:322,0
DA:323,0
DA:324,0
DA:326,0
DA:327,0
DA:329,0
DA:331,0
DA:332,0
DA:334,0
DA:337,0
DA:338,0
DA:342,0
DA:343,0
DA:344,0
DA:345,0
DA:346,0
DA:347,0
DA:348,0
DA:349,0
DA:350,0
DA:351,0
DA:352,0
DA:353,0
DA:354,0
DA:355,0
DA:358,0
DA:359,0
DA:360,0
DA:361,0
DA:362,0
DA:363,0
DA:364,0
DA:365,0
DA:366,0
DA:367,0
DA:368,0
DA:369,0
DA:370,0
DA:371,0
DA:372,0
DA:373,0
DA:374,0
DA:375,0
DA:376,0
DA:377,0
DA:378,0
DA:385,1
DA:386,1
DA:387,1
DA:388,1
DA:389,1
DA:390,1
DA:391,1
DA:392,1
DA:395,1
DA:396,1
DA:397,1
DA:398,1
DA:399,1
DA:400,1
DA:403,1
DA:404,1
DA:405,1
DA:406,1
DA:408,1
DA:409,1
DA:410,1
DA:411,1
DA:412,1
DA:413,1
DA:414,1
DA:415,1
DA:416,1
DA:418,1
DA:419,1
DA:420,1
DA:421,1
DA:422,1
DA:423,1
DA:424,1
DA:425,1
BRF:0
BRH:0
LF:303
LH:158
end_of_record
SF:/Users/aiq/work/wezterm-parallel/src/logging/formatter.rs
FN:341,_RNCNCNvMs4_NtNtCsezqlaDlZ1Zy_16wezterm_parallel7logging9formatterNtB9_15CustomFormatter3news6_00Bd_
FN:313,_RNCNvMs4_NtNtCsezqlaDlZ1Zy_16wezterm_parallel7logging9formatterNtB7_15CustomFormatter3new0Bb_
FN:320,_RNCNvMs4_NtNtCsezqlaDlZ1Zy_16wezterm_parallel7logging9formatterNtB7_15CustomFormatter3news0_0Bb_
FN:324,_RNCNvMs4_NtNtCsezqlaDlZ1Zy_16wezterm_parallel7logging9formatterNtB7_15CustomFormatter3news1_0Bb_
FN:326,_RNCNvMs4_NtNtCsezqlaDlZ1Zy_16wezterm_parallel7logging9formatterNtB7_15CustomFormatter3news2_0Bb_
FN:329,_RNCNvMs4_NtNtCsezqlaDlZ1Zy_16wezterm_parallel7logging9formatterNtB7_15CustomFormatter3news3_0Bb_
FN:333,_RNCNvMs4_NtNtCsezqlaDlZ1Zy_16wezterm_parallel7logging9formatterNtB7_15CustomFormatter3news4_0Bb_
FN:337,_RNCNvMs4_NtNtCsezqlaDlZ1Zy_16wezterm_parallel7logging9formatterNtB7_15CustomFormatter3news5_0Bb_
FN:341,_RNCNvMs4_NtNtCsezqlaDlZ1Zy_16wezterm_parallel7logging9formatterNtB7_15CustomFormatter3news6_0Bb_
FN:345,_RNCNvMs4_NtNtCsezqlaDlZ1Zy_16wezterm_parallel7logging9formatterNtB7_15CustomFormatter3news7_0Bb_
FN:316,_RNCNvMs4_NtNtCsezqlaDlZ1Zy_16wezterm_parallel7logging9formatterNtB7_15CustomFormatter3news_0Bb_
FN:98,_RNCNvXs0_NtNtCsezqlaDlZ1Zy_16wezterm_parallel7logging9formatterNtB7_22HumanReadableFormatterNtB7_12LogFormatter6format0Bb_
FN:166,_RNCNvXs0_NtNtCsezqlaDlZ1Zy_16wezterm_parallel7logging9formatterNtB7_22HumanReadableFormatterNtB7_12LogFormatter6formats0_0Bb_
FN:99,_RNCNvXs0_NtNtCsezqlaDlZ1Zy_16wezterm_parallel7logging9formatterNtB7_22HumanReadableFormatterNtB7_12LogFormatter6formats_0Bb_
FN:247,_RNCNvXs2_NtNtCsezqlaDlZ1Zy_16wezterm_parallel7logging9formatterNtB7_13JsonFormatterNtB7_12LogFormatter6format0Bb_
FN:249,_RNCNvXs2_NtNtCsezqlaDlZ1Zy_16wezterm_parallel7logging9formatterNtB7_13JsonFormatterNtB7_12LogFormatter6formats_0Bb_
FN:192,_RNvMs1_NtNtCsezqlaDlZ1Zy_16wezterm_parallel7logging9formatterNtB5_13JsonFormatter3new
FN:196,_RNvMs1_NtNtCsezqlaDlZ1Zy_16wezterm_parallel7logging9formatterNtB5_13JsonFormatter6pretty
FN:203,_RNvMs1_NtNtCsezqlaDlZ1Zy_16wezterm_parallel7logging9formatterNtB5_13JsonFormatter7compact
FN:309,_RNvMs4_NtNtCsezqlaDlZ1Zy_16wezterm_parallel7logging9formatterNtB5_15CustomFormatter3new
FN:355,_RNvMs4_NtNtCsezqlaDlZ1Zy_16wezterm_parallel7logging9formatterNtB5_15CustomFormatter6simple
FN:359,_RNvMs4_NtNtCsezqlaDlZ1Zy_16wezterm_parallel7logging9formatterNtB5_15CustomFormatter8detailed
FN:421,_RNvMs6_NtNtCsezqlaDlZ1Zy_16wezterm_parallel7logging9formatterNtB5_13FormatterType16from_environment
FN:411,_RNvMs6_NtNtCsezqlaDlZ1Zy_16wezterm_parallel7logging9formatterNtB5_13FormatterType6format
FN:80,_RNvMs_NtNtCsezqlaDlZ1Zy_16wezterm_parallel7logging9formatterNtB4_22HumanReadableFormatter11reset_color
FN:66,_RNvMs_NtNtCsezqlaDlZ1Zy_16wezterm_parallel7logging9formatterNtB4_22HumanReadableFormatter15get_level_color
FN:40,_RNvMs_NtNtCsezqlaDlZ1Zy_16wezterm_parallel7logging9formatterNtB4_22HumanReadableFormatter3new
FN:44,_RNvMs_NtNtCsezqlaDlZ1Zy_16wezterm_parallel7logging9formatterNtB4_22HumanReadableFormatter7compact
FN:55,_RNvMs_NtNtCsezqlaDlZ1Zy_16wezterm_parallel7logging9formatterNtB4_22HumanReadableFormatter7verbose
FN:394,_RNvNtNtCsezqlaDlZ1Zy_16wezterm_parallel7logging9formatter15quote_if_needed
FN:384,_RNvNtNtCsezqlaDlZ1Zy_16wezterm_parallel7logging9formatter21format_metadata_value
FN:27,_RNvXNtNtCsezqlaDlZ1Zy_16wezterm_parallel7logging9formatterNtB2_22HumanReadableFormatterNtNtCsd2KPTObkMr_4core7default7Default7default
FN:90,_RNvXs0_NtNtCsezqlaDlZ1Zy_16wezterm_parallel7logging9formatterNtB5_22HumanReadableFormatterNtB5_12LogFormatter6format
FN:212,_RNvXs2_NtNtCsezqlaDlZ1Zy_16wezterm_parallel7logging9formatterNtB5_13JsonFormatterNtB5_12LogFormatter6format
FN:258,_RNvXs3_NtNtCsezqlaDlZ1Zy_16wezterm_parallel7logging9formatterNtB5_15LogFmtFormatterNtB5_12LogFormatter6format
FN:367,_RNvXs5_NtNtCsezqlaDlZ1Zy_16wezterm_parallel7logging9formatterNtB5_15CustomFormatterNtB5_12LogFormatter6format
FN:196,_RNvMs1_NtNtCsbBf3qmLqCJ0_16wezterm_parallel7logging9formatterNtB5_13JsonFormatter6pretty
FN:203,_RNvMs1_NtNtCsbBf3qmLqCJ0_16wezterm_parallel7logging9formatterNtB5_13JsonFormatter7compact
FN:355,_RNvMs4_NtNtCsbBf3qmLqCJ0_16wezterm_parallel7logging9formatterNtB5_15CustomFormatter6simple
FN:359,_RNvMs4_NtNtCsbBf3qmLqCJ0_16wezterm_parallel7logging9formatterNtB5_15CustomFormatter8detailed
FN:421,_RNvMs6_NtNtCsbBf3qmLqCJ0_16wezterm_parallel7logging9formatterNtB5_13FormatterType16from_environment
FN:411,_RNvMs6_NtNtCsbBf3qmLqCJ0_16wezterm_parallel7logging9formatterNtB5_13FormatterType6format
FN:44,_RNvMs_NtNtCsbBf3qmLqCJ0_16wezterm_parallel7logging9formatterNtB4_22HumanReadableFormatter7compact
FN:55,_RNvMs_NtNtCsbBf3qmLqCJ0_16wezterm_parallel7logging9formatterNtB4_22HumanReadableFormatter7verbose
FN:192,_RNvMs1_NtNtCsbBf3qmLqCJ0_16wezterm_parallel7logging9formatterNtB5_13JsonFormatter3new
FN:309,_RNvMs4_NtNtCsbBf3qmLqCJ0_16wezterm_parallel7logging9formatterNtB5_15CustomFormatter3new
FN:80,_RNvMs_NtNtCsbBf3qmLqCJ0_16wezterm_parallel7logging9formatterNtB4_22HumanReadableFormatter11reset_color
FN:66,_RNvMs_NtNtCsbBf3qmLqCJ0_16wezterm_parallel7logging9formatterNtB4_22HumanReadableFormatter15get_level_color
FN:40,_RNvMs_NtNtCsbBf3qmLqCJ0_16wezterm_parallel7logging9formatterNtB4_22HumanReadableFormatter3new
FN:394,_RNvNtNtCsbBf3qmLqCJ0_16wezterm_parallel7logging9formatter15quote_if_needed
FN:384,_RNvNtNtCsbBf3qmLqCJ0_16wezterm_parallel7logging9formatter21format_metadata_value
FN:27,_RNvXNtNtCsbBf3qmLqCJ0_16wezterm_parallel7logging9formatterNtB2_22HumanReadableFormatterNtNtCsd2KPTObkMr_4core7default7Default7default
FN:90,_RNvXs0_NtNtCsbBf3qmLqCJ0_16wezterm_parallel7logging9formatterNtB5_22HumanReadableFormatterNtB5_12LogFormatter6format
FN:212,_RNvXs2_NtNtCsbBf3qmLqCJ0_16wezterm_parallel7logging9formatterNtB5_13JsonFormatterNtB5_12LogFormatter6format
FN:258,_RNvXs3_NtNtCsbBf3qmLqCJ0_16wezterm_parallel7logging9formatterNtB5_15LogFmtFormatterNtB5_12LogFormatter6format
FN:367,_RNvXs5_NtNtCsbBf3qmLqCJ0_16wezterm_parallel7logging9formatterNtB5_15CustomFormatterNtB5_12LogFormatter6format
FN:341,_RNCNCNvMs4_NtNtCsbBf3qmLqCJ0_16wezterm_parallel7logging9formatterNtB9_15CustomFormatter3news6_00Bd_
FN:313,_RNCNvMs4_NtNtCsbBf3qmLqCJ0_16wezterm_parallel7logging9formatterNtB7_15CustomFormatter3new0Bb_
FN:320,_RNCNvMs4_NtNtCsbBf3qmLqCJ0_16wezterm_parallel7logging9formatterNtB7_15CustomFormatter3news0_0Bb_
FN:324,_RNCNvMs4_NtNtCsbBf3qmLqCJ0_16wezterm_parallel7logging9formatterNtB7_15CustomFormatter3news1_0Bb_
FN:326,_RNCNvMs4_NtNtCsbBf3qmLqCJ0_16wezterm_parallel7logging9formatterNtB7_15CustomFormatter3news2_0Bb_
FN:329,_RNCNvMs4_NtNtCsbBf3qmLqCJ0_16wezterm_parallel7logging9formatterNtB7_15CustomFormatter3news3_0Bb_
FN:333,_RNCNvMs4_NtNtCsbBf3qmLqCJ0_16wezterm_parallel7logging9formatterNtB7_15CustomFormatter3news4_0Bb_
FN:337,_RNCNvMs4_NtNtCsbBf3qmLqCJ0_16wezterm_parallel7logging9formatterNtB7_15CustomFormatter3news5_0Bb_
FN:341,_RNCNvMs4_NtNtCsbBf3qmLqCJ0_16wezterm_parallel7logging9formatterNtB7_15CustomFormatter3news6_0Bb_
FN:345,_RNCNvMs4_NtNtCsbBf3qmLqCJ0_16wezterm_parallel7logging9formatterNtB7_15CustomFormatter3news7_0Bb_
FN:316,_RNCNvMs4_NtNtCsbBf3qmLqCJ0_16wezterm_parallel7logging9formatterNtB7_15CustomFormatter3news_0Bb_
FN:98,_RNCNvXs0_NtNtCsbBf3qmLqCJ0_16wezterm_parallel7logging9formatterNtB7_22HumanReadableFormatterNtB7_12LogFormatter6format0Bb_
FN:166,_RNCNvXs0_NtNtCsbBf3qmLqCJ0_16wezterm_parallel7logging9formatterNtB7_22HumanReadableFormatterNtB7_12LogFormatter6formats0_0Bb_
FN:99,_RNCNvXs0_NtNtCsbBf3qmLqCJ0_16wezterm_parallel7logging9formatterNtB7_22HumanReadableFormatterNtB7_12LogFormatter6formats_0Bb_
FN:247,_RNCNvXs2_NtNtCsbBf3qmLqCJ0_16wezterm_parallel7logging9formatterNtB7_13JsonFormatterNtB7_12LogFormatter6format0Bb_
FN:249,_RNCNvXs2_NtNtCsbBf3qmLqCJ0_16wezterm_parallel7logging9formatterNtB7_13JsonFormatterNtB7_12LogFormatter6formats_0Bb_
FN:438,_RNvNtNtNtCsbBf3qmLqCJ0_16wezterm_parallel7logging9formatter5tests17create_test_entry
FN:471,_RNvNtNtNtCsbBf3qmLqCJ0_16wezterm_parallel7logging9formatter5testss_19test_json_formatter
FN:499,_RNvNtNtNtCsbBf3qmLqCJ0_16wezterm_parallel7logging9formatter5testss_21test_custom_formatter
FN:485,_RNvNtNtNtCsbBf3qmLqCJ0_16wezterm_parallel7logging9formatter5testss_21test_logfmt_formatter
FN:457,_RNvNtNtNtCsbBf3qmLqCJ0_16wezterm_parallel7logging9formatter5testss_29test_human_readable_formatter
FNDA:0,_RNCNCNvMs4_NtNtCsezqlaDlZ1Zy_16wezterm_parallel7logging9formatterNtB9_15CustomFormatter3news6_00Bd_
FNDA:0,_RNCNvMs4_NtNtCsezqlaDlZ1Zy_16wezterm_parallel7logging9formatterNtB7_15CustomFormatter3new0Bb_
FNDA:0,_RNCNvMs4_NtNtCsezqlaDlZ1Zy_16wezterm_parallel7logging9formatterNtB7_15CustomFormatter3news0_0Bb_
FNDA:0,_RNCNvMs4_NtNtCsezqlaDlZ1Zy_16wezterm_parallel7logging9formatterNtB7_15CustomFormatter3news1_0Bb_
FNDA:0,_RNCNvMs4_NtNtCsezqlaDlZ1Zy_16wezterm_parallel7logging9formatterNtB7_15CustomFormatter3news2_0Bb_
FNDA:0,_RNCNvMs4_NtNtCsezqlaDlZ1Zy_16wezterm_parallel7logging9formatterNtB7_15CustomFormatter3news3_0Bb_
FNDA:0,_RNCNvMs4_NtNtCsezqlaDlZ1Zy_16wezterm_parallel7logging9formatterNtB7_15CustomFormatter3news4_0Bb_
FNDA:0,_RNCNvMs4_NtNtCsezqlaDlZ1Zy_16wezterm_parallel7logging9formatterNtB7_15CustomFormatter3news5_0Bb_
FNDA:0,_RNCNvMs4_NtNtCsezqlaDlZ1Zy_16wezterm_parallel7logging9formatterNtB7_15CustomFormatter3news6_0Bb_
FNDA:0,_RNCNvMs4_NtNtCsezqlaDlZ1Zy_16wezterm_parallel7logging9formatterNtB7_15CustomFormatter3news7_0Bb_
FNDA:0,_RNCNvMs4_NtNtCsezqlaDlZ1Zy_16wezterm_parallel7logging9formatterNtB7_15CustomFormatter3news_0Bb_
FNDA:0,_RNCNvXs0_NtNtCsezqlaDlZ1Zy_16wezterm_parallel7logging9formatterNtB7_22HumanReadableFormatterNtB7_12LogFormatter6format0Bb_
FNDA:0,_RNCNvXs0_NtNtCsezqlaDlZ1Zy_16wezterm_parallel7logging9formatterNtB7_22HumanReadableFormatterNtB7_12LogFormatter6formats0_0Bb_
FNDA:0,_RNCNvXs0_NtNtCsezqlaDlZ1Zy_16wezterm_parallel7logging9formatterNtB7_22HumanReadableFormatterNtB7_12LogFormatter6formats_0Bb_
FNDA:0,_RNCNvXs2_NtNtCsezqlaDlZ1Zy_16wezterm_parallel7logging9formatterNtB7_13JsonFormatterNtB7_12LogFormatter6format0Bb_
FNDA:0,_RNCNvXs2_NtNtCsezqlaDlZ1Zy_16wezterm_parallel7logging9formatterNtB7_13JsonFormatterNtB7_12LogFormatter6formats_0Bb_
FNDA:0,_RNvMs1_NtNtCsezqlaDlZ1Zy_16wezterm_parallel7logging9formatterNtB5_13JsonFormatter3new
FNDA:0,_RNvMs1_NtNtCsezqlaDlZ1Zy_16wezterm_parallel7logging9formatterNtB5_13JsonFormatter6pretty
FNDA:0,_RNvMs1_NtNtCsezqlaDlZ1Zy_16wezterm_parallel7logging9formatterNtB5_13JsonFormatter7compact
FNDA:0,_RNvMs4_NtNtCsezqlaDlZ1Zy_16wezterm_parallel7logging9formatterNtB5_15CustomFormatter3new
FNDA:0,_RNvMs4_NtNtCsezqlaDlZ1Zy_16wezterm_parallel7logging9formatterNtB5_15CustomFormatter6simple
FNDA:0,_RNvMs4_NtNtCsezqlaDlZ1Zy_16wezterm_parallel7logging9formatterNtB5_15CustomFormatter8detailed
FNDA:0,_RNvMs6_NtNtCsezqlaDlZ1Zy_16wezterm_parallel7logging9formatterNtB5_13FormatterType16from_environment
FNDA:0,_RNvMs6_NtNtCsezqlaDlZ1Zy_16wezterm_parallel7logging9formatterNtB5_13FormatterType6format
FNDA:0,_RNvMs_NtNtCsezqlaDlZ1Zy_16wezterm_parallel7logging9formatterNtB4_22HumanReadableFormatter11reset_color
FNDA:0,_RNvMs_NtNtCsezqlaDlZ1Zy_16wezterm_parallel7logging9formatterNtB4_22HumanReadableFormatter15get_level_color
FNDA:0,_RNvMs_NtNtCsezqlaDlZ1Zy_16wezterm_parallel7logging9formatterNtB4_22HumanReadableFormatter3new
FNDA:0,_RNvMs_NtNtCsezqlaDlZ1Zy_16wezterm_parallel7logging9formatterNtB4_22HumanReadableFormatter7compact
FNDA:0,_RNvMs_NtNtCsezqlaDlZ1Zy_16wezterm_parallel7logging9formatterNtB4_22HumanReadableFormatter7verbose
FNDA:0,_RNvNtNtCsezqlaDlZ1Zy_16wezterm_parallel7logging9formatter15quote_if_needed
FNDA:0,_RNvNtNtCsezqlaDlZ1Zy_16wezterm_parallel7logging9formatter21format_metadata_value
FNDA:0,_RNvXNtNtCsezqlaDlZ1Zy_16wezterm_parallel7logging9formatterNtB2_22HumanReadableFormatterNtNtCsd2KPTObkMr_4core7default7Default7default
FNDA:0,_RNvXs0_NtNtCsezqlaDlZ1Zy_16wezterm_parallel7logging9formatterNtB5_22HumanReadableFormatterNtB5_12LogFormatter6format
FNDA:0,_RNvXs2_NtNtCsezqlaDlZ1Zy_16wezterm_parallel7logging9formatterNtB5_13JsonFormatterNtB5_12LogFormatter6format
FNDA:0,_RNvXs3_NtNtCsezqlaDlZ1Zy_16wezterm_parallel7logging9formatterNtB5_15LogFmtFormatterNtB5_12LogFormatter6format
FNDA:0,_RNvXs5_NtNtCsezqlaDlZ1Zy_16wezterm_parallel7logging9formatterNtB5_15CustomFormatterNtB5_12LogFormatter6format
FNDA:0,_RNvMs1_NtNtCsbBf3qmLqCJ0_16wezterm_parallel7logging9formatterNtB5_13JsonFormatter6pretty
FNDA:0,_RNvMs1_NtNtCsbBf3qmLqCJ0_16wezterm_parallel7logging9formatterNtB5_13JsonFormatter7compact
FNDA:0,_RNvMs4_NtNtCsbBf3qmLqCJ0_16wezterm_parallel7logging9formatterNtB5_15CustomFormatter6simple
FNDA:0,_RNvMs4_NtNtCsbBf3qmLqCJ0_16wezterm_parallel7logging9formatterNtB5_15CustomFormatter8detailed
FNDA:0,_RNvMs6_NtNtCsbBf3qmLqCJ0_16wezterm_parallel7logging9formatterNtB5_13FormatterType16from_environment
FNDA:0,_RNvMs6_NtNtCsbBf3qmLqCJ0_16wezterm_parallel7logging9formatterNtB5_13FormatterType6format
FNDA:0,_RNvMs_NtNtCsbBf3qmLqCJ0_16wezterm_parallel7logging9formatterNtB4_22HumanReadableFormatter7compact
FNDA:0,_RNvMs_NtNtCsbBf3qmLqCJ0_16wezterm_parallel7logging9formatterNtB4_22HumanReadableFormatter7verbose
FNDA:1,_RNvMs1_NtNtCsbBf3qmLqCJ0_16wezterm_parallel7logging9formatterNtB5_13JsonFormatter3new
FNDA:1,_RNvMs4_NtNtCsbBf3qmLqCJ0_16wezterm_parallel7logging9formatterNtB5_15CustomFormatter3new
FNDA:3,_RNvMs_NtNtCsbBf3qmLqCJ0_16wezterm_parallel7logging9formatterNtB4_22HumanReadableFormatter11reset_color
FNDA:3,_RNvMs_NtNtCsbBf3qmLqCJ0_16wezterm_parallel7logging9formatterNtB4_22HumanReadableFormatter15get_level_color
FNDA:1,_RNvMs_NtNtCsbBf3qmLqCJ0_16wezterm_parallel7logging9formatterNtB4_22HumanReadableFormatter3new
FNDA:7,_RNvNtNtCsbBf3qmLqCJ0_16wezterm_parallel7logging9formatter15quote_if_needed
FNDA:4,_RNvNtNtCsbBf3qmLqCJ0_16wezterm_parallel7logging9formatter21format_metadata_value
FNDA:1,_RNvXNtNtCsbBf3qmLqCJ0_16wezterm_parallel7logging9formatterNtB2_22HumanReadableFormatterNtNtCsd2KPTObkMr_4core7default7Default7default
FNDA:1,_RNvXs0_NtNtCsbBf3qmLqCJ0_16wezterm_parallel7logging9formatterNtB5_22HumanReadableFormatterNtB5_12LogFormatter6format
FNDA:1,_RNvXs2_NtNtCsbBf3qmLqCJ0_16wezterm_parallel7logging9formatterNtB5_13JsonFormatterNtB5_12LogFormatter6format
FNDA:1,_RNvXs3_NtNtCsbBf3qmLqCJ0_16wezterm_parallel7logging9formatterNtB5_15LogFmtFormatterNtB5_12LogFormatter6format
FNDA:1,_RNvXs5_NtNtCsbBf3qmLqCJ0_16wezterm_parallel7logging9formatterNtB5_15CustomFormatterNtB5_12LogFormatter6format
FNDA:0,_RNCNCNvMs4_NtNtCsbBf3qmLqCJ0_16wezterm_parallel7logging9formatterNtB9_15CustomFormatter3news6_00Bd_
FNDA:0,_RNCNvMs4_NtNtCsbBf3qmLqCJ0_16wezterm_parallel7logging9formatterNtB7_15CustomFormatter3new0Bb_
FNDA:1,_RNCNvMs4_NtNtCsbBf3qmLqCJ0_16wezterm_parallel7logging9formatterNtB7_15CustomFormatter3news0_0Bb_
FNDA:0,_RNCNvMs4_NtNtCsbBf3qmLqCJ0_16wezterm_parallel7logging9formatterNtB7_15CustomFormatter3news1_0Bb_
FNDA:1,_RNCNvMs4_NtNtCsbBf3qmLqCJ0_16wezterm_parallel7logging9formatterNtB7_15CustomFormatter3news2_0Bb_
FNDA:0,_RNCNvMs4_NtNtCsbBf3qmLqCJ0_16wezterm_parallel7logging9formatterNtB7_15CustomFormatter3news3_0Bb_
FNDA:0,_RNCNvMs4_NtNtCsbBf3qmLqCJ0_16wezterm_parallel7logging9formatterNtB7_15CustomFormatter3news4_0Bb_
FNDA:0,_RNCNvMs4_NtNtCsbBf3qmLqCJ0_16wezterm_parallel7logging9formatterNtB7_15CustomFormatter3news5_0Bb_
FNDA:0,_RNCNvMs4_NtNtCsbBf3qmLqCJ0_16wezterm_parallel7logging9formatterNtB7_15CustomFormatter3news6_0Bb_
FNDA:0,_RNCNvMs4_NtNtCsbBf3qmLqCJ0_16wezterm_parallel7logging9formatterNtB7_15CustomFormatter3news7_0Bb_
FNDA:1,_RNCNvMs4_NtNtCsbBf3qmLqCJ0_16wezterm_parallel7logging9formatterNtB7_15CustomFormatter3news_0Bb_
FNDA:1,_RNCNvXs0_NtNtCsbBf3qmLqCJ0_16wezterm_parallel7logging9formatterNtB7_22HumanReadableFormatterNtB7_12LogFormatter6format0Bb_
FNDA:2,_RNCNvXs0_NtNtCsbBf3qmLqCJ0_16wezterm_parallel7logging9formatterNtB7_22HumanReadableFormatterNtB7_12LogFormatter6formats0_0Bb_
FNDA:0,_RNCNvXs0_NtNtCsbBf3qmLqCJ0_16wezterm_parallel7logging9formatterNtB7_22HumanReadableFormatterNtB7_12LogFormatter6formats_0Bb_
FNDA:0,_RNCNvXs2_NtNtCsbBf3qmLqCJ0_16wezterm_parallel7logging9formatterNtB7_13JsonFormatterNtB7_12LogFormatter6format0Bb_
FNDA:0,_RNCNvXs2_NtNtCsbBf3qmLqCJ0_16wezterm_parallel7logging9formatterNtB7_13JsonFormatterNtB7_12LogFormatter6formats_0Bb_
FNDA:4,_RNvNtNtNtCsbBf3qmLqCJ0_16wezterm_parallel7logging9formatter5tests17create_test_entry
FNDA:1,_RNvNtNtNtCsbBf3qmLqCJ0_16wezterm_parallel7logging9formatter5testss_19test_json_formatter
FNDA:1,_RNvNtNtNtCsbBf3qmLqCJ0_16wezterm_parallel7logging9formatter5testss_21test_custom_formatter
FNDA:1,_RNvNtNtNtCsbBf3qmLqCJ0_16wezterm_parallel7logging9formatter5testss_21test_logfmt_formatter
FNDA:1,_RNvNtNtNtCsbBf3qmLqCJ0_16wezterm_parallel7logging9formatter5testss_29test_human_readable_formatter
FNF:41
FNH:22
DA:27,1
DA:28,1
DA:29,1
DA:30,1
DA:31,1
DA:32,1
DA:33,1
DA:34,1
DA:35,1
DA:36,1
DA:40,1
DA:41,1
DA:42,1
DA:44,0
DA:45,0
DA:46,0
DA:47,0
DA:48,0
DA:49,0
DA:50,0
DA:51,0
DA:52,0
DA:53,0
DA:55,0
DA:56,0
DA:57,0
DA:58,0
DA:59,0
DA:60,0
DA:61,0
DA:62,0
DA:63,0
DA:64,0
DA:66,3
DA:67,3
DA:68,0
DA:69,3
DA:71,3
DA:72,0
DA:73,0
DA:74,2
DA:75,0
DA:76,1
DA:78,3
DA:80,3
DA:81,3
DA:82,3
DA:84,0
DA:86,3
DA:90,1
DA:91,1
DA:94,1
DA:95,1
DA:96,1
DA:97,1
DA:98,1
DA:99,1
DA:100,1
DA:101,0
DA:104,1
DA:105,1
DA:106,1
DA:107,1
DA:108,1
DA:109,1
DA:110,1
DA:111,1
DA:112,1
DA:113,1
DA:116,1
DA:117,1
DA:118,1
DA:119,1
DA:123,0
DA:125,1
DA:126,0
DA:129,1
DA:130,1
DA:131,1
DA:134,1
DA:137,1
DA:138,1
DA:139,0
DA:140,1
DA:141,1
DA:143,0
DA:145,1
DA:146,1
DA:149,1
DA:151,0
DA:154,1
DA:155,1
DA:156,1
DA:157,1
DA:158,1
DA:161,1
DA:162,1
DA:163,1
DA:164,1
DA:165,1
DA:166,2
DA:167,1
DA:168,1
DA:169,1
DA:170,0
DA:173,1
DA:174,0
DA:175,0
DA:176,0
DA:177,1
DA:179,1
DA:180,1
DA:192,1
DA:193,1
DA:194,1
DA:196,0
DA:197,0
DA:198,0
DA:199,0
DA:200,0
DA:201,0
DA:203,0
DA:204,0
DA:205,0
DA:206,0
DA:207,0
DA:208,0
DA:212,1
DA:213,1
DA:214,1
DA:215,1
DA:216,1
DA:217,1
DA:218,1
DA:222,1
DA:223,1
DA:224,1
DA:226,1
DA:227,1
DA:228,1
DA:230,1
DA:231,1
DA:232,1
DA:234,1
DA:235,1
DA:236,1
DA:238,1
DA:239,1
DA:240,1
DA:242,1
DA:243,1
DA:244,1
DA:246,1
DA:247,0
DA:249,1
DA:251,1
DA:258,1
DA:259,1
DA:262,1
DA:263,1
DA:264,1
DA:265,1
DA:267,1
DA:268,1
DA:269,1
DA:271,1
DA:272,1
DA:273,1
DA:275,1
DA:277,1
DA:278,1
DA:279,1
DA:281,1
DA:282,1
DA:283,1
DA:286,3
DA:287,2
DA:288,2
DA:289,2
DA:290,2
DA:291,2
DA:292,2
DA:294,1
DA:295,1
DA:296,1
DA:298,1
DA:299,1
DA:309,1
DA:310,1
DA:313,1
DA:314,1
DA:315,1
DA:316,1
DA:318,1
DA:319,1
DA:320,1
DA:322,1
DA:323,1
DA:324,1
DA:326,1
DA:327,1
DA:328,1
DA:329,1
DA:331,1
DA:332,1
DA:333,1
DA:335,1
DA:336,1
DA:337,1
DA:339,1
DA:340,1
DA:341,1
DA:343,1
DA:344,1
DA:345,1
DA:348,1
DA:349,1
DA:350,1
DA:351,1
DA:352,1
DA:355,0
DA:356,0
DA:357,0
DA:359,0
DA:360,0
DA:361,0
DA:363,0
DA:367,1
DA:368,1
DA:370,11
DA:371,10
DA:372,10
DA:373,3
DA:374,3
DA:375,7
DA:378,1
DA:379,1
DA:384,4
DA:385,4
DA:386,2
DA:387,2
DA:388,0
DA:389,0
DA:390,0
DA:392,4
DA:394,7
DA:395,7
DA:396,2
DA:398,5
DA:400,7
DA:411,0
DA:412,0
DA:413,0
DA:414,0
DA:415,0
DA:416,0
DA:418,0
DA:421,0
DA:422,0
DA:423,0
DA:424,0
DA:425,0
DA:426,0
DA:427,0
DA:428,0
DA:430,0
DA:438,4
DA:439,4
DA:440,4
DA:441,4
DA:442,4
DA:443,4
DA:445,4
DA:446,4
DA:447,4
DA:448,4
DA:449,4
DA:450,4
DA:451,4
DA:452,4
DA:453,4
DA:454,4
DA:457,1
DA:458,1
DA:459,1
DA:460,1
DA:462,1
DA:463,1
DA:464,1
DA:465,1
DA:466,1
DA:467,1
DA:468,1
DA:471,1
DA:472,1
DA:473,1
DA:474,1
DA:476,1
DA:477,1
DA:478,1
DA:479,1
DA:480,1
DA:481,1
DA:482,1
DA:485,1
DA:486,1
DA:487,1
DA:488,1
DA:490,1
DA:491,1
DA:492,1
DA:493,1
DA:494,1
DA:495,1
DA:496,1
DA:499,1
DA:500,1
DA:501,1
DA:502,1
DA:504,1
DA:505,1
BRF:0
BRH:0
LF:337
LH:252
end_of_record
SF:/Users/aiq/work/wezterm-parallel/src/logging/mod.rs
FN:75,_RNvMNtCsezqlaDlZ1Zy_16wezterm_parallel7loggingNtB2_15UnifiedLogLevel11from_string
FN:64,_RNvMNtCsezqlaDlZ1Zy_16wezterm_parallel7loggingNtB2_15UnifiedLogLevel6as_str
FN:113,_RNvMs_NtCsezqlaDlZ1Zy_16wezterm_parallel7loggingNtB4_10LogContext13with_metadata
FN:101,_RNvMs_NtCsezqlaDlZ1Zy_16wezterm_parallel7loggingNtB4_10LogContext14with_entity_id
FN:107,_RNvMs_NtCsezqlaDlZ1Zy_16wezterm_parallel7loggingNtB4_10LogContext15with_session_id
FN:89,_RNvMs_NtCsezqlaDlZ1Zy_16wezterm_parallel7loggingNtB4_10LogContext3new
FN:276,_RNvNtNtCsbBf3qmLqCJ0_16wezterm_parallel7logging5testss_25test_log_context_creation
FN:266,_RNvNtNtCsbBf3qmLqCJ0_16wezterm_parallel7logging5testss_25test_log_level_conversion
FN:258,_RNvNtNtCsbBf3qmLqCJ0_16wezterm_parallel7logging5testss_31test_unified_log_level_ordering
FN:75,_RNvMNtCsbBf3qmLqCJ0_16wezterm_parallel7loggingNtB2_15UnifiedLogLevel11from_string
FN:64,_RNvMNtCsbBf3qmLqCJ0_16wezterm_parallel7loggingNtB2_15UnifiedLogLevel6as_str
FN:113,_RNvMs_NtCsbBf3qmLqCJ0_16wezterm_parallel7loggingNtB4_10LogContext13with_metadata
FN:101,_RNvMs_NtCsbBf3qmLqCJ0_16wezterm_parallel7loggingNtB4_10LogContext14with_entity_id
FN:107,_RNvMs_NtCsbBf3qmLqCJ0_16wezterm_parallel7loggingNtB4_10LogContext15with_session_id
FN:89,_RNvMs_NtCsbBf3qmLqCJ0_16wezterm_parallel7loggingNtB4_10LogContext3new
FNDA:0,_RNvMNtCsezqlaDlZ1Zy_16wezterm_parallel7loggingNtB2_15UnifiedLogLevel11from_string
FNDA:0,_RNvMNtCsezqlaDlZ1Zy_16wezterm_parallel7loggingNtB2_15UnifiedLogLevel6as_str
FNDA:60,_RNvMs_NtCsezqlaDlZ1Zy_16wezterm_parallel7loggingNtB4_10LogContext13with_metadata
FNDA:70,_RNvMs_NtCsezqlaDlZ1Zy_16wezterm_parallel7loggingNtB4_10LogContext14with_entity_id
FNDA:0,_RNvMs_NtCsezqlaDlZ1Zy_16wezterm_parallel7loggingNtB4_10LogContext15with_session_id
FNDA:70,_RNvMs_NtCsezqlaDlZ1Zy_16wezterm_parallel7loggingNtB4_10LogContext3new
FNDA:1,_RNvNtNtCsbBf3qmLqCJ0_16wezterm_parallel7logging5testss_25test_log_context_creation
FNDA:1,_RNvNtNtCsbBf3qmLqCJ0_16wezterm_parallel7logging5testss_25test_log_level_conversion
FNDA:1,_RNvNtNtCsbBf3qmLqCJ0_16wezterm_parallel7logging5testss_31test_unified_log_level_ordering
FNDA:2,_RNvMNtCsbBf3qmLqCJ0_16wezterm_parallel7loggingNtB2_15UnifiedLogLevel11from_string
FNDA:6,_RNvMNtCsbBf3qmLqCJ0_16wezterm_parallel7loggingNtB2_15UnifiedLogLevel6as_str
FNDA:125,_RNvMs_NtCsbBf3qmLqCJ0_16wezterm_parallel7loggingNtB4_10LogContext13with_metadata
FNDA:66,_RNvMs_NtCsbBf3qmLqCJ0_16wezterm_parallel7loggingNtB4_10LogContext14with_entity_id
FNDA:5,_RNvMs_NtCsbBf3qmLqCJ0_16wezterm_parallel7loggingNtB4_10LogContext15with_session_id
FNDA:107,_RNvMs_NtCsbBf3qmLqCJ0_16wezterm_parallel7loggingNtB4_10LogContext3new
FNF:9
FNH:9
DA:64,6
DA:65,6
DA:66,0
DA:67,0
DA:68,6
DA:69,0
DA:70,0
DA:72,6
DA:75,2
DA:76,2
DA:77,2
DA:78,2
DA:79,1
DA:80,1
DA:81,1
DA:82,1
DA:84,2
DA:89,177
DA:90,177
DA:91,177
DA:92,177
DA:93,177
DA:94,177
DA:95,177
DA:96,177
DA:97,177
DA:98,177
DA:101,136
DA:102,136
DA:103,136
DA:104,136
DA:107,5
DA:108,5
DA:109,5
DA:110,5
DA:113,185
DA:114,185
DA:115,185
DA:116,185
DA:258,1
DA:259,1
DA:260,1
DA:261,1
DA:262,1
DA:263,1
DA:266,1
DA:267,1
DA:268,1
DA:269,1
DA:272,1
DA:273,1
DA:276,1
DA:277,1
DA:278,1
DA:279,1
DA:280,1
DA:282,1
DA:283,1
DA:284,1
DA:285,1
DA:286,1
DA:287,1
BRF:0
BRH:0
LF:62
LH:58
end_of_record
SF:/Users/aiq/work/wezterm-parallel/src/logging/strategy.rs
FN:289,_RNvMs0_NtNtCsezqlaDlZ1Zy_16wezterm_parallel7logging8strategyNtB5_15StrategyManager12get_strategy
FN:293,_RNvMs0_NtNtCsezqlaDlZ1Zy_16wezterm_parallel7logging8strategyNtB5_15StrategyManager15update_strategy
FN:298,_RNvMs0_NtNtCsezqlaDlZ1Zy_16wezterm_parallel7logging8strategyNtB5_15StrategyManager16from_environment
FN:283,_RNvMs0_NtNtCsezqlaDlZ1Zy_16wezterm_parallel7logging8strategyNtB5_15StrategyManager3new
FN:197,_RNvMs_NtNtCsezqlaDlZ1Zy_16wezterm_parallel7logging8strategyNtB4_15LoggingStrategy10production
FN:159,_RNvMs_NtNtCsezqlaDlZ1Zy_16wezterm_parallel7logging8strategyNtB4_15LoggingStrategy11development
FN:128,_RNvMs_NtNtCsezqlaDlZ1Zy_16wezterm_parallel7logging8strategyNtB4_15LoggingStrategy13get_log_level
FN:136,_RNvMs_NtNtCsezqlaDlZ1Zy_16wezterm_parallel7logging8strategyNtB4_15LoggingStrategy17should_rate_limit
FN:153,_RNvMs_NtNtCsezqlaDlZ1Zy_16wezterm_parallel7logging8strategyNtB4_15LoggingStrategy26should_measure_performance
FN:230,_RNvMs_NtNtCsezqlaDlZ1Zy_16wezterm_parallel7logging8strategyNtB4_15LoggingStrategy5debug
FN:62,_RNvXNtNtCsezqlaDlZ1Zy_16wezterm_parallel7logging8strategyNtB2_15LoggingStrategyNtNtCsd2KPTObkMr_4core7default7Default7default
FN:293,_RNvMs0_NtNtCsbBf3qmLqCJ0_16wezterm_parallel7logging8strategyNtB5_15StrategyManager15update_strategy
FN:289,_RNvMs0_NtNtCsbBf3qmLqCJ0_16wezterm_parallel7logging8strategyNtB5_15StrategyManager12get_strategy
FN:298,_RNvMs0_NtNtCsbBf3qmLqCJ0_16wezterm_parallel7logging8strategyNtB5_15StrategyManager16from_environment
FN:283,_RNvMs0_NtNtCsbBf3qmLqCJ0_16wezterm_parallel7logging8strategyNtB5_15StrategyManager3new
FN:197,_RNvMs_NtNtCsbBf3qmLqCJ0_16wezterm_parallel7logging8strategyNtB4_15LoggingStrategy10production
FN:159,_RNvMs_NtNtCsbBf3qmLqCJ0_16wezterm_parallel7logging8strategyNtB4_15LoggingStrategy11development
FN:128,_RNvMs_NtNtCsbBf3qmLqCJ0_16wezterm_parallel7logging8strategyNtB4_15LoggingStrategy13get_log_level
FN:136,_RNvMs_NtNtCsbBf3qmLqCJ0_16wezterm_parallel7logging8strategyNtB4_15LoggingStrategy17should_rate_limit
FN:153,_RNvMs_NtNtCsbBf3qmLqCJ0_16wezterm_parallel7logging8strategyNtB4_15LoggingStrategy26should_measure_performance
FN:230,_RNvMs_NtNtCsbBf3qmLqCJ0_16wezterm_parallel7logging8strategyNtB4_15LoggingStrategy5debug
FN:62,_RNvXNtNtCsbBf3qmLqCJ0_16wezterm_parallel7logging8strategyNtB2_15LoggingStrategyNtNtCsd2KPTObkMr_4core7default7Default7default
FN:315,_RNvNtNtNtCsbBf3qmLqCJ0_16wezterm_parallel7logging8strategy5testss_21test_default_strategy
FN:330,_RNvNtNtNtCsbBf3qmLqCJ0_16wezterm_parallel7logging8strategy5testss_24test_production_strategy
FN:323,_RNvNtNtNtCsbBf3qmLqCJ0_16wezterm_parallel7logging8strategy5testss_25test_development_strategy
FN:337,_RNvNtNtNtCsbBf3qmLqCJ0_16wezterm_parallel7logging8strategy5testss_28test_performance_measurement
FNDA:70,_RNvMs0_NtNtCsezqlaDlZ1Zy_16wezterm_parallel7logging8strategyNtB5_15StrategyManager12get_strategy
FNDA:0,_RNvMs0_NtNtCsezqlaDlZ1Zy_16wezterm_parallel7logging8strategyNtB5_15StrategyManager15update_strategy
FNDA:3,_RNvMs0_NtNtCsezqlaDlZ1Zy_16wezterm_parallel7logging8strategyNtB5_15StrategyManager16from_environment
FNDA:3,_RNvMs0_NtNtCsezqlaDlZ1Zy_16wezterm_parallel7logging8strategyNtB5_15StrategyManager3new
FNDA:0,_RNvMs_NtNtCsezqlaDlZ1Zy_16wezterm_parallel7logging8strategyNtB4_15LoggingStrategy10production
FNDA:0,_RNvMs_NtNtCsezqlaDlZ1Zy_16wezterm_parallel7logging8strategyNtB4_15LoggingStrategy11development
FNDA:70,_RNvMs_NtNtCsezqlaDlZ1Zy_16wezterm_parallel7logging8strategyNtB4_15LoggingStrategy13get_log_level
FNDA:67,_RNvMs_NtNtCsezqlaDlZ1Zy_16wezterm_parallel7logging8strategyNtB4_15LoggingStrategy17should_rate_limit
FNDA:0,_RNvMs_NtNtCsezqlaDlZ1Zy_16wezterm_parallel7logging8strategyNtB4_15LoggingStrategy26should_measure_performance
FNDA:0,_RNvMs_NtNtCsezqlaDlZ1Zy_16wezterm_parallel7logging8strategyNtB4_15LoggingStrategy5debug
FNDA:3,_RNvXNtNtCsezqlaDlZ1Zy_16wezterm_parallel7logging8strategyNtB2_15LoggingStrategyNtNtCsd2KPTObkMr_4core7default7Default7default
FNDA:0,_RNvMs0_NtNtCsbBf3qmLqCJ0_16wezterm_parallel7logging8strategyNtB5_15StrategyManager15update_strategy
FNDA:98,_RNvMs0_NtNtCsbBf3qmLqCJ0_16wezterm_parallel7logging8strategyNtB5_15StrategyManager12get_strategy
FNDA:1,_RNvMs0_NtNtCsbBf3qmLqCJ0_16wezterm_parallel7logging8strategyNtB5_15StrategyManager16from_environment
FNDA:1,_RNvMs0_NtNtCsbBf3qmLqCJ0_16wezterm_parallel7logging8strategyNtB5_15StrategyManager3new
FNDA:1,_RNvMs_NtNtCsbBf3qmLqCJ0_16wezterm_parallel7logging8strategyNtB4_15LoggingStrategy10production
FNDA:1,_RNvMs_NtNtCsbBf3qmLqCJ0_16wezterm_parallel7logging8strategyNtB4_15LoggingStrategy11development
FNDA:102,_RNvMs_NtNtCsbBf3qmLqCJ0_16wezterm_parallel7logging8strategyNtB4_15LoggingStrategy13get_log_level
FNDA:73,_RNvMs_NtNtCsbBf3qmLqCJ0_16wezterm_parallel7logging8strategyNtB4_15LoggingStrategy17should_rate_limit
FNDA:2,_RNvMs_NtNtCsbBf3qmLqCJ0_16wezterm_parallel7logging8strategyNtB4_15LoggingStrategy26should_measure_performance
FNDA:0,_RNvMs_NtNtCsbBf3qmLqCJ0_16wezterm_parallel7logging8strategyNtB4_15LoggingStrategy5debug
FNDA:5,_RNvXNtNtCsbBf3qmLqCJ0_16wezterm_parallel7logging8strategyNtB2_15LoggingStrategyNtNtCsd2KPTObkMr_4core7default7Default7default
FNDA:1,_RNvNtNtNtCsbBf3qmLqCJ0_16wezterm_parallel7logging8strategy5testss_21test_default_strategy
FNDA:1,_RNvNtNtNtCsbBf3qmLqCJ0_16wezterm_parallel7logging8strategy5testss_24test_production_strategy
FNDA:1,_RNvNtNtNtCsbBf3qmLqCJ0_16wezterm_parallel7logging8strategy5testss_25test_development_strategy
FNDA:1,_RNvNtNtNtCsbBf3qmLqCJ0_16wezterm_parallel7logging8strategy5testss_28test_performance_measurement
FNF:15
FNH:13
DA:62,8
DA:63,8
DA:66,8
DA:67,8
DA:68,8
DA:69,8
DA:70,8
DA:71,8
DA:72,8
DA:73,8
DA:74,8
DA:75,8
DA:77,8
DA:80,8
DA:81,8
DA:82,8
DA:83,8
DA:84,8
DA:85,8
DA:86,8
DA:87,8
DA:90,8
DA:91,8
DA:92,8
DA:93,8
DA:94,8
DA:95,8
DA:96,8
DA:97,8
DA:100,8
DA:101,8
DA:102,8
DA:103,8
DA:104,8
DA:105,8
DA:106,8
DA:107,8
DA:108,8
DA:109,8
DA:110,8
DA:111,8
DA:112,8
DA:113,8
DA:114,8
DA:115,8
DA:116,8
DA:117,8
DA:118,8
DA:119,8
DA:120,8
DA:121,8
DA:122,8
DA:123,8
DA:128,172
DA:129,172
DA:130,172
DA:131,172
DA:132,172
DA:133,172
DA:136,140
DA:137,140
DA:139,280
DA:140,280
DA:141,280
DA:142,280
DA:146,0
DA:147,280
DA:149,140
DA:150,140
DA:153,2
DA:154,2
DA:155,2
DA:156,2
DA:159,1
DA:160,1
DA:161,1
DA:162,1
DA:163,1
DA:166,1
DA:167,1
DA:168,1
DA:169,1
DA:170,1
DA:171,1
DA:172,1
DA:173,1
DA:174,1
DA:175,1
DA:176,1
DA:177,1
DA:179,1
DA:180,1
DA:181,1
DA:182,1
DA:183,1
DA:184,1
DA:185,1
DA:186,1
DA:187,1
DA:188,1
DA:189,1
DA:190,1
DA:193,1
DA:194,1
DA:197,1
DA:198,1
DA:199,1
DA:200,1
DA:201,1
DA:204,1
DA:205,1
DA:206,1
DA:207,1
DA:208,1
DA:209,1
DA:210,1
DA:211,1
DA:212,1
DA:213,1
DA:214,1
DA:215,1
DA:217,1
DA:218,1
DA:219,1
DA:220,1
DA:221,1
DA:222,1
DA:223,1
DA:226,1
DA:227,1
DA:230,0
DA:231,0
DA:232,0
DA:233,0
DA:234,0
DA:237,0
DA:239,0
DA:240,0
DA:241,0
DA:242,0
DA:243,0
DA:244,0
DA:245,0
DA:246,0
DA:247,0
DA:248,0
DA:249,0
DA:252,0
DA:255,0
DA:256,0
DA:257,0
DA:258,0
DA:259,0
DA:260,0
DA:261,0
DA:264,0
DA:265,0
DA:266,0
DA:267,0
DA:268,0
DA:269,0
DA:270,0
DA:273,0
DA:274,0
DA:283,4
DA:284,4
DA:285,4
DA:286,4
DA:287,4
DA:289,168
DA:290,168
DA:291,168
DA:293,0
DA:294,0
DA:295,0
DA:298,4
DA:299,4
DA:300,0
DA:301,0
DA:302,0
DA:303,4
DA:306,4
DA:307,4
DA:315,1
DA:316,1
DA:317,1
DA:318,1
DA:319,1
DA:320,1
DA:323,1
DA:324,1
DA:325,1
DA:326,1
DA:327,1
DA:330,1
DA:331,1
DA:332,1
DA:333,1
DA:334,1
DA:337,1
DA:338,1
DA:339,1
DA:340,1
DA:342,1
DA:343,1
DA:344,1
BRF:0
BRH:0
LF:206
LH:165
end_of_record
SF:/Users/aiq/work/wezterm-parallel/src/main.rs
FN:296,_RNvCsjIgq8mvfQLP_16wezterm_parallel13handle_client
FN:376,_RNvCsjIgq8mvfQLP_16wezterm_parallel14handle_message
FN:24,_RNvCsjIgq8mvfQLP_16wezterm_parallel4main
FN:543,_RNCNCNvCsjIgq8mvfQLP_16wezterm_parallel14handle_message00B5_
FN:178,_RNCNCNvCsjIgq8mvfQLP_16wezterm_parallel4main00B5_
FN:234,_RNCNCNvCsjIgq8mvfQLP_16wezterm_parallel4main0s_0B5_
FN:302,_RNCNvCsjIgq8mvfQLP_16wezterm_parallel13handle_client0B3_
FN:381,_RNCNvCsjIgq8mvfQLP_16wezterm_parallel14handle_message0B3_
FN:24,_RNCNvCsjIgq8mvfQLP_16wezterm_parallel4main0B3_
FN:543,_RNCNCNvCsgbfDwQ92IGJ_16wezterm_parallel14handle_message00B5_
FN:178,_RNCNCNvCsgbfDwQ92IGJ_16wezterm_parallel4main00B5_
FN:234,_RNCNCNvCsgbfDwQ92IGJ_16wezterm_parallel4main0s_0B5_
FN:302,_RNCNvCsgbfDwQ92IGJ_16wezterm_parallel13handle_client0B3_
FN:381,_RNCNvCsgbfDwQ92IGJ_16wezterm_parallel14handle_message0B3_
FN:24,_RNCNvCsgbfDwQ92IGJ_16wezterm_parallel4main0B3_
FN:296,_RNvCsgbfDwQ92IGJ_16wezterm_parallel13handle_client
FN:376,_RNvCsgbfDwQ92IGJ_16wezterm_parallel14handle_message
FN:24,_RNvCsgbfDwQ92IGJ_16wezterm_parallel4main
FNDA:0,_RNvCsjIgq8mvfQLP_16wezterm_parallel13handle_client
FNDA:0,_RNvCsjIgq8mvfQLP_16wezterm_parallel14handle_message
FNDA:0,_RNvCsjIgq8mvfQLP_16wezterm_parallel4main
FNDA:0,_RNCNCNvCsjIgq8mvfQLP_16wezterm_parallel14handle_message00B5_
FNDA:0,_RNCNCNvCsjIgq8mvfQLP_16wezterm_parallel4main00B5_
FNDA:0,_RNCNCNvCsjIgq8mvfQLP_16wezterm_parallel4main0s_0B5_
FNDA:0,_RNCNvCsjIgq8mvfQLP_16wezterm_parallel13handle_client0B3_
FNDA:0,_RNCNvCsjIgq8mvfQLP_16wezterm_parallel14handle_message0B3_
FNDA:0,_RNCNvCsjIgq8mvfQLP_16wezterm_parallel4main0B3_
FNDA:0,_RNCNCNvCsgbfDwQ92IGJ_16wezterm_parallel14handle_message00B5_
FNDA:0,_RNCNCNvCsgbfDwQ92IGJ_16wezterm_parallel4main00B5_
FNDA:0,_RNCNCNvCsgbfDwQ92IGJ_16wezterm_parallel4main0s_0B5_
FNDA:0,_RNCNvCsgbfDwQ92IGJ_16wezterm_parallel13handle_client0B3_
FNDA:0,_RNCNvCsgbfDwQ92IGJ_16wezterm_parallel14handle_message0B3_
FNDA:0,_RNCNvCsgbfDwQ92IGJ_16wezterm_parallel4main0B3_
FNDA:0,_RNvCsgbfDwQ92IGJ_16wezterm_parallel13handle_client
FNDA:0,_RNvCsgbfDwQ92IGJ_16wezterm_parallel14handle_message
FNDA:0,_RNvCsgbfDwQ92IGJ_16wezterm_parallel4main
FNF:9
FNH:0
DA:24,0
DA:25,0
DA:28,0
DA:29,0
DA:30,0
DA:31,0
DA:32,0
DA:34,0
DA:35,0
DA:36,0
DA:37,0
DA:38,0
DA:39,0
DA:40,0
DA:41,0
DA:42,0
DA:43,0
DA:44,0
DA:45,0
DA:48,0
DA:50,0
DA:51,0
DA:52,0
DA:53,0
DA:54,0
DA:59,0
DA:60,0
DA:61,0
DA:62,0
DA:63,0
DA:64,0
DA:65,0
DA:66,0
DA:67,0
DA:70,0
DA:73,0
DA:76,0
DA:79,0
DA:80,0
DA:84,0
DA:87,0
DA:89,0
DA:92,0
DA:93,0
DA:96,0
DA:97,0
DA:100,0
DA:101,0
DA:102,0
DA:103,0
DA:104,0
DA:105,0
DA:106,0
DA:112,0
DA:113,0
DA:114,0
DA:117,0
DA:118,0
DA:119,0
DA:120,0
DA:121,0
DA:122,0
DA:123,0
DA:124,0
DA:125,0
DA:126,0
DA:127,0
DA:129,0
DA:130,0
DA:131,0
DA:134,0
DA:135,0
DA:136,0
DA:137,0
DA:138,0
DA:142,0
DA:143,0
DA:144,0
DA:148,0
DA:149,0
DA:150,0
DA:151,0
DA:152,0
DA:153,0
DA:154,0
DA:155,0
DA:156,0
DA:157,0
DA:158,0
DA:159,0
DA:163,0
DA:164,0
DA:165,0
DA:166,0
DA:167,0
DA:168,0
DA:169,0
DA:170,0
DA:171,0
DA:173,0
DA:174,0
DA:177,0
DA:178,0
DA:179,0
DA:180,0
DA:181,0
DA:182,0
DA:183,0
DA:185,0
DA:186,0
DA:187,0
DA:188,0
DA:189,0
DA:193,0
DA:196,0
DA:199,0
DA:200,0
DA:201,0
DA:202,0
DA:204,0
DA:205,0
DA:206,0
DA:210,0
DA:211,0
DA:212,0
DA:213,0
DA:214,0
DA:217,0
DA:220,0
DA:221,0
DA:222,0
DA:225,0
DA:226,0
DA:227,0
DA:228,0
DA:231,0
DA:232,0
DA:234,0
DA:235,0
DA:237,0
DA:240,0
DA:241,0
DA:242,0
DA:243,0
DA:247,0
DA:248,0
DA:249,0
DA:250,0
DA:251,0
DA:252,0
DA:253,0
DA:258,0
DA:259,0
DA:260,0
DA:261,0
DA:262,0
DA:267,0
DA:268,0
DA:269,0
DA:270,0
DA:271,0
DA:272,0
DA:273,0
DA:274,0
DA:275,0
DA:276,0
DA:277,0
DA:278,0
DA:279,0
DA:280,0
DA:281,0
DA:282,0
DA:283,0
DA:284,0
DA:285,0
DA:286,0
DA:287,0
DA:288,0
DA:289,0
DA:290,0
DA:291,0
DA:292,0
DA:293,0
DA:294,0
DA:296,0
DA:297,0
DA:298,0
DA:299,0
DA:300,0
DA:301,0
DA:302,0
DA:303,0
DA:306,0
DA:308,0
DA:309,0
DA:310,0
DA:312,0
DA:313,0
DA:316,0
DA:317,0
DA:318,0
DA:319,0
DA:320,0
DA:321,0
DA:323,0
DA:326,0
DA:327,0
DA:328,0
DA:329,0
DA:330,0
DA:331,0
DA:332,0
DA:333,0
DA:334,0
DA:337,0
DA:338,0
DA:339,0
DA:342,0
DA:343,0
DA:344,0
DA:345,0
DA:346,0
DA:347,0
DA:348,0
DA:349,0
DA:351,0
DA:352,0
DA:353,0
DA:356,0
DA:357,0
DA:358,0
DA:359,0
DA:361,0
DA:362,0
DA:363,0
DA:367,0
DA:368,0
DA:369,0
DA:370,0
DA:374,0
DA:376,0
DA:377,0
DA:378,0
DA:379,0
DA:380,0
DA:381,0
DA:384,0
DA:386,0
DA:387,0
DA:388,0
DA:390,0
DA:391,0
DA:392,0
DA:393,0
DA:394,0
DA:395,0
DA:396,0
DA:401,0
DA:403,0
DA:404,0
DA:405,0
DA:406,0
DA:407,0
DA:408,0
DA:409,0
DA:410,0
DA:411,0
DA:413,0
DA:414,0
DA:415,0
DA:416,0
DA:417,0
DA:418,0
DA:422,0
DA:423,0
DA:424,0
DA:425,0
DA:429,0
DA:430,0
DA:431,0
DA:432,0
DA:433,0
DA:434,0
DA:435,0
DA:441,0
DA:442,0
DA:443,0
DA:444,0
DA:447,0
DA:448,0
DA:449,0
DA:450,0
DA:452,0
DA:453,0
DA:454,0
DA:455,0
DA:456,0
DA:459,0
DA:460,0
DA:461,0
DA:462,0
DA:466,0
DA:467,0
DA:468,0
DA:470,0
DA:471,0
DA:472,0
DA:473,0
DA:474,0
DA:475,0
DA:476,0
DA:483,0
DA:484,0
DA:485,0
DA:489,0
DA:490,0
DA:491,0
DA:492,0
DA:493,0
DA:494,0
DA:498,0
DA:499,0
DA:500,0
DA:503,0
DA:504,0
DA:505,0
DA:506,0
DA:507,0
DA:508,0
DA:509,0
DA:510,0
DA:514,0
DA:515,0
DA:516,0
DA:517,0
DA:519,0
DA:520,0
DA:521,0
DA:522,0
DA:523,0
DA:524,0
DA:528,0
DA:529,0
DA:530,0
DA:531,0
DA:536,0
DA:537,0
DA:538,0
DA:539,0
DA:540,0
DA:541,0
DA:542,0
DA:543,0
DA:544,0
DA:545,0
DA:546,0
DA:547,0
DA:548,0
DA:549,0
DA:550,0
DA:551,0
DA:552,0
DA:554,0
DA:555,0
DA:556,0
DA:558,0
DA:559,0
DA:560,0
DA:561,0
DA:562,0
DA:563,0
DA:564,0
DA:565,0
DA:566,0
DA:567,0
DA:568,0
DA:569,0
DA:570,0
DA:571,0
DA:572,0
DA:573,0
DA:574,0
DA:577,0
DA:581,0
DA:584,0
DA:585,0
DA:586,0
DA:587,0
DA:589,0
DA:590,0
DA:591,0
DA:592,0
DA:593,0
DA:594,0
DA:595,0
DA:596,0
DA:597,0
DA:598,0
DA:599,0
DA:602,0
DA:603,0
DA:604,0
DA:605,0
DA:607,0
DA:608,0
DA:609,0
DA:610,0
DA:611,0
DA:612,0
DA:613,0
DA:614,0
DA:620,0
DA:621,0
DA:622,0
DA:623,0
DA:625,0
DA:626,0
DA:627,0
DA:628,0
DA:629,0
DA:630,0
DA:631,0
DA:632,0
DA:635,0
BRF:0
BRH:0
LF:453
LH:0
end_of_record
SF:/Users/aiq/work/wezterm-parallel/src/metrics/aggregator.rs
FN:453,_RNCNCNvMs_NtNtCsezqlaDlZ1Zy_16wezterm_parallel7metrics10aggregatorNtB8_17MetricsAggregator16cleanup_old_data00Bc_
FN:462,_RNCNCNvMs_NtNtCsezqlaDlZ1Zy_16wezterm_parallel7metrics10aggregatorNtB8_17MetricsAggregator16cleanup_old_data0s0_0Bc_
FN:458,_RNCNCNvMs_NtNtCsezqlaDlZ1Zy_16wezterm_parallel7metrics10aggregatorNtB8_17MetricsAggregator16cleanup_old_data0s_0Bc_
FN:161,_RNCNCNvMs_NtNtCsezqlaDlZ1Zy_16wezterm_parallel7metrics10aggregatorNtB8_17MetricsAggregator19add_process_metrics00Bc_
FN:273,_RNCNCNvMs_NtNtCsezqlaDlZ1Zy_16wezterm_parallel7metrics10aggregatorNtB8_17MetricsAggregator21get_aggregation_stats00Bc_
FN:281,_RNCNvMs_NtNtCsezqlaDlZ1Zy_16wezterm_parallel7metrics10aggregatorNtB6_17MetricsAggregator12check_alerts0Ba_
FN:440,_RNCNvMs_NtNtCsezqlaDlZ1Zy_16wezterm_parallel7metrics10aggregatorNtB6_17MetricsAggregator13update_config0Ba_
FN:447,_RNCNvMs_NtNtCsezqlaDlZ1Zy_16wezterm_parallel7metrics10aggregatorNtB6_17MetricsAggregator16cleanup_old_data0Ba_
FN:105,_RNCNvMs_NtNtCsezqlaDlZ1Zy_16wezterm_parallel7metrics10aggregatorNtB6_17MetricsAggregator18add_system_metrics0Ba_
FN:192,_RNCNvMs_NtNtCsezqlaDlZ1Zy_16wezterm_parallel7metrics10aggregatorNtB6_17MetricsAggregator18get_system_history0Ba_
FN:124,_RNCNvMs_NtNtCsezqlaDlZ1Zy_16wezterm_parallel7metrics10aggregatorNtB6_17MetricsAggregator19add_process_metrics0Ba_
FN:213,_RNCNvMs_NtNtCsezqlaDlZ1Zy_16wezterm_parallel7metrics10aggregatorNtB6_17MetricsAggregator19get_process_history0Ba_
FN:240,_RNCNvMs_NtNtCsezqlaDlZ1Zy_16wezterm_parallel7metrics10aggregatorNtB6_17MetricsAggregator20add_performance_data0Ba_
FN:266,_RNCNvMs_NtNtCsezqlaDlZ1Zy_16wezterm_parallel7metrics10aggregatorNtB6_17MetricsAggregator21get_aggregation_stats0Ba_
FN:173,_RNCNvMs_NtNtCsezqlaDlZ1Zy_16wezterm_parallel7metrics10aggregatorNtB6_17MetricsAggregator21get_framework_metrics0Ba_
FN:178,_RNCNvMs_NtNtCsezqlaDlZ1Zy_16wezterm_parallel7metrics10aggregatorNtB6_17MetricsAggregator21get_workspace_metrics0Ba_
FN:187,_RNCNvMs_NtNtCsezqlaDlZ1Zy_16wezterm_parallel7metrics10aggregatorNtB6_17MetricsAggregator25get_all_workspace_metrics0Ba_
FN:260,_RNCNvMs_NtNtCsezqlaDlZ1Zy_16wezterm_parallel7metrics10aggregatorNtB6_17MetricsAggregator26reset_performance_tracking0Ba_
FN:234,_RNCNvMs_NtNtCsezqlaDlZ1Zy_16wezterm_parallel7metrics10aggregatorNtB6_17MetricsAggregator29calculate_performance_summary0Ba_
FN:435,_RNCNvMs_NtNtCsezqlaDlZ1Zy_16wezterm_parallel7metrics10aggregatorNtB6_17MetricsAggregator17current_timestamp0Ba_
FN:425,_RNCNvMs_NtNtCsezqlaDlZ1Zy_16wezterm_parallel7metrics10aggregatorNtB6_17MetricsAggregator21estimate_memory_usage0Ba_
FN:453,_RNCNCNvMs_NtNtCsbBf3qmLqCJ0_16wezterm_parallel7metrics10aggregatorNtB8_17MetricsAggregator16cleanup_old_data00Bc_
FN:462,_RNCNCNvMs_NtNtCsbBf3qmLqCJ0_16wezterm_parallel7metrics10aggregatorNtB8_17MetricsAggregator16cleanup_old_data0s0_0Bc_
FN:458,_RNCNCNvMs_NtNtCsbBf3qmLqCJ0_16wezterm_parallel7metrics10aggregatorNtB8_17MetricsAggregator16cleanup_old_data0s_0Bc_
FN:161,_RNCNCNvMs_NtNtCsbBf3qmLqCJ0_16wezterm_parallel7metrics10aggregatorNtB8_17MetricsAggregator19add_process_metrics00Bc_
FN:273,_RNCNCNvMs_NtNtCsbBf3qmLqCJ0_16wezterm_parallel7metrics10aggregatorNtB8_17MetricsAggregator21get_aggregation_stats00Bc_
FN:281,_RNCNvMs_NtNtCsbBf3qmLqCJ0_16wezterm_parallel7metrics10aggregatorNtB6_17MetricsAggregator12check_alerts0Ba_
FN:440,_RNCNvMs_NtNtCsbBf3qmLqCJ0_16wezterm_parallel7metrics10aggregatorNtB6_17MetricsAggregator13update_config0Ba_
FN:447,_RNCNvMs_NtNtCsbBf3qmLqCJ0_16wezterm_parallel7metrics10aggregatorNtB6_17MetricsAggregator16cleanup_old_data0Ba_
FN:192,_RNCNvMs_NtNtCsbBf3qmLqCJ0_16wezterm_parallel7metrics10aggregatorNtB6_17MetricsAggregator18get_system_history0Ba_
FN:124,_RNCNvMs_NtNtCsbBf3qmLqCJ0_16wezterm_parallel7metrics10aggregatorNtB6_17MetricsAggregator19add_process_metrics0Ba_
FN:213,_RNCNvMs_NtNtCsbBf3qmLqCJ0_16wezterm_parallel7metrics10aggregatorNtB6_17MetricsAggregator19get_process_history0Ba_
FN:425,_RNCNvMs_NtNtCsbBf3qmLqCJ0_16wezterm_parallel7metrics10aggregatorNtB6_17MetricsAggregator21estimate_memory_usage0Ba_
FN:266,_RNCNvMs_NtNtCsbBf3qmLqCJ0_16wezterm_parallel7metrics10aggregatorNtB6_17MetricsAggregator21get_aggregation_stats0Ba_
FN:178,_RNCNvMs_NtNtCsbBf3qmLqCJ0_16wezterm_parallel7metrics10aggregatorNtB6_17MetricsAggregator21get_workspace_metrics0Ba_
FN:187,_RNCNvMs_NtNtCsbBf3qmLqCJ0_16wezterm_parallel7metrics10aggregatorNtB6_17MetricsAggregator25get_all_workspace_metrics0Ba_
FN:260,_RNCNvMs_NtNtCsbBf3qmLqCJ0_16wezterm_parallel7metrics10aggregatorNtB6_17MetricsAggregator26reset_performance_tracking0Ba_
FN:531,_RNvMs0_NtNtCsbBf3qmLqCJ0_16wezterm_parallel7metrics10aggregatorNtB5_18PerformanceTracker5reset
FN:281,_RNvMs_NtNtCsbBf3qmLqCJ0_16wezterm_parallel7metrics10aggregatorNtB4_17MetricsAggregator12check_alerts
FN:440,_RNvMs_NtNtCsbBf3qmLqCJ0_16wezterm_parallel7metrics10aggregatorNtB4_17MetricsAggregator13update_config
FN:447,_RNvMs_NtNtCsbBf3qmLqCJ0_16wezterm_parallel7metrics10aggregatorNtB4_17MetricsAggregator16cleanup_old_data
FN:192,_RNvMs_NtNtCsbBf3qmLqCJ0_16wezterm_parallel7metrics10aggregatorNtB4_17MetricsAggregator18get_system_history
FN:124,_RNvMs_NtNtCsbBf3qmLqCJ0_16wezterm_parallel7metrics10aggregatorNtB4_17MetricsAggregator19add_process_metrics
FN:302,_RNvMs_NtNtCsbBf3qmLqCJ0_16wezterm_parallel7metrics10aggregatorNtB4_17MetricsAggregator19check_system_alerts
FN:209,_RNvMs_NtNtCsbBf3qmLqCJ0_16wezterm_parallel7metrics10aggregatorNtB4_17MetricsAggregator19get_process_history
FN:417,_RNvMs_NtNtCsbBf3qmLqCJ0_16wezterm_parallel7metrics10aggregatorNtB4_17MetricsAggregator21estimate_memory_usage
FN:266,_RNvMs_NtNtCsbBf3qmLqCJ0_16wezterm_parallel7metrics10aggregatorNtB4_17MetricsAggregator21get_aggregation_stats
FN:178,_RNvMs_NtNtCsbBf3qmLqCJ0_16wezterm_parallel7metrics10aggregatorNtB4_17MetricsAggregator21get_workspace_metrics
FN:348,_RNvMs_NtNtCsbBf3qmLqCJ0_16wezterm_parallel7metrics10aggregatorNtB4_17MetricsAggregator22check_workspace_alerts
FN:384,_RNvMs_NtNtCsbBf3qmLqCJ0_16wezterm_parallel7metrics10aggregatorNtB4_17MetricsAggregator24check_performance_alerts
FN:187,_RNvMs_NtNtCsbBf3qmLqCJ0_16wezterm_parallel7metrics10aggregatorNtB4_17MetricsAggregator25get_all_workspace_metrics
FN:260,_RNvMs_NtNtCsbBf3qmLqCJ0_16wezterm_parallel7metrics10aggregatorNtB4_17MetricsAggregator26reset_performance_tracking
FN:483,_RNvMs0_NtNtCsbBf3qmLqCJ0_16wezterm_parallel7metrics10aggregatorNtB5_18PerformanceTracker17calculate_summary
FN:472,_RNvMs0_NtNtCsbBf3qmLqCJ0_16wezterm_parallel7metrics10aggregatorNtB5_18PerformanceTracker3new
FN:432,_RNvMs_NtNtCsbBf3qmLqCJ0_16wezterm_parallel7metrics10aggregatorNtB4_17MetricsAggregator17current_timestamp
FN:105,_RNvMs_NtNtCsbBf3qmLqCJ0_16wezterm_parallel7metrics10aggregatorNtB4_17MetricsAggregator18add_system_metrics
FN:240,_RNvMs_NtNtCsbBf3qmLqCJ0_16wezterm_parallel7metrics10aggregatorNtB4_17MetricsAggregator20add_performance_data
FN:173,_RNvMs_NtNtCsbBf3qmLqCJ0_16wezterm_parallel7metrics10aggregatorNtB4_17MetricsAggregator21get_framework_metrics
FN:234,_RNvMs_NtNtCsbBf3qmLqCJ0_16wezterm_parallel7metrics10aggregatorNtB4_17MetricsAggregator29calculate_performance_summary
FN:92,_RNvMs_NtNtCsbBf3qmLqCJ0_16wezterm_parallel7metrics10aggregatorNtB4_17MetricsAggregator3new
FN:78,_RNvXNtNtCsbBf3qmLqCJ0_16wezterm_parallel7metrics10aggregatorNtB2_15AlertThresholdsNtNtCsd2KPTObkMr_4core7default7Default7default
FN:583,_RNvNtNtNtCsbBf3qmLqCJ0_16wezterm_parallel7metrics10aggregator5testss_24test_metrics_aggregation
FN:595,_RNvNtNtNtCsbBf3qmLqCJ0_16wezterm_parallel7metrics10aggregator5testss_25test_performance_tracking
FN:583,_RNCNvNtNtNtCsbBf3qmLqCJ0_16wezterm_parallel7metrics10aggregator5testss_24test_metrics_aggregation0B9_
FN:595,_RNCNvNtNtNtCsbBf3qmLqCJ0_16wezterm_parallel7metrics10aggregator5testss_25test_performance_tracking0B9_
FN:435,_RNCNvMs_NtNtCsbBf3qmLqCJ0_16wezterm_parallel7metrics10aggregatorNtB6_17MetricsAggregator17current_timestamp0Ba_
FN:105,_RNCNvMs_NtNtCsbBf3qmLqCJ0_16wezterm_parallel7metrics10aggregatorNtB6_17MetricsAggregator18add_system_metrics0Ba_
FN:240,_RNCNvMs_NtNtCsbBf3qmLqCJ0_16wezterm_parallel7metrics10aggregatorNtB6_17MetricsAggregator20add_performance_data0Ba_
FN:173,_RNCNvMs_NtNtCsbBf3qmLqCJ0_16wezterm_parallel7metrics10aggregatorNtB6_17MetricsAggregator21get_framework_metrics0Ba_
FN:234,_RNCNvMs_NtNtCsbBf3qmLqCJ0_16wezterm_parallel7metrics10aggregatorNtB6_17MetricsAggregator29calculate_performance_summary0Ba_
FNDA:0,_RNCNCNvMs_NtNtCsezqlaDlZ1Zy_16wezterm_parallel7metrics10aggregatorNtB8_17MetricsAggregator16cleanup_old_data00Bc_
FNDA:0,_RNCNCNvMs_NtNtCsezqlaDlZ1Zy_16wezterm_parallel7metrics10aggregatorNtB8_17MetricsAggregator16cleanup_old_data0s0_0Bc_
FNDA:0,_RNCNCNvMs_NtNtCsezqlaDlZ1Zy_16wezterm_parallel7metrics10aggregatorNtB8_17MetricsAggregator16cleanup_old_data0s_0Bc_
FNDA:0,_RNCNCNvMs_NtNtCsezqlaDlZ1Zy_16wezterm_parallel7metrics10aggregatorNtB8_17MetricsAggregator19add_process_metrics00Bc_
FNDA:0,_RNCNCNvMs_NtNtCsezqlaDlZ1Zy_16wezterm_parallel7metrics10aggregatorNtB8_17MetricsAggregator21get_aggregation_stats00Bc_
FNDA:0,_RNCNvMs_NtNtCsezqlaDlZ1Zy_16wezterm_parallel7metrics10aggregatorNtB6_17MetricsAggregator12check_alerts0Ba_
FNDA:0,_RNCNvMs_NtNtCsezqlaDlZ1Zy_16wezterm_parallel7metrics10aggregatorNtB6_17MetricsAggregator13update_config0Ba_
FNDA:0,_RNCNvMs_NtNtCsezqlaDlZ1Zy_16wezterm_parallel7metrics10aggregatorNtB6_17MetricsAggregator16cleanup_old_data0Ba_
FNDA:0,_RNCNvMs_NtNtCsezqlaDlZ1Zy_16wezterm_parallel7metrics10aggregatorNtB6_17MetricsAggregator18add_system_metrics0Ba_
FNDA:0,_RNCNvMs_NtNtCsezqlaDlZ1Zy_16wezterm_parallel7metrics10aggregatorNtB6_17MetricsAggregator18get_system_history0Ba_
FNDA:0,_RNCNvMs_NtNtCsezqlaDlZ1Zy_16wezterm_parallel7metrics10aggregatorNtB6_17MetricsAggregator19add_process_metrics0Ba_
FNDA:0,_RNCNvMs_NtNtCsezqlaDlZ1Zy_16wezterm_parallel7metrics10aggregatorNtB6_17MetricsAggregator19get_process_history0Ba_
FNDA:0,_RNCNvMs_NtNtCsezqlaDlZ1Zy_16wezterm_parallel7metrics10aggregatorNtB6_17MetricsAggregator20add_performance_data0Ba_
FNDA:0,_RNCNvMs_NtNtCsezqlaDlZ1Zy_16wezterm_parallel7metrics10aggregatorNtB6_17MetricsAggregator21get_aggregation_stats0Ba_
FNDA:0,_RNCNvMs_NtNtCsezqlaDlZ1Zy_16wezterm_parallel7metrics10aggregatorNtB6_17MetricsAggregator21get_framework_metrics0Ba_
FNDA:0,_RNCNvMs_NtNtCsezqlaDlZ1Zy_16wezterm_parallel7metrics10aggregatorNtB6_17MetricsAggregator21get_workspace_metrics0Ba_
FNDA:0,_RNCNvMs_NtNtCsezqlaDlZ1Zy_16wezterm_parallel7metrics10aggregatorNtB6_17MetricsAggregator25get_all_workspace_metrics0Ba_
FNDA:0,_RNCNvMs_NtNtCsezqlaDlZ1Zy_16wezterm_parallel7metrics10aggregatorNtB6_17MetricsAggregator26reset_performance_tracking0Ba_
FNDA:0,_RNCNvMs_NtNtCsezqlaDlZ1Zy_16wezterm_parallel7metrics10aggregatorNtB6_17MetricsAggregator29calculate_performance_summary0Ba_
FNDA:0,_RNCNvMs_NtNtCsezqlaDlZ1Zy_16wezterm_parallel7metrics10aggregatorNtB6_17MetricsAggregator17current_timestamp0Ba_
FNDA:0,_RNCNvMs_NtNtCsezqlaDlZ1Zy_16wezterm_parallel7metrics10aggregatorNtB6_17MetricsAggregator21estimate_memory_usage0Ba_
FNDA:0,_RNCNCNvMs_NtNtCsbBf3qmLqCJ0_16wezterm_parallel7metrics10aggregatorNtB8_17MetricsAggregator16cleanup_old_data00Bc_
FNDA:0,_RNCNCNvMs_NtNtCsbBf3qmLqCJ0_16wezterm_parallel7metrics10aggregatorNtB8_17MetricsAggregator16cleanup_old_data0s0_0Bc_
FNDA:0,_RNCNCNvMs_NtNtCsbBf3qmLqCJ0_16wezterm_parallel7metrics10aggregatorNtB8_17MetricsAggregator16cleanup_old_data0s_0Bc_
FNDA:0,_RNCNCNvMs_NtNtCsbBf3qmLqCJ0_16wezterm_parallel7metrics10aggregatorNtB8_17MetricsAggregator19add_process_metrics00Bc_
FNDA:0,_RNCNCNvMs_NtNtCsbBf3qmLqCJ0_16wezterm_parallel7metrics10aggregatorNtB8_17MetricsAggregator21get_aggregation_stats00Bc_
FNDA:0,_RNCNvMs_NtNtCsbBf3qmLqCJ0_16wezterm_parallel7metrics10aggregatorNtB6_17MetricsAggregator12check_alerts0Ba_
FNDA:0,_RNCNvMs_NtNtCsbBf3qmLqCJ0_16wezterm_parallel7metrics10aggregatorNtB6_17MetricsAggregator13update_config0Ba_
FNDA:0,_RNCNvMs_NtNtCsbBf3qmLqCJ0_16wezterm_parallel7metrics10aggregatorNtB6_17MetricsAggregator16cleanup_old_data0Ba_
FNDA:0,_RNCNvMs_NtNtCsbBf3qmLqCJ0_16wezterm_parallel7metrics10aggregatorNtB6_17MetricsAggregator18get_system_history0Ba_
FNDA:0,_RNCNvMs_NtNtCsbBf3qmLqCJ0_16wezterm_parallel7metrics10aggregatorNtB6_17MetricsAggregator19add_process_metrics0Ba_
FNDA:0,_RNCNvMs_NtNtCsbBf3qmLqCJ0_16wezterm_parallel7metrics10aggregatorNtB6_17MetricsAggregator19get_process_history0Ba_
FNDA:0,_RNCNvMs_NtNtCsbBf3qmLqCJ0_16wezterm_parallel7metrics10aggregatorNtB6_17MetricsAggregator21estimate_memory_usage0Ba_
FNDA:0,_RNCNvMs_NtNtCsbBf3qmLqCJ0_16wezterm_parallel7metrics10aggregatorNtB6_17MetricsAggregator21get_aggregation_stats0Ba_
FNDA:0,_RNCNvMs_NtNtCsbBf3qmLqCJ0_16wezterm_parallel7metrics10aggregatorNtB6_17MetricsAggregator21get_workspace_metrics0Ba_
FNDA:0,_RNCNvMs_NtNtCsbBf3qmLqCJ0_16wezterm_parallel7metrics10aggregatorNtB6_17MetricsAggregator25get_all_workspace_metrics0Ba_
FNDA:0,_RNCNvMs_NtNtCsbBf3qmLqCJ0_16wezterm_parallel7metrics10aggregatorNtB6_17MetricsAggregator26reset_performance_tracking0Ba_
FNDA:0,_RNvMs0_NtNtCsbBf3qmLqCJ0_16wezterm_parallel7metrics10aggregatorNtB5_18PerformanceTracker5reset
FNDA:0,_RNvMs_NtNtCsbBf3qmLqCJ0_16wezterm_parallel7metrics10aggregatorNtB4_17MetricsAggregator12check_alerts
FNDA:0,_RNvMs_NtNtCsbBf3qmLqCJ0_16wezterm_parallel7metrics10aggregatorNtB4_17MetricsAggregator13update_config
FNDA:0,_RNvMs_NtNtCsbBf3qmLqCJ0_16wezterm_parallel7metrics10aggregatorNtB4_17MetricsAggregator16cleanup_old_data
FNDA:0,_RNvMs_NtNtCsbBf3qmLqCJ0_16wezterm_parallel7metrics10aggregatorNtB4_17MetricsAggregator18get_system_history
FNDA:0,_RNvMs_NtNtCsbBf3qmLqCJ0_16wezterm_parallel7metrics10aggregatorNtB4_17MetricsAggregator19add_process_metrics
FNDA:0,_RNvMs_NtNtCsbBf3qmLqCJ0_16wezterm_parallel7metrics10aggregatorNtB4_17MetricsAggregator19check_system_alerts
FNDA:0,_RNvMs_NtNtCsbBf3qmLqCJ0_16wezterm_parallel7metrics10aggregatorNtB4_17MetricsAggregator19get_process_history
FNDA:0,_RNvMs_NtNtCsbBf3qmLqCJ0_16wezterm_parallel7metrics10aggregatorNtB4_17MetricsAggregator21estimate_memory_usage
FNDA:0,_RNvMs_NtNtCsbBf3qmLqCJ0_16wezterm_parallel7metrics10aggregatorNtB4_17MetricsAggregator21get_aggregation_stats
FNDA:0,_RNvMs_NtNtCsbBf3qmLqCJ0_16wezterm_parallel7metrics10aggregatorNtB4_17MetricsAggregator21get_workspace_metrics
FNDA:0,_RNvMs_NtNtCsbBf3qmLqCJ0_16wezterm_parallel7metrics10aggregatorNtB4_17MetricsAggregator22check_workspace_alerts
FNDA:0,_RNvMs_NtNtCsbBf3qmLqCJ0_16wezterm_parallel7metrics10aggregatorNtB4_17MetricsAggregator24check_performance_alerts
FNDA:0,_RNvMs_NtNtCsbBf3qmLqCJ0_16wezterm_parallel7metrics10aggregatorNtB4_17MetricsAggregator25get_all_workspace_metrics
FNDA:0,_RNvMs_NtNtCsbBf3qmLqCJ0_16wezterm_parallel7metrics10aggregatorNtB4_17MetricsAggregator26reset_performance_tracking
FNDA:1,_RNvMs0_NtNtCsbBf3qmLqCJ0_16wezterm_parallel7metrics10aggregatorNtB5_18PerformanceTracker17calculate_summary
FNDA:2,_RNvMs0_NtNtCsbBf3qmLqCJ0_16wezterm_parallel7metrics10aggregatorNtB5_18PerformanceTracker3new
FNDA:1,_RNvMs_NtNtCsbBf3qmLqCJ0_16wezterm_parallel7metrics10aggregatorNtB4_17MetricsAggregator17current_timestamp
FNDA:1,_RNvMs_NtNtCsbBf3qmLqCJ0_16wezterm_parallel7metrics10aggregatorNtB4_17MetricsAggregator18add_system_metrics
FNDA:2,_RNvMs_NtNtCsbBf3qmLqCJ0_16wezterm_parallel7metrics10aggregatorNtB4_17MetricsAggregator20add_performance_data
FNDA:1,_RNvMs_NtNtCsbBf3qmLqCJ0_16wezterm_parallel7metrics10aggregatorNtB4_17MetricsAggregator21get_framework_metrics
FNDA:1,_RNvMs_NtNtCsbBf3qmLqCJ0_16wezterm_parallel7metrics10aggregatorNtB4_17MetricsAggregator29calculate_performance_summary
FNDA:2,_RNvMs_NtNtCsbBf3qmLqCJ0_16wezterm_parallel7metrics10aggregatorNtB4_17MetricsAggregator3new
FNDA:2,_RNvXNtNtCsbBf3qmLqCJ0_16wezterm_parallel7metrics10aggregatorNtB2_15AlertThresholdsNtNtCsd2KPTObkMr_4core7default7Default7default
FNDA:1,_RNvNtNtNtCsbBf3qmLqCJ0_16wezterm_parallel7metrics10aggregator5testss_24test_metrics_aggregation
FNDA:1,_RNvNtNtNtCsbBf3qmLqCJ0_16wezterm_parallel7metrics10aggregator5testss_25test_performance_tracking
FNDA:1,_RNCNvNtNtNtCsbBf3qmLqCJ0_16wezterm_parallel7metrics10aggregator5testss_24test_metrics_aggregation0B9_
FNDA:1,_RNCNvNtNtNtCsbBf3qmLqCJ0_16wezterm_parallel7metrics10aggregator5testss_25test_performance_tracking0B9_
FNDA:1,_RNCNvMs_NtNtCsbBf3qmLqCJ0_16wezterm_parallel7metrics10aggregatorNtB6_17MetricsAggregator17current_timestamp0Ba_
FNDA:1,_RNCNvMs_NtNtCsbBf3qmLqCJ0_16wezterm_parallel7metrics10aggregatorNtB6_17MetricsAggregator18add_system_metrics0Ba_
FNDA:2,_RNCNvMs_NtNtCsbBf3qmLqCJ0_16wezterm_parallel7metrics10aggregatorNtB6_17MetricsAggregator20add_performance_data0Ba_
FNDA:1,_RNCNvMs_NtNtCsbBf3qmLqCJ0_16wezterm_parallel7metrics10aggregatorNtB6_17MetricsAggregator21get_framework_metrics0Ba_
FNDA:1,_RNCNvMs_NtNtCsbBf3qmLqCJ0_16wezterm_parallel7metrics10aggregatorNtB6_17MetricsAggregator29calculate_performance_summary0Ba_
FNF:49
FNH:18
DA:78,2
DA:79,2
DA:80,2
DA:81,2
DA:82,2
DA:83,2
DA:84,2
DA:85,2
DA:86,2
DA:87,2
DA:92,2
DA:93,2
DA:94,2
DA:95,2
DA:96,2
DA:97,2
DA:98,2
DA:99,2
DA:100,2
DA:101,2
DA:102,2
DA:105,1
DA:106,1
DA:108,1
DA:109,1
DA:112,1
DA:113,0
DA:114,0
DA:115,1
DA:118,1
DA:119,1
DA:120,1
DA:121,1
DA:124,0
DA:125,0
DA:127,0
DA:128,0
DA:131,0
DA:133,0
DA:135,0
DA:136,0
DA:138,0
DA:139,0
DA:140,0
DA:141,0
DA:144,0
DA:145,0
DA:146,0
DA:147,0
DA:148,0
DA:151,0
DA:152,0
DA:153,0
DA:154,0
DA:158,0
DA:159,0
DA:160,0
DA:161,0
DA:163,0
DA:167,0
DA:168,0
DA:169,0
DA:170,0
DA:173,1
DA:174,1
DA:175,1
DA:178,0
DA:179,0
DA:180,0
DA:181,0
DA:182,0
DA:183,0
DA:184,0
DA:187,0
DA:188,0
DA:189,0
DA:192,0
DA:193,0
DA:195,0
DA:196,0
DA:197,0
DA:198,0
DA:200,0
DA:202,0
DA:204,0
DA:206,0
DA:209,0
DA:210,0
DA:211,0
DA:212,0
DA:213,0
DA:214,0
DA:216,0
DA:217,0
DA:218,0
DA:219,0
DA:220,0
DA:222,0
DA:224,0
DA:226,0
DA:229,0
DA:231,0
DA:234,1
DA:235,1
DA:236,1
DA:237,1
DA:240,2
DA:241,2
DA:243,2
DA:245,2
DA:246,1
DA:247,1
DA:249,2
DA:250,2
DA:253,2
DA:254,0
DA:255,2
DA:256,0
DA:257,2
DA:260,0
DA:261,0
DA:262,0
DA:263,0
DA:266,0
DA:267,0
DA:268,0
DA:269,0
DA:272,0
DA:273,0
DA:274,0
DA:275,0
DA:276,0
DA:278,0
DA:281,0
DA:282,0
DA:285,0
DA:286,0
DA:287,0
DA:290,0
DA:291,0
DA:292,0
DA:295,0
DA:296,0
DA:298,0
DA:299,0
DA:302,0
DA:303,0
DA:305,0
DA:306,0
DA:307,0
DA:308,0
DA:309,0
DA:310,0
DA:311,0
DA:312,0
DA:313,0
DA:314,0
DA:315,0
DA:316,0
DA:318,0
DA:319,0
DA:320,0
DA:321,0
DA:322,0
DA:323,0
DA:324,0
DA:325,0
DA:326,0
DA:327,0
DA:328,0
DA:329,0
DA:331,0
DA:332,0
DA:333,0
DA:334,0
DA:335,0
DA:336,0
DA:337,0
DA:338,0
DA:339,0
DA:340,0
DA:341,0
DA:342,0
DA:344,0
DA:345,0
DA:348,0
DA:349,0
DA:351,0
DA:352,0
DA:353,0
DA:354,0
DA:355,0
DA:356,0
DA:357,0
DA:358,0
DA:359,0
DA:360,0
DA:361,0
DA:362,0
DA:363,0
DA:364,0
DA:365,0
DA:367,0
DA:368,0
DA:369,0
DA:370,0
DA:371,0
DA:372,0
DA:373,0
DA:374,0
DA:375,0
DA:376,0
DA:377,0
DA:378,0
DA:380,0
DA:381,0
DA:384,0
DA:385,0
DA:387,0
DA:388,0
DA:389,0
DA:390,0
DA:391,0
DA:392,0
DA:393,0
DA:394,0
DA:395,0
DA:396,0
DA:397,0
DA:398,0
DA:400,0
DA:401,0
DA:402,0
DA:403,0
DA:404,0
DA:405,0
DA:406,0
DA:407,0
DA:408,0
DA:409,0
DA:410,0
DA:411,0
DA:413,0
DA:414,0
DA:417,0
DA:418,0
DA:419,0
DA:420,0
DA:421,0
DA:422,0
DA:423,0
DA:424,0
DA:425,0
DA:426,0
DA:428,0
DA:429,0
DA:432,1
DA:433,1
DA:434,1
DA:435,1
DA:436,1
DA:437,1
DA:440,0
DA:441,0
DA:444,0
DA:447,0
DA:448,0
DA:449,0
DA:452,0
DA:453,0
DA:456,0
DA:457,0
DA:458,0
DA:462,0
DA:464,0
DA:465,0
DA:468,0
DA:472,2
DA:473,2
DA:474,2
DA:475,2
DA:476,2
DA:477,2
DA:478,2
DA:479,2
DA:480,2
DA:481,2
DA:483,1
DA:484,1
DA:485,1
DA:486,1
DA:488,0
DA:491,1
DA:492,1
DA:494,0
DA:497,1
DA:498,1
DA:499,0
DA:501,1
DA:502,1
DA:504,1
DA:505,1
DA:506,1
DA:508,1
DA:509,1
DA:510,1
DA:511,1
DA:512,1
DA:513,1
DA:514,1
DA:515,1
DA:517,1
DA:520,1
DA:521,1
DA:522,1
DA:523,1
DA:524,1
DA:525,1
DA:526,1
DA:527,1
DA:528,1
DA:529,1
DA:531,0
DA:532,0
DA:533,0
DA:534,0
DA:535,0
DA:536,0
DA:537,0
DA:583,1
DA:584,1
DA:585,1
DA:587,1
DA:588,1
DA:590,1
DA:591,1
DA:592,1
DA:595,1
DA:596,1
DA:597,1
DA:599,1
DA:600,1
DA:602,1
DA:603,1
DA:604,1
DA:605,1
DA:606,1
BRF:0
BRH:0
LF:372
LH:124
end_of_record
SF:/Users/aiq/work/wezterm-parallel/src/metrics/collector.rs
FN:352,_RNCNvMNtNtCsezqlaDlZ1Zy_16wezterm_parallel7metrics9collectorNtB4_16MetricsCollector24wait_for_next_collection0B8_
FN:360,_RNCNvMNtNtCsezqlaDlZ1Zy_16wezterm_parallel7metrics9collectorNtB4_16MetricsCollector17current_timestamp0B8_
FN:161,_RNCNvMNtNtCsezqlaDlZ1Zy_16wezterm_parallel7metrics9collectorNtB4_16MetricsCollector30collect_single_process_metrics0B8_
FN:413,_RNvNtNtNtCsbBf3qmLqCJ0_16wezterm_parallel7metrics9collector5testss_25test_process_registration
FN:433,_RNvNtNtNtCsbBf3qmLqCJ0_16wezterm_parallel7metrics9collector5testss_30test_system_metrics_collection
FN:401,_RNvNtNtNtCsbBf3qmLqCJ0_16wezterm_parallel7metrics9collector5testss_31test_metrics_collector_creation
FN:352,_RNCNvMNtNtCsbBf3qmLqCJ0_16wezterm_parallel7metrics9collectorNtB4_16MetricsCollector24wait_for_next_collection0B8_
FN:161,_RNCNvMNtNtCsbBf3qmLqCJ0_16wezterm_parallel7metrics9collectorNtB4_16MetricsCollector30collect_single_process_metrics0B8_
FN:289,_RNvMNtNtCsbBf3qmLqCJ0_16wezterm_parallel7metrics9collectorNtB2_16MetricsCollector12get_fd_count
FN:365,_RNvMNtNtCsbBf3qmLqCJ0_16wezterm_parallel7metrics9collectorNtB2_16MetricsCollector13update_config
FN:377,_RNvMNtNtCsbBf3qmLqCJ0_16wezterm_parallel7metrics9collectorNtB2_16MetricsCollector20get_collection_stats
FN:334,_RNvMNtNtCsbBf3qmLqCJ0_16wezterm_parallel7metrics9collectorNtB2_16MetricsCollector21get_process_workspace
FN:125,_RNvMNtNtCsbBf3qmLqCJ0_16wezterm_parallel7metrics9collectorNtB2_16MetricsCollector23collect_process_metrics
FN:307,_RNvMNtNtCsbBf3qmLqCJ0_16wezterm_parallel7metrics9collectorNtB2_16MetricsCollector24determine_process_status
FN:352,_RNvMNtNtCsbBf3qmLqCJ0_16wezterm_parallel7metrics9collectorNtB2_16MetricsCollector24wait_for_next_collection
FN:345,_RNvMNtNtCsbBf3qmLqCJ0_16wezterm_parallel7metrics9collectorNtB2_16MetricsCollector29measure_process_response_time
FN:153,_RNvMNtNtCsbBf3qmLqCJ0_16wezterm_parallel7metrics9collectorNtB2_16MetricsCollector30collect_single_process_metrics
FN:59,_RNvMNtNtCsbBf3qmLqCJ0_16wezterm_parallel7metrics9collectorNtB2_16MetricsCollector16register_process
FN:357,_RNvMNtNtCsbBf3qmLqCJ0_16wezterm_parallel7metrics9collectorNtB2_16MetricsCollector17current_timestamp
FN:69,_RNvMNtNtCsbBf3qmLqCJ0_16wezterm_parallel7metrics9collectorNtB2_16MetricsCollector18unregister_process
FN:211,_RNvMNtNtCsbBf3qmLqCJ0_16wezterm_parallel7metrics9collectorNtB2_16MetricsCollector20collect_disk_metrics
FN:230,_RNvMNtNtCsbBf3qmLqCJ0_16wezterm_parallel7metrics9collectorNtB2_16MetricsCollector20collect_load_average
FN:75,_RNvMNtNtCsbBf3qmLqCJ0_16wezterm_parallel7metrics9collectorNtB2_16MetricsCollector22collect_system_metrics
FN:244,_RNvMNtNtCsbBf3qmLqCJ0_16wezterm_parallel7metrics9collectorNtB2_16MetricsCollector23collect_network_metrics
FN:42,_RNvMNtNtCsbBf3qmLqCJ0_16wezterm_parallel7metrics9collectorNtB2_16MetricsCollector3new
FN:360,_RNCNvMNtNtCsbBf3qmLqCJ0_16wezterm_parallel7metrics9collectorNtB4_16MetricsCollector17current_timestamp0B8_
FN:413,_RNCNvNtNtNtCsbBf3qmLqCJ0_16wezterm_parallel7metrics9collector5testss_25test_process_registration0B9_
FN:433,_RNCNvNtNtNtCsbBf3qmLqCJ0_16wezterm_parallel7metrics9collector5testss_30test_system_metrics_collection0B9_
FN:401,_RNCNvNtNtNtCsbBf3qmLqCJ0_16wezterm_parallel7metrics9collector5testss_31test_metrics_collector_creation0B9_
FNDA:0,_RNCNvMNtNtCsezqlaDlZ1Zy_16wezterm_parallel7metrics9collectorNtB4_16MetricsCollector24wait_for_next_collection0B8_
FNDA:0,_RNCNvMNtNtCsezqlaDlZ1Zy_16wezterm_parallel7metrics9collectorNtB4_16MetricsCollector17current_timestamp0B8_
FNDA:0,_RNCNvMNtNtCsezqlaDlZ1Zy_16wezterm_parallel7metrics9collectorNtB4_16MetricsCollector30collect_single_process_metrics0B8_
FNDA:1,_RNvNtNtNtCsbBf3qmLqCJ0_16wezterm_parallel7metrics9collector5testss_25test_process_registration
FNDA:1,_RNvNtNtNtCsbBf3qmLqCJ0_16wezterm_parallel7metrics9collector5testss_30test_system_metrics_collection
FNDA:1,_RNvNtNtNtCsbBf3qmLqCJ0_16wezterm_parallel7metrics9collector5testss_31test_metrics_collector_creation
FNDA:0,_RNCNvMNtNtCsbBf3qmLqCJ0_16wezterm_parallel7metrics9collectorNtB4_16MetricsCollector24wait_for_next_collection0B8_
FNDA:0,_RNCNvMNtNtCsbBf3qmLqCJ0_16wezterm_parallel7metrics9collectorNtB4_16MetricsCollector30collect_single_process_metrics0B8_
FNDA:0,_RNvMNtNtCsbBf3qmLqCJ0_16wezterm_parallel7metrics9collectorNtB2_16MetricsCollector12get_fd_count
FNDA:0,_RNvMNtNtCsbBf3qmLqCJ0_16wezterm_parallel7metrics9collectorNtB2_16MetricsCollector13update_config
FNDA:0,_RNvMNtNtCsbBf3qmLqCJ0_16wezterm_parallel7metrics9collectorNtB2_16MetricsCollector20get_collection_stats
FNDA:0,_RNvMNtNtCsbBf3qmLqCJ0_16wezterm_parallel7metrics9collectorNtB2_16MetricsCollector21get_process_workspace
FNDA:0,_RNvMNtNtCsbBf3qmLqCJ0_16wezterm_parallel7metrics9collectorNtB2_16MetricsCollector23collect_process_metrics
FNDA:0,_RNvMNtNtCsbBf3qmLqCJ0_16wezterm_parallel7metrics9collectorNtB2_16MetricsCollector24determine_process_status
FNDA:0,_RNvMNtNtCsbBf3qmLqCJ0_16wezterm_parallel7metrics9collectorNtB2_16MetricsCollector24wait_for_next_collection
FNDA:0,_RNvMNtNtCsbBf3qmLqCJ0_16wezterm_parallel7metrics9collectorNtB2_16MetricsCollector29measure_process_response_time
FNDA:0,_RNvMNtNtCsbBf3qmLqCJ0_16wezterm_parallel7metrics9collectorNtB2_16MetricsCollector30collect_single_process_metrics
FNDA:1,_RNvMNtNtCsbBf3qmLqCJ0_16wezterm_parallel7metrics9collectorNtB2_16MetricsCollector16register_process
FNDA:1,_RNvMNtNtCsbBf3qmLqCJ0_16wezterm_parallel7metrics9collectorNtB2_16MetricsCollector17current_timestamp
FNDA:1,_RNvMNtNtCsbBf3qmLqCJ0_16wezterm_parallel7metrics9collectorNtB2_16MetricsCollector18unregister_process
FNDA:1,_RNvMNtNtCsbBf3qmLqCJ0_16wezterm_parallel7metrics9collectorNtB2_16MetricsCollector20collect_disk_metrics
FNDA:1,_RNvMNtNtCsbBf3qmLqCJ0_16wezterm_parallel7metrics9collectorNtB2_16MetricsCollector20collect_load_average
FNDA:1,_RNvMNtNtCsbBf3qmLqCJ0_16wezterm_parallel7metrics9collectorNtB2_16MetricsCollector22collect_system_metrics
FNDA:1,_RNvMNtNtCsbBf3qmLqCJ0_16wezterm_parallel7metrics9collectorNtB2_16MetricsCollector23collect_network_metrics
FNDA:3,_RNvMNtNtCsbBf3qmLqCJ0_16wezterm_parallel7metrics9collectorNtB2_16MetricsCollector3new
FNDA:1,_RNCNvMNtNtCsbBf3qmLqCJ0_16wezterm_parallel7metrics9collectorNtB4_16MetricsCollector17current_timestamp0B8_
FNDA:1,_RNCNvNtNtNtCsbBf3qmLqCJ0_16wezterm_parallel7metrics9collector5testss_25test_process_registration0B9_
FNDA:1,_RNCNvNtNtNtCsbBf3qmLqCJ0_16wezterm_parallel7metrics9collector5testss_30test_system_metrics_collection0B9_
FNDA:1,_RNCNvNtNtNtCsbBf3qmLqCJ0_16wezterm_parallel7metrics9collector5testss_31test_metrics_collector_creation0B9_
FNF:26
FNH:15
DA:42,3
DA:43,3
DA:44,3
DA:46,3
DA:48,3
DA:49,3
DA:50,3
DA:51,3
DA:52,3
DA:53,3
DA:54,3
DA:55,3
DA:56,3
DA:59,1
DA:60,1
DA:61,0
DA:64,1
DA:65,1
DA:66,1
DA:69,1
DA:70,1
DA:71,1
DA:72,1
DA:75,1
DA:76,1
DA:77,0
DA:78,1
DA:80,1
DA:83,1
DA:86,1
DA:89,1
DA:90,1
DA:91,1
DA:92,1
DA:94,0
DA:98,1
DA:101,1
DA:104,1
DA:107,1
DA:109,1
DA:110,1
DA:111,1
DA:112,1
DA:113,1
DA:114,1
DA:115,1
DA:116,1
DA:117,1
DA:118,1
DA:119,1
DA:120,1
DA:121,1
DA:122,1
DA:125,0
DA:126,0
DA:127,0
DA:128,0
DA:130,0
DA:131,0
DA:132,0
DA:135,0
DA:138,0
DA:140,0
DA:141,0
DA:142,0
DA:143,0
DA:144,0
DA:149,0
DA:150,0
DA:153,0
DA:154,0
DA:155,0
DA:156,0
DA:157,0
DA:158,0
DA:159,0
DA:160,0
DA:161,0
DA:164,0
DA:165,0
DA:166,0
DA:167,0
DA:169,0
DA:173,0
DA:174,0
DA:175,0
DA:176,0
DA:177,0
DA:180,0
DA:181,0
DA:184,0
DA:187,0
DA:190,0
DA:192,0
DA:193,0
DA:194,0
DA:195,0
DA:196,0
DA:197,0
DA:198,0
DA:199,0
DA:200,0
DA:201,0
DA:202,0
DA:203,0
DA:204,0
DA:205,0
DA:206,0
DA:207,0
DA:208,0
DA:211,1
DA:212,1
DA:213,1
DA:215,2
DA:216,2
DA:217,2
DA:218,2
DA:220,1
DA:221,1
DA:223,0
DA:226,1
DA:227,1
DA:230,1
DA:233,1
DA:234,1
DA:241,1
DA:244,1
DA:245,1
DA:246,0
DA:247,1
DA:249,1
DA:250,1
DA:251,1
DA:252,1
DA:255,18
DA:256,18
DA:257,18
DA:258,18
DA:259,18
DA:260,18
DA:263,1
DA:264,0
DA:265,0
DA:266,0
DA:268,0
DA:270,1
DA:273,1
DA:274,1
DA:275,1
DA:276,1
DA:277,1
DA:278,1
DA:279,1
DA:280,1
DA:283,1
DA:285,1
DA:286,1
DA:289,0
DA:294,0
DA:295,0
DA:296,0
DA:304,0
DA:307,0
DA:308,0
DA:309,0
DA:310,0
DA:311,0
DA:312,0
DA:314,0
DA:315,0
DA:316,0
DA:317,0
DA:318,0
DA:319,0
DA:321,0
DA:324,0
DA:325,0
DA:326,0
DA:327,0
DA:329,0
DA:331,0
DA:334,0
DA:337,0
DA:338,0
DA:340,0
DA:342,0
DA:345,0
DA:348,0
DA:349,0
DA:352,0
DA:353,0
DA:354,0
DA:357,1
DA:358,1
DA:359,1
DA:360,1
DA:361,1
DA:362,1
DA:365,0
DA:366,0
DA:369,0
DA:370,0
DA:371,0
DA:373,0
DA:374,0
DA:377,0
DA:378,0
DA:379,0
DA:380,0
DA:381,0
DA:382,0
DA:383,0
DA:384,0
DA:401,1
DA:402,1
DA:403,1
DA:405,1
DA:409,1
DA:410,1
DA:413,1
DA:414,1
DA:415,1
DA:417,1
DA:418,1
DA:419,1
DA:420,1
DA:421,1
DA:422,1
DA:424,1
DA:425,1
DA:426,1
DA:428,1
DA:429,1
DA:430,1
DA:433,1
DA:434,1
DA:435,1
DA:437,1
DA:439,1
DA:440,1
DA:441,1
DA:442,1
DA:443,1
BRF:0
BRH:0
LF:252
LH:134
end_of_record
SF:/Users/aiq/work/wezterm-parallel/src/metrics/mod.rs
FN:325,_RNCNvMs0_NtCsezqlaDlZ1Zy_16wezterm_parallel7metricsNtB7_13SystemMetrics17current_timestamp0B9_
FN:369,_RNCNvMs2_NtCsezqlaDlZ1Zy_16wezterm_parallel7metricsNtB7_14ProcessMetrics10is_healthy0B9_
FN:322,_RNvMs0_NtCsezqlaDlZ1Zy_16wezterm_parallel7metricsNtB5_13SystemMetrics17current_timestamp
FN:305,_RNvMs0_NtCsezqlaDlZ1Zy_16wezterm_parallel7metricsNtB5_13SystemMetrics3new
FN:365,_RNvMs2_NtCsezqlaDlZ1Zy_16wezterm_parallel7metricsNtB5_14ProcessMetrics10is_healthy
FN:373,_RNvMs2_NtCsezqlaDlZ1Zy_16wezterm_parallel7metricsNtB5_14ProcessMetrics12health_score
FN:345,_RNvMs2_NtCsezqlaDlZ1Zy_16wezterm_parallel7metricsNtB5_14ProcessMetrics3new
FN:432,_RNvMs3_NtCsezqlaDlZ1Zy_16wezterm_parallel7metricsNtB5_16WorkspaceMetrics21update_from_processes
FN:416,_RNvMs3_NtCsezqlaDlZ1Zy_16wezterm_parallel7metricsNtB5_16WorkspaceMetrics3new
FN:506,_RNvMs5_NtCsezqlaDlZ1Zy_16wezterm_parallel7metricsNtB5_16FrameworkMetrics22update_from_workspaces
FN:492,_RNvMs5_NtCsezqlaDlZ1Zy_16wezterm_parallel7metricsNtB5_16FrameworkMetrics3new
FN:283,_RNvXNtCsezqlaDlZ1Zy_16wezterm_parallel7metricsNtB2_13MetricsConfigNtNtCsd2KPTObkMr_4core7default7Default7default
FN:331,_RNvXs1_NtCsezqlaDlZ1Zy_16wezterm_parallel7metricsNtB5_14NetworkIoStatsNtNtCsd2KPTObkMr_4core7default7Default7default
FN:485,_RNvXs4_NtCsezqlaDlZ1Zy_16wezterm_parallel7metricsNtB5_16FrameworkMetricsNtNtCsd2KPTObkMr_4core7default7Default7default
FN:541,_RNvXs6_NtCsezqlaDlZ1Zy_16wezterm_parallel7metricsNtB5_18PerformanceSummaryNtNtCsd2KPTObkMr_4core7default7Default7default
FN:298,_RNvXs_NtCsezqlaDlZ1Zy_16wezterm_parallel7metricsNtB4_13SystemMetricsNtNtCsd2KPTObkMr_4core7default7Default7default
FN:322,_RNvMs0_NtCsbBf3qmLqCJ0_16wezterm_parallel7metricsNtB5_13SystemMetrics17current_timestamp
FN:305,_RNvMs0_NtCsbBf3qmLqCJ0_16wezterm_parallel7metricsNtB5_13SystemMetrics3new
FN:492,_RNvMs5_NtCsbBf3qmLqCJ0_16wezterm_parallel7metricsNtB5_16FrameworkMetrics3new
FN:283,_RNvXNtCsbBf3qmLqCJ0_16wezterm_parallel7metricsNtB2_13MetricsConfigNtNtCsd2KPTObkMr_4core7default7Default7default
FN:331,_RNvXs1_NtCsbBf3qmLqCJ0_16wezterm_parallel7metricsNtB5_14NetworkIoStatsNtNtCsd2KPTObkMr_4core7default7Default7default
FN:541,_RNvXs6_NtCsbBf3qmLqCJ0_16wezterm_parallel7metricsNtB5_18PerformanceSummaryNtNtCsd2KPTObkMr_4core7default7Default7default
FN:369,_RNCNvMs2_NtCsbBf3qmLqCJ0_16wezterm_parallel7metricsNtB7_14ProcessMetrics10is_healthy0B9_
FN:365,_RNvMs2_NtCsbBf3qmLqCJ0_16wezterm_parallel7metricsNtB5_14ProcessMetrics10is_healthy
FN:373,_RNvMs2_NtCsbBf3qmLqCJ0_16wezterm_parallel7metricsNtB5_14ProcessMetrics12health_score
FN:345,_RNvMs2_NtCsbBf3qmLqCJ0_16wezterm_parallel7metricsNtB5_14ProcessMetrics3new
FN:432,_RNvMs3_NtCsbBf3qmLqCJ0_16wezterm_parallel7metricsNtB5_16WorkspaceMetrics21update_from_processes
FN:416,_RNvMs3_NtCsbBf3qmLqCJ0_16wezterm_parallel7metricsNtB5_16WorkspaceMetrics3new
FN:506,_RNvMs5_NtCsbBf3qmLqCJ0_16wezterm_parallel7metricsNtB5_16FrameworkMetrics22update_from_workspaces
FN:485,_RNvXs4_NtCsbBf3qmLqCJ0_16wezterm_parallel7metricsNtB5_16FrameworkMetricsNtNtCsd2KPTObkMr_4core7default7Default7default
FN:298,_RNvXs_NtCsbBf3qmLqCJ0_16wezterm_parallel7metricsNtB4_13SystemMetricsNtNtCsd2KPTObkMr_4core7default7Default7default
FN:325,_RNCNvMs0_NtCsbBf3qmLqCJ0_16wezterm_parallel7metricsNtB7_13SystemMetrics17current_timestamp0B9_
FNDA:7,_RNCNvMs0_NtCsezqlaDlZ1Zy_16wezterm_parallel7metricsNtB7_13SystemMetrics17current_timestamp0B9_
FNDA:0,_RNCNvMs2_NtCsezqlaDlZ1Zy_16wezterm_parallel7metricsNtB7_14ProcessMetrics10is_healthy0B9_
FNDA:7,_RNvMs0_NtCsezqlaDlZ1Zy_16wezterm_parallel7metricsNtB5_13SystemMetrics17current_timestamp
FNDA:4,_RNvMs0_NtCsezqlaDlZ1Zy_16wezterm_parallel7metricsNtB5_13SystemMetrics3new
FNDA:0,_RNvMs2_NtCsezqlaDlZ1Zy_16wezterm_parallel7metricsNtB5_14ProcessMetrics10is_healthy
FNDA:0,_RNvMs2_NtCsezqlaDlZ1Zy_16wezterm_parallel7metricsNtB5_14ProcessMetrics12health_score
FNDA:0,_RNvMs2_NtCsezqlaDlZ1Zy_16wezterm_parallel7metricsNtB5_14ProcessMetrics3new
FNDA:0,_RNvMs3_NtCsezqlaDlZ1Zy_16wezterm_parallel7metricsNtB5_16WorkspaceMetrics21update_from_processes
FNDA:0,_RNvMs3_NtCsezqlaDlZ1Zy_16wezterm_parallel7metricsNtB5_16WorkspaceMetrics3new
FNDA:0,_RNvMs5_NtCsezqlaDlZ1Zy_16wezterm_parallel7metricsNtB5_16FrameworkMetrics22update_from_workspaces
FNDA:3,_RNvMs5_NtCsezqlaDlZ1Zy_16wezterm_parallel7metricsNtB5_16FrameworkMetrics3new
FNDA:0,_RNvXNtCsezqlaDlZ1Zy_16wezterm_parallel7metricsNtB2_13MetricsConfigNtNtCsd2KPTObkMr_4core7default7Default7default
FNDA:4,_RNvXs1_NtCsezqlaDlZ1Zy_16wezterm_parallel7metricsNtB5_14NetworkIoStatsNtNtCsd2KPTObkMr_4core7default7Default7default
FNDA:0,_RNvXs4_NtCsezqlaDlZ1Zy_16wezterm_parallel7metricsNtB5_16FrameworkMetricsNtNtCsd2KPTObkMr_4core7default7Default7default
FNDA:3,_RNvXs6_NtCsezqlaDlZ1Zy_16wezterm_parallel7metricsNtB5_18PerformanceSummaryNtNtCsd2KPTObkMr_4core7default7Default7default
FNDA:0,_RNvXs_NtCsezqlaDlZ1Zy_16wezterm_parallel7metricsNtB4_13SystemMetricsNtNtCsd2KPTObkMr_4core7default7Default7default
FNDA:1517,_RNvMs0_NtCsbBf3qmLqCJ0_16wezterm_parallel7metricsNtB5_13SystemMetrics17current_timestamp
FNDA:1509,_RNvMs0_NtCsbBf3qmLqCJ0_16wezterm_parallel7metricsNtB5_13SystemMetrics3new
FNDA:6,_RNvMs5_NtCsbBf3qmLqCJ0_16wezterm_parallel7metricsNtB5_16FrameworkMetrics3new
FNDA:5,_RNvXNtCsbBf3qmLqCJ0_16wezterm_parallel7metricsNtB2_13MetricsConfigNtNtCsd2KPTObkMr_4core7default7Default7default
FNDA:1509,_RNvXs1_NtCsbBf3qmLqCJ0_16wezterm_parallel7metricsNtB5_14NetworkIoStatsNtNtCsd2KPTObkMr_4core7default7Default7default
FNDA:6,_RNvXs6_NtCsbBf3qmLqCJ0_16wezterm_parallel7metricsNtB5_18PerformanceSummaryNtNtCsd2KPTObkMr_4core7default7Default7default
FNDA:0,_RNCNvMs2_NtCsbBf3qmLqCJ0_16wezterm_parallel7metricsNtB7_14ProcessMetrics10is_healthy0B9_
FNDA:0,_RNvMs2_NtCsbBf3qmLqCJ0_16wezterm_parallel7metricsNtB5_14ProcessMetrics10is_healthy
FNDA:0,_RNvMs2_NtCsbBf3qmLqCJ0_16wezterm_parallel7metricsNtB5_14ProcessMetrics12health_score
FNDA:0,_RNvMs2_NtCsbBf3qmLqCJ0_16wezterm_parallel7metricsNtB5_14ProcessMetrics3new
FNDA:0,_RNvMs3_NtCsbBf3qmLqCJ0_16wezterm_parallel7metricsNtB5_16WorkspaceMetrics21update_from_processes
FNDA:0,_RNvMs3_NtCsbBf3qmLqCJ0_16wezterm_parallel7metricsNtB5_16WorkspaceMetrics3new
FNDA:0,_RNvMs5_NtCsbBf3qmLqCJ0_16wezterm_parallel7metricsNtB5_16FrameworkMetrics22update_from_workspaces
FNDA:0,_RNvXs4_NtCsbBf3qmLqCJ0_16wezterm_parallel7metricsNtB5_16FrameworkMetricsNtNtCsd2KPTObkMr_4core7default7Default7default
FNDA:0,_RNvXs_NtCsbBf3qmLqCJ0_16wezterm_parallel7metricsNtB4_13SystemMetricsNtNtCsd2KPTObkMr_4core7default7Default7default
FNDA:1517,_RNCNvMs0_NtCsbBf3qmLqCJ0_16wezterm_parallel7metricsNtB7_13SystemMetrics17current_timestamp0B9_
FNF:16
FNH:7
DA:283,5
DA:284,5
DA:285,5
DA:286,5
DA:287,5
DA:288,5
DA:289,5
DA:290,5
DA:291,5
DA:292,5
DA:293,5
DA:294,5
DA:298,0
DA:299,0
DA:300,0
DA:305,1513
DA:306,1513
DA:307,1513
DA:308,1513
DA:309,1513
DA:310,1513
DA:311,1513
DA:312,1513
DA:313,1513
DA:314,1513
DA:315,1513
DA:316,1513
DA:317,1513
DA:318,1513
DA:319,1513
DA:322,1524
DA:323,1524
DA:324,1524
DA:325,1524
DA:326,1524
DA:327,1524
DA:331,1513
DA:332,1513
DA:333,1513
DA:334,1513
DA:335,1513
DA:336,1513
DA:337,1513
DA:338,1513
DA:339,1513
DA:340,1513
DA:345,0
DA:346,0
DA:347,0
DA:348,0
DA:349,0
DA:350,0
DA:351,0
DA:352,0
DA:353,0
DA:354,0
DA:355,0
DA:356,0
DA:357,0
DA:358,0
DA:359,0
DA:360,0
DA:361,0
DA:362,0
DA:365,0
DA:366,0
DA:367,0
DA:368,0
DA:369,0
DA:370,0
DA:373,0
DA:374,0
DA:377,0
DA:378,0
DA:379,0
DA:380,0
DA:381,0
DA:382,0
DA:383,0
DA:384,0
DA:385,0
DA:389,0
DA:390,0
DA:391,0
DA:393,0
DA:394,0
DA:395,0
DA:398,0
DA:399,0
DA:400,0
DA:401,0
DA:402,0
DA:403,0
DA:406,0
DA:407,0
DA:408,0
DA:410,0
DA:411,0
DA:416,0
DA:417,0
DA:418,0
DA:419,0
DA:420,0
DA:421,0
DA:422,0
DA:423,0
DA:424,0
DA:425,0
DA:426,0
DA:427,0
DA:428,0
DA:429,0
DA:432,0
DA:433,0
DA:434,0
DA:435,0
DA:436,0
DA:437,0
DA:438,0
DA:440,0
DA:441,0
DA:442,0
DA:444,0
DA:446,0
DA:447,0
DA:448,0
DA:449,0
DA:450,0
DA:451,0
DA:452,0
DA:453,0
DA:457,0
DA:458,0
DA:461,0
DA:462,0
DA:465,0
DA:469,0
DA:470,0
DA:473,0
DA:474,0
DA:476,0
DA:478,0
DA:480,0
DA:481,0
DA:485,0
DA:486,0
DA:487,0
DA:492,9
DA:493,9
DA:494,9
DA:495,9
DA:496,9
DA:497,9
DA:498,9
DA:499,9
DA:500,9
DA:501,9
DA:502,9
DA:503,9
DA:506,0
DA:507,0
DA:508,0
DA:509,0
DA:511,0
DA:513,0
DA:514,0
DA:515,0
DA:516,0
DA:517,0
DA:518,0
DA:521,0
DA:522,0
DA:523,0
DA:524,0
DA:525,0
DA:527,0
DA:528,0
DA:529,0
DA:530,0
DA:531,0
DA:532,0
DA:534,0
DA:537,0
DA:541,9
DA:542,9
DA:543,9
DA:544,9
DA:545,9
DA:546,9
DA:547,9
DA:548,9
DA:549,9
DA:550,9
DA:551,9
BRF:0
BRH:0
LF:196
LH:67
end_of_record
SF:/Users/aiq/work/wezterm-parallel/src/metrics/storage.rs
FN:336,_RINvMNtNtCsezqlaDlZ1Zy_16wezterm_parallel7metrics7storageNtB3_14MetricsStorage14append_to_filepEB7_
FN:378,_RINvMNtNtCsezqlaDlZ1Zy_16wezterm_parallel7metrics7storageNtB3_14MetricsStorage20append_batch_to_filepEB7_
FN:340,_RNCINvMNtNtCsezqlaDlZ1Zy_16wezterm_parallel7metrics7storageNtB5_14MetricsStorage14append_to_filepE0B9_
FN:382,_RNCINvMNtNtCsezqlaDlZ1Zy_16wezterm_parallel7metrics7storageNtB5_14MetricsStorage20append_batch_to_filepE0B9_
FN:345,_RNCNCINvMNtNtCsezqlaDlZ1Zy_16wezterm_parallel7metrics7storageNtB7_14MetricsStorage14append_to_filepE00Bb_
FN:358,_RNCNCINvMNtNtCsezqlaDlZ1Zy_16wezterm_parallel7metrics7storageNtB7_14MetricsStorage14append_to_filepE0s0_0Bb_
FN:362,_RNCNCINvMNtNtCsezqlaDlZ1Zy_16wezterm_parallel7metrics7storageNtB7_14MetricsStorage14append_to_filepE0s1_0Bb_
FN:368,_RNCNCINvMNtNtCsezqlaDlZ1Zy_16wezterm_parallel7metrics7storageNtB7_14MetricsStorage14append_to_filepE0s2_0Bb_
FN:350,_RNCNCINvMNtNtCsezqlaDlZ1Zy_16wezterm_parallel7metrics7storageNtB7_14MetricsStorage14append_to_filepE0s_0Bb_
FN:387,_RNCNCINvMNtNtCsezqlaDlZ1Zy_16wezterm_parallel7metrics7storageNtB7_14MetricsStorage20append_batch_to_filepE00Bb_
FN:405,_RNCNCINvMNtNtCsezqlaDlZ1Zy_16wezterm_parallel7metrics7storageNtB7_14MetricsStorage20append_batch_to_filepE0s0_0Bb_
FN:409,_RNCNCINvMNtNtCsezqlaDlZ1Zy_16wezterm_parallel7metrics7storageNtB7_14MetricsStorage20append_batch_to_filepE0s1_0Bb_
FN:394,_RNCNCINvMNtNtCsezqlaDlZ1Zy_16wezterm_parallel7metrics7storageNtB7_14MetricsStorage20append_batch_to_filepE0s_0Bb_
FN:261,_RNCNCNCNvMNtNtCsezqlaDlZ1Zy_16wezterm_parallel7metrics7storageNtB8_14MetricsStorage18load_metrics_range000Bc_
FN:444,_RNCNCNvMNtNtCsezqlaDlZ1Zy_16wezterm_parallel7metrics7storageNtB6_14MetricsStorage11rotate_file00Ba_
FN:290,_RNCNCNvMNtNtCsezqlaDlZ1Zy_16wezterm_parallel7metrics7storageNtB6_14MetricsStorage17cleanup_old_files00Ba_
FN:298,_RNCNCNvMNtNtCsezqlaDlZ1Zy_16wezterm_parallel7metrics7storageNtB6_14MetricsStorage17cleanup_old_files0s0_0Ba_
FN:302,_RNCNCNvMNtNtCsezqlaDlZ1Zy_16wezterm_parallel7metrics7storageNtB6_14MetricsStorage17cleanup_old_files0s1_0Ba_
FN:295,_RNCNCNvMNtNtCsezqlaDlZ1Zy_16wezterm_parallel7metrics7storageNtB6_14MetricsStorage17cleanup_old_files0s_0Ba_
FN:493,_RNCNCNvMNtNtCsezqlaDlZ1Zy_16wezterm_parallel7metrics7storageNtB6_14MetricsStorage17get_storage_stats00Ba_
FN:503,_RNCNCNvMNtNtCsezqlaDlZ1Zy_16wezterm_parallel7metrics7storageNtB6_14MetricsStorage17get_storage_stats0s0_0Ba_
FN:498,_RNCNCNvMNtNtCsezqlaDlZ1Zy_16wezterm_parallel7metrics7storageNtB6_14MetricsStorage17get_storage_stats0s_0Ba_
FN:260,_RNCNCNvMNtNtCsezqlaDlZ1Zy_16wezterm_parallel7metrics7storageNtB6_14MetricsStorage18load_metrics_range00Ba_
FN:540,_RNCNCNvMNtNtCsezqlaDlZ1Zy_16wezterm_parallel7metrics7storageNtB6_14MetricsStorage19estimate_cache_size00Ba_
FN:545,_RNCNCNvMNtNtCsezqlaDlZ1Zy_16wezterm_parallel7metrics7storageNtB6_14MetricsStorage19estimate_cache_size0s_0Ba_
FN:51,_RNCNCNvMNtNtCsezqlaDlZ1Zy_16wezterm_parallel7metrics7storageNtB6_14MetricsStorage3new00Ba_
FN:418,_RNCNCNvMNtNtCsezqlaDlZ1Zy_16wezterm_parallel7metrics7storageNtB6_14MetricsStorage9load_file00Ba_
FN:423,_RNCNCNvMNtNtCsezqlaDlZ1Zy_16wezterm_parallel7metrics7storageNtB6_14MetricsStorage9load_file0s_0Ba_
FN:439,_RNCNvMNtNtCsezqlaDlZ1Zy_16wezterm_parallel7metrics7storageNtB4_14MetricsStorage11rotate_file0B8_
FN:279,_RNCNvMNtNtCsezqlaDlZ1Zy_16wezterm_parallel7metrics7storageNtB4_14MetricsStorage17cleanup_old_files0B8_
FN:480,_RNCNvMNtNtCsezqlaDlZ1Zy_16wezterm_parallel7metrics7storageNtB4_14MetricsStorage17get_storage_stats0B8_
FN:243,_RNCNvMNtNtCsezqlaDlZ1Zy_16wezterm_parallel7metrics7storageNtB4_14MetricsStorage18load_metrics_range0B8_
FN:533,_RNCNvMNtNtCsezqlaDlZ1Zy_16wezterm_parallel7metrics7storageNtB4_14MetricsStorage19estimate_cache_size0B8_
FN:456,_RNCNvMNtNtCsezqlaDlZ1Zy_16wezterm_parallel7metrics7storageNtB4_14MetricsStorage19load_recent_metrics0B8_
FN:67,_RNCNvMNtNtCsezqlaDlZ1Zy_16wezterm_parallel7metrics7storageNtB4_14MetricsStorage19save_system_metrics0B8_
FN:89,_RNCNvMNtNtCsezqlaDlZ1Zy_16wezterm_parallel7metrics7storageNtB4_14MetricsStorage20save_process_metrics0B8_
FN:154,_RNCNvMNtNtCsezqlaDlZ1Zy_16wezterm_parallel7metrics7storageNtB4_14MetricsStorage22save_framework_metrics0B8_
FN:128,_RNCNvMNtNtCsezqlaDlZ1Zy_16wezterm_parallel7metrics7storageNtB4_14MetricsStorage22save_workspace_metrics0B8_
FN:176,_RNCNvMNtNtCsezqlaDlZ1Zy_16wezterm_parallel7metrics7storageNtB4_14MetricsStorage25get_recent_system_metrics0B8_
FN:192,_RNCNvMNtNtCsezqlaDlZ1Zy_16wezterm_parallel7metrics7storageNtB4_14MetricsStorage26get_recent_process_metrics0B8_
FN:226,_RNCNvMNtNtCsezqlaDlZ1Zy_16wezterm_parallel7metrics7storageNtB4_14MetricsStorage28get_recent_framework_metrics0B8_
FN:211,_RNCNvMNtNtCsezqlaDlZ1Zy_16wezterm_parallel7metrics7storageNtB4_14MetricsStorage28get_recent_workspace_metrics0B8_
FN:47,_RNCNvMNtNtCsezqlaDlZ1Zy_16wezterm_parallel7metrics7storageNtB4_14MetricsStorage3new0B8_
FN:415,_RNCNvMNtNtCsezqlaDlZ1Zy_16wezterm_parallel7metrics7storageNtB4_14MetricsStorage9load_file0B8_
FN:603,_RNCNvNtNtNtCsbBf3qmLqCJ0_16wezterm_parallel7metrics7storage5testss_19test_cache_trimming0B9_
FN:587,_RNCNvNtNtNtCsbBf3qmLqCJ0_16wezterm_parallel7metrics7storage5testss_20test_metrics_storage0B9_
FN:378,_RINvMNtNtCsbBf3qmLqCJ0_16wezterm_parallel7metrics7storageNtB3_14MetricsStorage20append_batch_to_filepEB7_
FN:382,_RNCINvMNtNtCsbBf3qmLqCJ0_16wezterm_parallel7metrics7storageNtB5_14MetricsStorage20append_batch_to_filepE0B9_
FN:387,_RNCNCINvMNtNtCsbBf3qmLqCJ0_16wezterm_parallel7metrics7storageNtB7_14MetricsStorage20append_batch_to_filepE00Bb_
FN:405,_RNCNCINvMNtNtCsbBf3qmLqCJ0_16wezterm_parallel7metrics7storageNtB7_14MetricsStorage20append_batch_to_filepE0s0_0Bb_
FN:409,_RNCNCINvMNtNtCsbBf3qmLqCJ0_16wezterm_parallel7metrics7storageNtB7_14MetricsStorage20append_batch_to_filepE0s1_0Bb_
FN:394,_RNCNCINvMNtNtCsbBf3qmLqCJ0_16wezterm_parallel7metrics7storageNtB7_14MetricsStorage20append_batch_to_filepE0s_0Bb_
FN:290,_RNCNCNvMNtNtCsbBf3qmLqCJ0_16wezterm_parallel7metrics7storageNtB6_14MetricsStorage17cleanup_old_files00Ba_
FN:298,_RNCNCNvMNtNtCsbBf3qmLqCJ0_16wezterm_parallel7metrics7storageNtB6_14MetricsStorage17cleanup_old_files0s0_0Ba_
FN:302,_RNCNCNvMNtNtCsbBf3qmLqCJ0_16wezterm_parallel7metrics7storageNtB6_14MetricsStorage17cleanup_old_files0s1_0Ba_
FN:295,_RNCNCNvMNtNtCsbBf3qmLqCJ0_16wezterm_parallel7metrics7storageNtB6_14MetricsStorage17cleanup_old_files0s_0Ba_
FN:493,_RNCNCNvMNtNtCsbBf3qmLqCJ0_16wezterm_parallel7metrics7storageNtB6_14MetricsStorage17get_storage_stats00Ba_
FN:503,_RNCNCNvMNtNtCsbBf3qmLqCJ0_16wezterm_parallel7metrics7storageNtB6_14MetricsStorage17get_storage_stats0s0_0Ba_
FN:498,_RNCNCNvMNtNtCsbBf3qmLqCJ0_16wezterm_parallel7metrics7storageNtB6_14MetricsStorage17get_storage_stats0s_0Ba_
FN:540,_RNCNCNvMNtNtCsbBf3qmLqCJ0_16wezterm_parallel7metrics7storageNtB6_14MetricsStorage19estimate_cache_size00Ba_
FN:545,_RNCNCNvMNtNtCsbBf3qmLqCJ0_16wezterm_parallel7metrics7storageNtB6_14MetricsStorage19estimate_cache_size0s_0Ba_
FN:279,_RNCNvMNtNtCsbBf3qmLqCJ0_16wezterm_parallel7metrics7storageNtB4_14MetricsStorage17cleanup_old_files0B8_
FN:480,_RNCNvMNtNtCsbBf3qmLqCJ0_16wezterm_parallel7metrics7storageNtB4_14MetricsStorage17get_storage_stats0B8_
FN:533,_RNCNvMNtNtCsbBf3qmLqCJ0_16wezterm_parallel7metrics7storageNtB4_14MetricsStorage19estimate_cache_size0B8_
FN:89,_RNCNvMNtNtCsbBf3qmLqCJ0_16wezterm_parallel7metrics7storageNtB4_14MetricsStorage20save_process_metrics0B8_
FN:154,_RNCNvMNtNtCsbBf3qmLqCJ0_16wezterm_parallel7metrics7storageNtB4_14MetricsStorage22save_framework_metrics0B8_
FN:128,_RNCNvMNtNtCsbBf3qmLqCJ0_16wezterm_parallel7metrics7storageNtB4_14MetricsStorage22save_workspace_metrics0B8_
FN:192,_RNCNvMNtNtCsbBf3qmLqCJ0_16wezterm_parallel7metrics7storageNtB4_14MetricsStorage26get_recent_process_metrics0B8_
FN:226,_RNCNvMNtNtCsbBf3qmLqCJ0_16wezterm_parallel7metrics7storageNtB4_14MetricsStorage28get_recent_framework_metrics0B8_
FN:211,_RNCNvMNtNtCsbBf3qmLqCJ0_16wezterm_parallel7metrics7storageNtB4_14MetricsStorage28get_recent_workspace_metrics0B8_
FN:279,_RNvMNtNtCsbBf3qmLqCJ0_16wezterm_parallel7metrics7storageNtB2_14MetricsStorage17cleanup_old_files
FN:480,_RNvMNtNtCsbBf3qmLqCJ0_16wezterm_parallel7metrics7storageNtB2_14MetricsStorage17get_storage_stats
FN:533,_RNvMNtNtCsbBf3qmLqCJ0_16wezterm_parallel7metrics7storageNtB2_14MetricsStorage19estimate_cache_size
FN:89,_RNvMNtNtCsbBf3qmLqCJ0_16wezterm_parallel7metrics7storageNtB2_14MetricsStorage20save_process_metrics
FN:154,_RNvMNtNtCsbBf3qmLqCJ0_16wezterm_parallel7metrics7storageNtB2_14MetricsStorage22save_framework_metrics
FN:128,_RNvMNtNtCsbBf3qmLqCJ0_16wezterm_parallel7metrics7storageNtB2_14MetricsStorage22save_workspace_metrics
FN:188,_RNvMNtNtCsbBf3qmLqCJ0_16wezterm_parallel7metrics7storageNtB2_14MetricsStorage26get_recent_process_metrics
FN:226,_RNvMNtNtCsbBf3qmLqCJ0_16wezterm_parallel7metrics7storageNtB2_14MetricsStorage28get_recent_framework_metrics
FN:207,_RNvMNtNtCsbBf3qmLqCJ0_16wezterm_parallel7metrics7storageNtB2_14MetricsStorage28get_recent_workspace_metrics
FN:336,_RINvMNtNtCsbBf3qmLqCJ0_16wezterm_parallel7metrics7storageNtB3_14MetricsStorage14append_to_fileNtB5_13SystemMetricsEB7_
FN:340,_RNCINvMNtNtCsbBf3qmLqCJ0_16wezterm_parallel7metrics7storageNtB5_14MetricsStorage14append_to_fileNtB7_13SystemMetricsE0B9_
FN:345,_RNCNCINvMNtNtCsbBf3qmLqCJ0_16wezterm_parallel7metrics7storageNtB7_14MetricsStorage14append_to_fileNtB9_13SystemMetricsE00Bb_
FN:358,_RNCNCINvMNtNtCsbBf3qmLqCJ0_16wezterm_parallel7metrics7storageNtB7_14MetricsStorage14append_to_fileNtB9_13SystemMetricsE0s0_0Bb_
FN:362,_RNCNCINvMNtNtCsbBf3qmLqCJ0_16wezterm_parallel7metrics7storageNtB7_14MetricsStorage14append_to_fileNtB9_13SystemMetricsE0s1_0Bb_
FN:368,_RNCNCINvMNtNtCsbBf3qmLqCJ0_16wezterm_parallel7metrics7storageNtB7_14MetricsStorage14append_to_fileNtB9_13SystemMetricsE0s2_0Bb_
FN:350,_RNCNCINvMNtNtCsbBf3qmLqCJ0_16wezterm_parallel7metrics7storageNtB7_14MetricsStorage14append_to_fileNtB9_13SystemMetricsE0s_0Bb_
FN:261,_RNCNCNCNvMNtNtCsbBf3qmLqCJ0_16wezterm_parallel7metrics7storageNtB8_14MetricsStorage18load_metrics_range000Bc_
FN:444,_RNCNCNvMNtNtCsbBf3qmLqCJ0_16wezterm_parallel7metrics7storageNtB6_14MetricsStorage11rotate_file00Ba_
FN:260,_RNCNCNvMNtNtCsbBf3qmLqCJ0_16wezterm_parallel7metrics7storageNtB6_14MetricsStorage18load_metrics_range00Ba_
FN:51,_RNCNCNvMNtNtCsbBf3qmLqCJ0_16wezterm_parallel7metrics7storageNtB6_14MetricsStorage3new00Ba_
FN:418,_RNCNCNvMNtNtCsbBf3qmLqCJ0_16wezterm_parallel7metrics7storageNtB6_14MetricsStorage9load_file00Ba_
FN:423,_RNCNCNvMNtNtCsbBf3qmLqCJ0_16wezterm_parallel7metrics7storageNtB6_14MetricsStorage9load_file0s_0Ba_
FN:439,_RNCNvMNtNtCsbBf3qmLqCJ0_16wezterm_parallel7metrics7storageNtB4_14MetricsStorage11rotate_file0B8_
FN:243,_RNCNvMNtNtCsbBf3qmLqCJ0_16wezterm_parallel7metrics7storageNtB4_14MetricsStorage18load_metrics_range0B8_
FN:456,_RNCNvMNtNtCsbBf3qmLqCJ0_16wezterm_parallel7metrics7storageNtB4_14MetricsStorage19load_recent_metrics0B8_
FN:67,_RNCNvMNtNtCsbBf3qmLqCJ0_16wezterm_parallel7metrics7storageNtB4_14MetricsStorage19save_system_metrics0B8_
FN:176,_RNCNvMNtNtCsbBf3qmLqCJ0_16wezterm_parallel7metrics7storageNtB4_14MetricsStorage25get_recent_system_metrics0B8_
FN:47,_RNCNvMNtNtCsbBf3qmLqCJ0_16wezterm_parallel7metrics7storageNtB4_14MetricsStorage3new0B8_
FN:415,_RNCNvMNtNtCsbBf3qmLqCJ0_16wezterm_parallel7metrics7storageNtB4_14MetricsStorage9load_file0B8_
FN:439,_RNvMNtNtCsbBf3qmLqCJ0_16wezterm_parallel7metrics7storageNtB2_14MetricsStorage11rotate_file
FN:238,_RNvMNtNtCsbBf3qmLqCJ0_16wezterm_parallel7metrics7storageNtB2_14MetricsStorage18load_metrics_range
FN:456,_RNvMNtNtCsbBf3qmLqCJ0_16wezterm_parallel7metrics7storageNtB2_14MetricsStorage19load_recent_metrics
FN:67,_RNvMNtNtCsbBf3qmLqCJ0_16wezterm_parallel7metrics7storageNtB2_14MetricsStorage19save_system_metrics
FN:326,_RNvMNtNtCsbBf3qmLqCJ0_16wezterm_parallel7metrics7storageNtB2_14MetricsStorage21get_metrics_file_path
FN:176,_RNvMNtNtCsbBf3qmLqCJ0_16wezterm_parallel7metrics7storageNtB2_14MetricsStorage25get_recent_system_metrics
FN:47,_RNvMNtNtCsbBf3qmLqCJ0_16wezterm_parallel7metrics7storageNtB2_14MetricsStorage3new
FN:415,_RNvMNtNtCsbBf3qmLqCJ0_16wezterm_parallel7metrics7storageNtB2_14MetricsStorage9load_file
FN:555,_RNvMs_NtNtCsbBf3qmLqCJ0_16wezterm_parallel7metrics7storageNtB4_12MetricsCache3new
FN:603,_RNvNtNtNtCsbBf3qmLqCJ0_16wezterm_parallel7metrics7storage5testss_19test_cache_trimming
FN:587,_RNvNtNtNtCsbBf3qmLqCJ0_16wezterm_parallel7metrics7storage5testss_20test_metrics_storage
FNDA:0,_RINvMNtNtCsezqlaDlZ1Zy_16wezterm_parallel7metrics7storageNtB3_14MetricsStorage14append_to_filepEB7_
FNDA:0,_RINvMNtNtCsezqlaDlZ1Zy_16wezterm_parallel7metrics7storageNtB3_14MetricsStorage20append_batch_to_filepEB7_
FNDA:0,_RNCINvMNtNtCsezqlaDlZ1Zy_16wezterm_parallel7metrics7storageNtB5_14MetricsStorage14append_to_filepE0B9_
FNDA:0,_RNCINvMNtNtCsezqlaDlZ1Zy_16wezterm_parallel7metrics7storageNtB5_14MetricsStorage20append_batch_to_filepE0B9_
FNDA:0,_RNCNCINvMNtNtCsezqlaDlZ1Zy_16wezterm_parallel7metrics7storageNtB7_14MetricsStorage14append_to_filepE00Bb_
FNDA:0,_RNCNCINvMNtNtCsezqlaDlZ1Zy_16wezterm_parallel7metrics7storageNtB7_14MetricsStorage14append_to_filepE0s0_0Bb_
FNDA:0,_RNCNCINvMNtNtCsezqlaDlZ1Zy_16wezterm_parallel7metrics7storageNtB7_14MetricsStorage14append_to_filepE0s1_0Bb_
FNDA:0,_RNCNCINvMNtNtCsezqlaDlZ1Zy_16wezterm_parallel7metrics7storageNtB7_14MetricsStorage14append_to_filepE0s2_0Bb_
FNDA:0,_RNCNCINvMNtNtCsezqlaDlZ1Zy_16wezterm_parallel7metrics7storageNtB7_14MetricsStorage14append_to_filepE0s_0Bb_
FNDA:0,_RNCNCINvMNtNtCsezqlaDlZ1Zy_16wezterm_parallel7metrics7storageNtB7_14MetricsStorage20append_batch_to_filepE00Bb_
FNDA:0,_RNCNCINvMNtNtCsezqlaDlZ1Zy_16wezterm_parallel7metrics7storageNtB7_14MetricsStorage20append_batch_to_filepE0s0_0Bb_
FNDA:0,_RNCNCINvMNtNtCsezqlaDlZ1Zy_16wezterm_parallel7metrics7storageNtB7_14MetricsStorage20append_batch_to_filepE0s1_0Bb_
FNDA:0,_RNCNCINvMNtNtCsezqlaDlZ1Zy_16wezterm_parallel7metrics7storageNtB7_14MetricsStorage20append_batch_to_filepE0s_0Bb_
FNDA:0,_RNCNCNCNvMNtNtCsezqlaDlZ1Zy_16wezterm_parallel7metrics7storageNtB8_14MetricsStorage18load_metrics_range000Bc_
FNDA:0,_RNCNCNvMNtNtCsezqlaDlZ1Zy_16wezterm_parallel7metrics7storageNtB6_14MetricsStorage11rotate_file00Ba_
FNDA:0,_RNCNCNvMNtNtCsezqlaDlZ1Zy_16wezterm_parallel7metrics7storageNtB6_14MetricsStorage17cleanup_old_files00Ba_
FNDA:0,_RNCNCNvMNtNtCsezqlaDlZ1Zy_16wezterm_parallel7metrics7storageNtB6_14MetricsStorage17cleanup_old_files0s0_0Ba_
FNDA:0,_RNCNCNvMNtNtCsezqlaDlZ1Zy_16wezterm_parallel7metrics7storageNtB6_14MetricsStorage17cleanup_old_files0s1_0Ba_
FNDA:0,_RNCNCNvMNtNtCsezqlaDlZ1Zy_16wezterm_parallel7metrics7storageNtB6_14MetricsStorage17cleanup_old_files0s_0Ba_
FNDA:0,_RNCNCNvMNtNtCsezqlaDlZ1Zy_16wezterm_parallel7metrics7storageNtB6_14MetricsStorage17get_storage_stats00Ba_
FNDA:0,_RNCNCNvMNtNtCsezqlaDlZ1Zy_16wezterm_parallel7metrics7storageNtB6_14MetricsStorage17get_storage_stats0s0_0Ba_
FNDA:0,_RNCNCNvMNtNtCsezqlaDlZ1Zy_16wezterm_parallel7metrics7storageNtB6_14MetricsStorage17get_storage_stats0s_0Ba_
FNDA:0,_RNCNCNvMNtNtCsezqlaDlZ1Zy_16wezterm_parallel7metrics7storageNtB6_14MetricsStorage18load_metrics_range00Ba_
FNDA:0,_RNCNCNvMNtNtCsezqlaDlZ1Zy_16wezterm_parallel7metrics7storageNtB6_14MetricsStorage19estimate_cache_size00Ba_
FNDA:0,_RNCNCNvMNtNtCsezqlaDlZ1Zy_16wezterm_parallel7metrics7storageNtB6_14MetricsStorage19estimate_cache_size0s_0Ba_
FNDA:0,_RNCNCNvMNtNtCsezqlaDlZ1Zy_16wezterm_parallel7metrics7storageNtB6_14MetricsStorage3new00Ba_
FNDA:0,_RNCNCNvMNtNtCsezqlaDlZ1Zy_16wezterm_parallel7metrics7storageNtB6_14MetricsStorage9load_file00Ba_
FNDA:0,_RNCNCNvMNtNtCsezqlaDlZ1Zy_16wezterm_parallel7metrics7storageNtB6_14MetricsStorage9load_file0s_0Ba_
FNDA:0,_RNCNvMNtNtCsezqlaDlZ1Zy_16wezterm_parallel7metrics7storageNtB4_14MetricsStorage11rotate_file0B8_
FNDA:0,_RNCNvMNtNtCsezqlaDlZ1Zy_16wezterm_parallel7metrics7storageNtB4_14MetricsStorage17cleanup_old_files0B8_
FNDA:0,_RNCNvMNtNtCsezqlaDlZ1Zy_16wezterm_parallel7metrics7storageNtB4_14MetricsStorage17get_storage_stats0B8_
FNDA:0,_RNCNvMNtNtCsezqlaDlZ1Zy_16wezterm_parallel7metrics7storageNtB4_14MetricsStorage18load_metrics_range0B8_
FNDA:0,_RNCNvMNtNtCsezqlaDlZ1Zy_16wezterm_parallel7metrics7storageNtB4_14MetricsStorage19estimate_cache_size0B8_
FNDA:0,_RNCNvMNtNtCsezqlaDlZ1Zy_16wezterm_parallel7metrics7storageNtB4_14MetricsStorage19load_recent_metrics0B8_
FNDA:0,_RNCNvMNtNtCsezqlaDlZ1Zy_16wezterm_parallel7metrics7storageNtB4_14MetricsStorage19save_system_metrics0B8_
FNDA:0,_RNCNvMNtNtCsezqlaDlZ1Zy_16wezterm_parallel7metrics7storageNtB4_14MetricsStorage20save_process_metrics0B8_
FNDA:0,_RNCNvMNtNtCsezqlaDlZ1Zy_16wezterm_parallel7metrics7storageNtB4_14MetricsStorage22save_framework_metrics0B8_
FNDA:0,_RNCNvMNtNtCsezqlaDlZ1Zy_16wezterm_parallel7metrics7storageNtB4_14MetricsStorage22save_workspace_metrics0B8_
FNDA:0,_RNCNvMNtNtCsezqlaDlZ1Zy_16wezterm_parallel7metrics7storageNtB4_14MetricsStorage25get_recent_system_metrics0B8_
FNDA:0,_RNCNvMNtNtCsezqlaDlZ1Zy_16wezterm_parallel7metrics7storageNtB4_14MetricsStorage26get_recent_process_metrics0B8_
FNDA:0,_RNCNvMNtNtCsezqlaDlZ1Zy_16wezterm_parallel7metrics7storageNtB4_14MetricsStorage28get_recent_framework_metrics0B8_
FNDA:0,_RNCNvMNtNtCsezqlaDlZ1Zy_16wezterm_parallel7metrics7storageNtB4_14MetricsStorage28get_recent_workspace_metrics0B8_
FNDA:0,_RNCNvMNtNtCsezqlaDlZ1Zy_16wezterm_parallel7metrics7storageNtB4_14MetricsStorage3new0B8_
FNDA:0,_RNCNvMNtNtCsezqlaDlZ1Zy_16wezterm_parallel7metrics7storageNtB4_14MetricsStorage9load_file0B8_
FNDA:1,_RNCNvNtNtNtCsbBf3qmLqCJ0_16wezterm_parallel7metrics7storage5testss_19test_cache_trimming0B9_
FNDA:1,_RNCNvNtNtNtCsbBf3qmLqCJ0_16wezterm_parallel7metrics7storage5testss_20test_metrics_storage0B9_
FNDA:0,_RINvMNtNtCsbBf3qmLqCJ0_16wezterm_parallel7metrics7storageNtB3_14MetricsStorage20append_batch_to_filepEB7_
FNDA:0,_RNCINvMNtNtCsbBf3qmLqCJ0_16wezterm_parallel7metrics7storageNtB5_14MetricsStorage20append_batch_to_filepE0B9_
FNDA:0,_RNCNCINvMNtNtCsbBf3qmLqCJ0_16wezterm_parallel7metrics7storageNtB7_14MetricsStorage20append_batch_to_filepE00Bb_
FNDA:0,_RNCNCINvMNtNtCsbBf3qmLqCJ0_16wezterm_parallel7metrics7storageNtB7_14MetricsStorage20append_batch_to_filepE0s0_0Bb_
FNDA:0,_RNCNCINvMNtNtCsbBf3qmLqCJ0_16wezterm_parallel7metrics7storageNtB7_14MetricsStorage20append_batch_to_filepE0s1_0Bb_
FNDA:0,_RNCNCINvMNtNtCsbBf3qmLqCJ0_16wezterm_parallel7metrics7storageNtB7_14MetricsStorage20append_batch_to_filepE0s_0Bb_
FNDA:0,_RNCNCNvMNtNtCsbBf3qmLqCJ0_16wezterm_parallel7metrics7storageNtB6_14MetricsStorage17cleanup_old_files00Ba_
FNDA:0,_RNCNCNvMNtNtCsbBf3qmLqCJ0_16wezterm_parallel7metrics7storageNtB6_14MetricsStorage17cleanup_old_files0s0_0Ba_
FNDA:0,_RNCNCNvMNtNtCsbBf3qmLqCJ0_16wezterm_parallel7metrics7storageNtB6_14MetricsStorage17cleanup_old_files0s1_0Ba_
FNDA:0,_RNCNCNvMNtNtCsbBf3qmLqCJ0_16wezterm_parallel7metrics7storageNtB6_14MetricsStorage17cleanup_old_files0s_0Ba_
FNDA:0,_RNCNCNvMNtNtCsbBf3qmLqCJ0_16wezterm_parallel7metrics7storageNtB6_14MetricsStorage17get_storage_stats00Ba_
FNDA:0,_RNCNCNvMNtNtCsbBf3qmLqCJ0_16wezterm_parallel7metrics7storageNtB6_14MetricsStorage17get_storage_stats0s0_0Ba_
FNDA:0,_RNCNCNvMNtNtCsbBf3qmLqCJ0_16wezterm_parallel7metrics7storageNtB6_14MetricsStorage17get_storage_stats0s_0Ba_
FNDA:0,_RNCNCNvMNtNtCsbBf3qmLqCJ0_16wezterm_parallel7metrics7storageNtB6_14MetricsStorage19estimate_cache_size00Ba_
FNDA:0,_RNCNCNvMNtNtCsbBf3qmLqCJ0_16wezterm_parallel7metrics7storageNtB6_14MetricsStorage19estimate_cache_size0s_0Ba_
FNDA:0,_RNCNvMNtNtCsbBf3qmLqCJ0_16wezterm_parallel7metrics7storageNtB4_14MetricsStorage17cleanup_old_files0B8_
FNDA:0,_RNCNvMNtNtCsbBf3qmLqCJ0_16wezterm_parallel7metrics7storageNtB4_14MetricsStorage17get_storage_stats0B8_
FNDA:0,_RNCNvMNtNtCsbBf3qmLqCJ0_16wezterm_parallel7metrics7storageNtB4_14MetricsStorage19estimate_cache_size0B8_
FNDA:0,_RNCNvMNtNtCsbBf3qmLqCJ0_16wezterm_parallel7metrics7storageNtB4_14MetricsStorage20save_process_metrics0B8_
FNDA:0,_RNCNvMNtNtCsbBf3qmLqCJ0_16wezterm_parallel7metrics7storageNtB4_14MetricsStorage22save_framework_metrics0B8_
FNDA:0,_RNCNvMNtNtCsbBf3qmLqCJ0_16wezterm_parallel7metrics7storageNtB4_14MetricsStorage22save_workspace_metrics0B8_
FNDA:0,_RNCNvMNtNtCsbBf3qmLqCJ0_16wezterm_parallel7metrics7storageNtB4_14MetricsStorage26get_recent_process_metrics0B8_
FNDA:0,_RNCNvMNtNtCsbBf3qmLqCJ0_16wezterm_parallel7metrics7storageNtB4_14MetricsStorage28get_recent_framework_metrics0B8_
FNDA:0,_RNCNvMNtNtCsbBf3qmLqCJ0_16wezterm_parallel7metrics7storageNtB4_14MetricsStorage28get_recent_workspace_metrics0B8_
FNDA:0,_RNvMNtNtCsbBf3qmLqCJ0_16wezterm_parallel7metrics7storageNtB2_14MetricsStorage17cleanup_old_files
FNDA:0,_RNvMNtNtCsbBf3qmLqCJ0_16wezterm_parallel7metrics7storageNtB2_14MetricsStorage17get_storage_stats
FNDA:0,_RNvMNtNtCsbBf3qmLqCJ0_16wezterm_parallel7metrics7storageNtB2_14MetricsStorage19estimate_cache_size
FNDA:0,_RNvMNtNtCsbBf3qmLqCJ0_16wezterm_parallel7metrics7storageNtB2_14MetricsStorage20save_process_metrics
FNDA:0,_RNvMNtNtCsbBf3qmLqCJ0_16wezterm_parallel7metrics7storageNtB2_14MetricsStorage22save_framework_metrics
FNDA:0,_RNvMNtNtCsbBf3qmLqCJ0_16wezterm_parallel7metrics7storageNtB2_14MetricsStorage22save_workspace_metrics
FNDA:0,_RNvMNtNtCsbBf3qmLqCJ0_16wezterm_parallel7metrics7storageNtB2_14MetricsStorage26get_recent_process_metrics
FNDA:0,_RNvMNtNtCsbBf3qmLqCJ0_16wezterm_parallel7metrics7storageNtB2_14MetricsStorage28get_recent_framework_metrics
FNDA:0,_RNvMNtNtCsbBf3qmLqCJ0_16wezterm_parallel7metrics7storageNtB2_14MetricsStorage28get_recent_workspace_metrics
FNDA:1501,_RINvMNtNtCsbBf3qmLqCJ0_16wezterm_parallel7metrics7storageNtB3_14MetricsStorage14append_to_fileNtB5_13SystemMetricsEB7_
FNDA:1501,_RNCINvMNtNtCsbBf3qmLqCJ0_16wezterm_parallel7metrics7storageNtB5_14MetricsStorage14append_to_fileNtB7_13SystemMetricsE0B9_
FNDA:0,_RNCNCINvMNtNtCsbBf3qmLqCJ0_16wezterm_parallel7metrics7storageNtB7_14MetricsStorage14append_to_fileNtB9_13SystemMetricsE00Bb_
FNDA:0,_RNCNCINvMNtNtCsbBf3qmLqCJ0_16wezterm_parallel7metrics7storageNtB7_14MetricsStorage14append_to_fileNtB9_13SystemMetricsE0s0_0Bb_
FNDA:0,_RNCNCINvMNtNtCsbBf3qmLqCJ0_16wezterm_parallel7metrics7storageNtB7_14MetricsStorage14append_to_fileNtB9_13SystemMetricsE0s1_0Bb_
FNDA:0,_RNCNCINvMNtNtCsbBf3qmLqCJ0_16wezterm_parallel7metrics7storageNtB7_14MetricsStorage14append_to_fileNtB9_13SystemMetricsE0s2_0Bb_
FNDA:0,_RNCNCINvMNtNtCsbBf3qmLqCJ0_16wezterm_parallel7metrics7storageNtB7_14MetricsStorage14append_to_fileNtB9_13SystemMetricsE0s_0Bb_
FNDA:0,_RNCNCNCNvMNtNtCsbBf3qmLqCJ0_16wezterm_parallel7metrics7storageNtB8_14MetricsStorage18load_metrics_range000Bc_
FNDA:0,_RNCNCNvMNtNtCsbBf3qmLqCJ0_16wezterm_parallel7metrics7storageNtB6_14MetricsStorage11rotate_file00Ba_
FNDA:0,_RNCNCNvMNtNtCsbBf3qmLqCJ0_16wezterm_parallel7metrics7storageNtB6_14MetricsStorage18load_metrics_range00Ba_
FNDA:0,_RNCNCNvMNtNtCsbBf3qmLqCJ0_16wezterm_parallel7metrics7storageNtB6_14MetricsStorage3new00Ba_
FNDA:0,_RNCNCNvMNtNtCsbBf3qmLqCJ0_16wezterm_parallel7metrics7storageNtB6_14MetricsStorage9load_file00Ba_
FNDA:0,_RNCNCNvMNtNtCsbBf3qmLqCJ0_16wezterm_parallel7metrics7storageNtB6_14MetricsStorage9load_file0s_0Ba_
FNDA:0,_RNCNvMNtNtCsbBf3qmLqCJ0_16wezterm_parallel7metrics7storageNtB4_14MetricsStorage11rotate_file0B8_
FNDA:8,_RNCNvMNtNtCsbBf3qmLqCJ0_16wezterm_parallel7metrics7storageNtB4_14MetricsStorage18load_metrics_range0B8_
FNDA:2,_RNCNvMNtNtCsbBf3qmLqCJ0_16wezterm_parallel7metrics7storageNtB4_14MetricsStorage19load_recent_metrics0B8_
FNDA:1501,_RNCNvMNtNtCsbBf3qmLqCJ0_16wezterm_parallel7metrics7storageNtB4_14MetricsStorage19save_system_metrics0B8_
FNDA:2,_RNCNvMNtNtCsbBf3qmLqCJ0_16wezterm_parallel7metrics7storageNtB4_14MetricsStorage25get_recent_system_metrics0B8_
FNDA:2,_RNCNvMNtNtCsbBf3qmLqCJ0_16wezterm_parallel7metrics7storageNtB4_14MetricsStorage3new0B8_
FNDA:0,_RNCNvMNtNtCsbBf3qmLqCJ0_16wezterm_parallel7metrics7storageNtB4_14MetricsStorage9load_file0B8_
FNDA:0,_RNvMNtNtCsbBf3qmLqCJ0_16wezterm_parallel7metrics7storageNtB2_14MetricsStorage11rotate_file
FNDA:8,_RNvMNtNtCsbBf3qmLqCJ0_16wezterm_parallel7metrics7storageNtB2_14MetricsStorage18load_metrics_range
FNDA:2,_RNvMNtNtCsbBf3qmLqCJ0_16wezterm_parallel7metrics7storageNtB2_14MetricsStorage19load_recent_metrics
FNDA:1501,_RNvMNtNtCsbBf3qmLqCJ0_16wezterm_parallel7metrics7storageNtB2_14MetricsStorage19save_system_metrics
FNDA:1517,_RNvMNtNtCsbBf3qmLqCJ0_16wezterm_parallel7metrics7storageNtB2_14MetricsStorage21get_metrics_file_path
FNDA:2,_RNvMNtNtCsbBf3qmLqCJ0_16wezterm_parallel7metrics7storageNtB2_14MetricsStorage25get_recent_system_metrics
FNDA:2,_RNvMNtNtCsbBf3qmLqCJ0_16wezterm_parallel7metrics7storageNtB2_14MetricsStorage3new
FNDA:0,_RNvMNtNtCsbBf3qmLqCJ0_16wezterm_parallel7metrics7storageNtB2_14MetricsStorage9load_file
FNDA:2,_RNvMs_NtNtCsbBf3qmLqCJ0_16wezterm_parallel7metrics7storageNtB4_12MetricsCache3new
FNDA:1,_RNvNtNtNtCsbBf3qmLqCJ0_16wezterm_parallel7metrics7storage5testss_19test_cache_trimming
FNDA:1,_RNvNtNtNtCsbBf3qmLqCJ0_16wezterm_parallel7metrics7storage5testss_20test_metrics_storage
FNF:66
FNH:18
DA:47,2
DA:49,2
DA:50,2
DA:51,2
DA:53,2
DA:54,2
DA:55,2
DA:56,2
DA:57,2
DA:58,2
DA:61,2
DA:63,2
DA:64,2
DA:67,1501
DA:68,1501
DA:72,1501
DA:73,1501
DA:76,1501
DA:77,1
DA:78,1500
DA:82,1501
DA:83,1501
DA:85,1501
DA:86,1501
DA:89,0
DA:90,0
DA:93,0
DA:94,0
DA:95,0
DA:96,0
DA:97,0
DA:98,0
DA:99,0
DA:103,0
DA:104,0
DA:105,0
DA:106,0
DA:107,0
DA:108,0
DA:109,0
DA:112,0
DA:113,0
DA:114,0
DA:119,0
DA:120,0
DA:121,0
DA:122,0
DA:124,0
DA:125,0
DA:128,0
DA:129,0
DA:133,0
DA:134,0
DA:135,0
DA:136,0
DA:137,0
DA:138,0
DA:141,0
DA:142,0
DA:143,0
DA:147,0
DA:148,0
DA:150,0
DA:151,0
DA:154,0
DA:155,0
DA:159,0
DA:160,0
DA:163,0
DA:164,0
DA:165,0
DA:169,0
DA:170,0
DA:172,0
DA:173,0
DA:176,2
DA:177,2
DA:178,2
DA:180,2
DA:181,2
DA:183,0
DA:185,2
DA:188,0
DA:189,0
DA:190,0
DA:191,0
DA:192,0
DA:193,0
DA:195,0
DA:196,0
DA:197,0
DA:199,0
DA:202,0
DA:204,0
DA:207,0
DA:208,0
DA:209,0
DA:210,0
DA:211,0
DA:212,0
DA:214,0
DA:215,0
DA:216,0
DA:218,0
DA:221,0
DA:223,0
DA:226,0
DA:227,0
DA:228,0
DA:230,0
DA:231,0
DA:233,0
DA:235,0
DA:238,8
DA:239,8
DA:240,8
DA:241,8
DA:242,8
DA:243,8
DA:244,8
DA:247,8
DA:248,8
DA:250,16
DA:251,16
DA:252,16
DA:254,16
DA:255,0
DA:256,0
DA:258,0
DA:259,0
DA:260,0
DA:261,0
DA:262,0
DA:264,0
DA:266,0
DA:267,0
DA:268,0
DA:270,0
DA:272,16
DA:275,8
DA:276,8
DA:279,0
DA:280,0
DA:282,0
DA:284,0
DA:285,0
DA:287,0
DA:288,0
DA:289,0
DA:290,0
DA:292,0
DA:293,0
DA:294,0
DA:295,0
DA:297,0
DA:298,0
DA:300,0
DA:301,0
DA:302,0
DA:304,0
DA:305,0
DA:306,0
DA:308,0
DA:310,0
DA:311,0
DA:314,0
DA:315,0
DA:316,0
DA:317,0
DA:319,0
DA:322,0
DA:323,0
DA:326,1517
DA:328,1517
DA:330,1517
DA:331,1517
DA:332,1517
DA:333,1517
DA:336,1501
DA:337,1501
DA:338,1501
DA:339,1501
DA:340,1501
DA:342,1501
DA:343,1501
DA:344,1501
DA:345,1501
DA:346,0
DA:349,1501
DA:350,1501
DA:353,1501
DA:354,1501
DA:355,1501
DA:356,1501
DA:357,1501
DA:358,1501
DA:360,1501
DA:361,1501
DA:362,1501
DA:365,1501
DA:366,1501
DA:367,1501
DA:368,1501
DA:370,1501
DA:371,0
DA:372,1501
DA:374,1501
DA:375,1501
DA:378,0
DA:379,0
DA:380,0
DA:381,0
DA:382,0
DA:384,0
DA:385,0
DA:386,0
DA:387,0
DA:388,0
DA:391,0
DA:392,0
DA:393,0
DA:394,0
DA:395,0
DA:396,0
DA:400,0
DA:401,0
DA:402,0
DA:403,0
DA:404,0
DA:405,0
DA:407,0
DA:408,0
DA:409,0
DA:411,0
DA:412,0
DA:415,0
DA:416,0
DA:417,0
DA:418,0
DA:420,0
DA:421,0
DA:422,0
DA:423,0
DA:425,0
DA:426,0
DA:427,0
DA:428,0
DA:429,0
DA:430,0
DA:432,0
DA:435,0
DA:436,0
DA:439,0
DA:440,0
DA:442,0
DA:443,0
DA:444,0
DA:446,0
DA:447,0
DA:448,0
DA:449,0
DA:452,0
DA:453,0
DA:456,2
DA:457,2
DA:459,2
DA:460,2
DA:463,10
DA:464,8
DA:465,8
DA:466,8
DA:468,8
DA:469,8
DA:472,0
DA:476,2
DA:477,2
DA:480,0
DA:481,0
DA:482,0
DA:483,0
DA:485,0
DA:486,0
DA:487,0
DA:488,0
DA:490,0
DA:491,0
DA:492,0
DA:493,0
DA:495,0
DA:496,0
DA:497,0
DA:498,0
DA:500,0
DA:501,0
DA:502,0
DA:503,0
DA:505,0
DA:506,0
DA:507,0
DA:508,0
DA:510,0
DA:512,0
DA:513,0
DA:514,0
DA:515,0
DA:516,0
DA:517,0
DA:520,0
DA:521,0
DA:525,0
DA:526,0
DA:527,0
DA:528,0
DA:530,0
DA:533,0
DA:534,0
DA:536,0
DA:537,0
DA:538,0
DA:539,0
DA:540,0
DA:541,0
DA:542,0
DA:543,0
DA:544,0
DA:545,0
DA:546,0
DA:547,0
DA:548,0
DA:550,0
DA:551,0
DA:555,2
DA:556,2
DA:557,2
DA:558,2
DA:559,2
DA:560,2
DA:561,2
DA:562,2
DA:587,1
DA:588,1
DA:589,1
DA:590,1
DA:591,1
DA:594,1
DA:595,1
DA:598,1
DA:599,1
DA:600,1
DA:603,1
DA:604,1
DA:605,1
DA:606,1
DA:607,1
DA:610,1501
DA:611,1500
DA:612,1500
DA:613,1500
DA:617,1
DA:618,1
DA:619,1
DA:620,1
BRF:0
BRH:0
LF:408
LH:133
end_of_record
SF:/Users/aiq/work/wezterm-parallel/src/monitoring/alerts.rs
FN:428,_RNCNCNvMNtNtCsezqlaDlZ1Zy_16wezterm_parallel10monitoring6alertsNtB6_12AlertManager22create_alert_if_needed00Ba_
FN:499,_RNCNvMNtNtCsezqlaDlZ1Zy_16wezterm_parallel10monitoring6alertsNtB4_12AlertManager13resolve_alert0B8_
FN:115,_RNCNvMNtNtCsezqlaDlZ1Zy_16wezterm_parallel10monitoring6alertsNtB4_12AlertManager16evaluate_metrics0B8_
FN:486,_RNCNvMNtNtCsezqlaDlZ1Zy_16wezterm_parallel10monitoring6alertsNtB4_12AlertManager17get_active_alerts0B8_
FN:492,_RNCNvMNtNtCsezqlaDlZ1Zy_16wezterm_parallel10monitoring6alertsNtB4_12AlertManager17get_alert_history0B8_
FN:158,_RNCNvMNtNtCsezqlaDlZ1Zy_16wezterm_parallel10monitoring6alertsNtB4_12AlertManager19check_system_alerts0B8_
FN:242,_RNCNvMNtNtCsezqlaDlZ1Zy_16wezterm_parallel10monitoring6alertsNtB4_12AlertManager20check_process_alerts0B8_
FN:313,_RNCNvMNtNtCsezqlaDlZ1Zy_16wezterm_parallel10monitoring6alertsNtB4_12AlertManager21check_resolved_alerts0B8_
FN:404,_RNCNvMNtNtCsezqlaDlZ1Zy_16wezterm_parallel10monitoring6alertsNtB4_12AlertManager22create_alert_if_needed0B8_
FN:473,_RNCNvMNtNtCsezqlaDlZ1Zy_16wezterm_parallel10monitoring6alertsNtB4_12AlertManager23send_alert_notification0B8_
FN:137,_RNCNvMNtNtCsezqlaDlZ1Zy_16wezterm_parallel10monitoring6alertsNtB4_12AlertManager23update_evaluation_state0B8_
FN:98,_RNCNvMNtNtCsezqlaDlZ1Zy_16wezterm_parallel10monitoring6alertsNtB4_12AlertManager5start0B8_
FN:499,_RNvMNtNtCsezqlaDlZ1Zy_16wezterm_parallel10monitoring6alertsNtB2_12AlertManager13resolve_alert
FN:112,_RNvMNtNtCsezqlaDlZ1Zy_16wezterm_parallel10monitoring6alertsNtB2_12AlertManager16evaluate_metrics
FN:486,_RNvMNtNtCsezqlaDlZ1Zy_16wezterm_parallel10monitoring6alertsNtB2_12AlertManager17get_active_alerts
FN:492,_RNvMNtNtCsezqlaDlZ1Zy_16wezterm_parallel10monitoring6alertsNtB2_12AlertManager17get_alert_history
FN:155,_RNvMNtNtCsezqlaDlZ1Zy_16wezterm_parallel10monitoring6alertsNtB2_12AlertManager19check_system_alerts
FN:239,_RNvMNtNtCsezqlaDlZ1Zy_16wezterm_parallel10monitoring6alertsNtB2_12AlertManager20check_process_alerts
FN:310,_RNvMNtNtCsezqlaDlZ1Zy_16wezterm_parallel10monitoring6alertsNtB2_12AlertManager21check_resolved_alerts
FN:395,_RNvMNtNtCsezqlaDlZ1Zy_16wezterm_parallel10monitoring6alertsNtB2_12AlertManager22create_alert_if_needed
FN:86,_RNvMNtNtCsezqlaDlZ1Zy_16wezterm_parallel10monitoring6alertsNtB2_12AlertManager23add_notification_sender
FN:473,_RNvMNtNtCsezqlaDlZ1Zy_16wezterm_parallel10monitoring6alertsNtB2_12AlertManager23send_alert_notification
FN:137,_RNvMNtNtCsezqlaDlZ1Zy_16wezterm_parallel10monitoring6alertsNtB2_12AlertManager23update_evaluation_state
FN:75,_RNvMNtNtCsezqlaDlZ1Zy_16wezterm_parallel10monitoring6alertsNtB2_12AlertManager3new
FN:95,_RNvMNtNtCsezqlaDlZ1Zy_16wezterm_parallel10monitoring6alertsNtB2_12AlertManager5start
FN:541,_RNvMs0_NtNtCsezqlaDlZ1Zy_16wezterm_parallel10monitoring6alertsNtB5_14LogAlertSender3new
FN:559,_RNvMs2_NtNtCsezqlaDlZ1Zy_16wezterm_parallel10monitoring6alertsNtB5_18WebhookAlertSender3new
FN:547,_RNvXs1_NtNtCsezqlaDlZ1Zy_16wezterm_parallel10monitoring6alertsNtB5_14LogAlertSenderNtB5_23AlertNotificationSender15send_alert_sync
FN:553,_RNvXs1_NtNtCsezqlaDlZ1Zy_16wezterm_parallel10monitoring6alertsNtB5_14LogAlertSenderNtB5_23AlertNotificationSender4name
FN:568,_RNvXs3_NtNtCsezqlaDlZ1Zy_16wezterm_parallel10monitoring6alertsNtB5_18WebhookAlertSenderNtB5_23AlertNotificationSender15send_alert_sync
FN:579,_RNvXs3_NtNtCsezqlaDlZ1Zy_16wezterm_parallel10monitoring6alertsNtB5_18WebhookAlertSenderNtB5_23AlertNotificationSender4name
FN:518,_RNvXs_NtNtCsezqlaDlZ1Zy_16wezterm_parallel10monitoring6alertsNtB4_18ConsoleAlertSenderNtB4_23AlertNotificationSender15send_alert_sync
FN:535,_RNvXs_NtNtCsezqlaDlZ1Zy_16wezterm_parallel10monitoring6alertsNtB4_18ConsoleAlertSenderNtB4_23AlertNotificationSender4name
FN:499,_RNCNvMNtNtCsbBf3qmLqCJ0_16wezterm_parallel10monitoring6alertsNtB4_12AlertManager13resolve_alert0B8_
FN:115,_RNCNvMNtNtCsbBf3qmLqCJ0_16wezterm_parallel10monitoring6alertsNtB4_12AlertManager16evaluate_metrics0B8_
FN:492,_RNCNvMNtNtCsbBf3qmLqCJ0_16wezterm_parallel10monitoring6alertsNtB4_12AlertManager17get_alert_history0B8_
FN:158,_RNCNvMNtNtCsbBf3qmLqCJ0_16wezterm_parallel10monitoring6alertsNtB4_12AlertManager19check_system_alerts0B8_
FN:242,_RNCNvMNtNtCsbBf3qmLqCJ0_16wezterm_parallel10monitoring6alertsNtB4_12AlertManager20check_process_alerts0B8_
FN:313,_RNCNvMNtNtCsbBf3qmLqCJ0_16wezterm_parallel10monitoring6alertsNtB4_12AlertManager21check_resolved_alerts0B8_
FN:137,_RNCNvMNtNtCsbBf3qmLqCJ0_16wezterm_parallel10monitoring6alertsNtB4_12AlertManager23update_evaluation_state0B8_
FN:98,_RNCNvMNtNtCsbBf3qmLqCJ0_16wezterm_parallel10monitoring6alertsNtB4_12AlertManager5start0B8_
FN:499,_RNvMNtNtCsbBf3qmLqCJ0_16wezterm_parallel10monitoring6alertsNtB2_12AlertManager13resolve_alert
FN:112,_RNvMNtNtCsbBf3qmLqCJ0_16wezterm_parallel10monitoring6alertsNtB2_12AlertManager16evaluate_metrics
FN:492,_RNvMNtNtCsbBf3qmLqCJ0_16wezterm_parallel10monitoring6alertsNtB2_12AlertManager17get_alert_history
FN:155,_RNvMNtNtCsbBf3qmLqCJ0_16wezterm_parallel10monitoring6alertsNtB2_12AlertManager19check_system_alerts
FN:239,_RNvMNtNtCsbBf3qmLqCJ0_16wezterm_parallel10monitoring6alertsNtB2_12AlertManager20check_process_alerts
FN:310,_RNvMNtNtCsbBf3qmLqCJ0_16wezterm_parallel10monitoring6alertsNtB2_12AlertManager21check_resolved_alerts
FN:86,_RNvMNtNtCsbBf3qmLqCJ0_16wezterm_parallel10monitoring6alertsNtB2_12AlertManager23add_notification_sender
FN:137,_RNvMNtNtCsbBf3qmLqCJ0_16wezterm_parallel10monitoring6alertsNtB2_12AlertManager23update_evaluation_state
FN:95,_RNvMNtNtCsbBf3qmLqCJ0_16wezterm_parallel10monitoring6alertsNtB2_12AlertManager5start
FN:541,_RNvMs0_NtNtCsbBf3qmLqCJ0_16wezterm_parallel10monitoring6alertsNtB5_14LogAlertSender3new
FN:559,_RNvMs2_NtNtCsbBf3qmLqCJ0_16wezterm_parallel10monitoring6alertsNtB5_18WebhookAlertSender3new
FN:547,_RNvXs1_NtNtCsbBf3qmLqCJ0_16wezterm_parallel10monitoring6alertsNtB5_14LogAlertSenderNtB5_23AlertNotificationSender15send_alert_sync
FN:553,_RNvXs1_NtNtCsbBf3qmLqCJ0_16wezterm_parallel10monitoring6alertsNtB5_14LogAlertSenderNtB5_23AlertNotificationSender4name
FN:568,_RNvXs3_NtNtCsbBf3qmLqCJ0_16wezterm_parallel10monitoring6alertsNtB5_18WebhookAlertSenderNtB5_23AlertNotificationSender15send_alert_sync
FN:579,_RNvXs3_NtNtCsbBf3qmLqCJ0_16wezterm_parallel10monitoring6alertsNtB5_18WebhookAlertSenderNtB5_23AlertNotificationSender4name
FN:535,_RNvXs_NtNtCsbBf3qmLqCJ0_16wezterm_parallel10monitoring6alertsNtB4_18ConsoleAlertSenderNtB4_23AlertNotificationSender4name
FN:598,_RNvNtNtNtCsbBf3qmLqCJ0_16wezterm_parallel10monitoring6alerts5testss_25test_console_alert_sender
FN:616,_RNvNtNtNtCsbBf3qmLqCJ0_16wezterm_parallel10monitoring6alerts5testss_26test_alert_spam_prevention
FN:589,_RNvNtNtNtCsbBf3qmLqCJ0_16wezterm_parallel10monitoring6alerts5testss_27test_alert_manager_creation
FN:428,_RNCNCNvMNtNtCsbBf3qmLqCJ0_16wezterm_parallel10monitoring6alertsNtB6_12AlertManager22create_alert_if_needed00Ba_
FN:486,_RNCNvMNtNtCsbBf3qmLqCJ0_16wezterm_parallel10monitoring6alertsNtB4_12AlertManager17get_active_alerts0B8_
FN:404,_RNCNvMNtNtCsbBf3qmLqCJ0_16wezterm_parallel10monitoring6alertsNtB4_12AlertManager22create_alert_if_needed0B8_
FN:473,_RNCNvMNtNtCsbBf3qmLqCJ0_16wezterm_parallel10monitoring6alertsNtB4_12AlertManager23send_alert_notification0B8_
FN:486,_RNvMNtNtCsbBf3qmLqCJ0_16wezterm_parallel10monitoring6alertsNtB2_12AlertManager17get_active_alerts
FN:395,_RNvMNtNtCsbBf3qmLqCJ0_16wezterm_parallel10monitoring6alertsNtB2_12AlertManager22create_alert_if_needed
FN:473,_RNvMNtNtCsbBf3qmLqCJ0_16wezterm_parallel10monitoring6alertsNtB2_12AlertManager23send_alert_notification
FN:75,_RNvMNtNtCsbBf3qmLqCJ0_16wezterm_parallel10monitoring6alertsNtB2_12AlertManager3new
FN:518,_RNvXs_NtNtCsbBf3qmLqCJ0_16wezterm_parallel10monitoring6alertsNtB4_18ConsoleAlertSenderNtB4_23AlertNotificationSender15send_alert_sync
FN:598,_RNCNvNtNtNtCsbBf3qmLqCJ0_16wezterm_parallel10monitoring6alerts5testss_25test_console_alert_sender0B9_
FN:616,_RNCNvNtNtNtCsbBf3qmLqCJ0_16wezterm_parallel10monitoring6alerts5testss_26test_alert_spam_prevention0B9_
FN:589,_RNCNvNtNtNtCsbBf3qmLqCJ0_16wezterm_parallel10monitoring6alerts5testss_27test_alert_manager_creation0B9_
FNDA:0,_RNCNCNvMNtNtCsezqlaDlZ1Zy_16wezterm_parallel10monitoring6alertsNtB6_12AlertManager22create_alert_if_needed00Ba_
FNDA:0,_RNCNvMNtNtCsezqlaDlZ1Zy_16wezterm_parallel10monitoring6alertsNtB4_12AlertManager13resolve_alert0B8_
FNDA:0,_RNCNvMNtNtCsezqlaDlZ1Zy_16wezterm_parallel10monitoring6alertsNtB4_12AlertManager16evaluate_metrics0B8_
FNDA:0,_RNCNvMNtNtCsezqlaDlZ1Zy_16wezterm_parallel10monitoring6alertsNtB4_12AlertManager17get_active_alerts0B8_
FNDA:0,_RNCNvMNtNtCsezqlaDlZ1Zy_16wezterm_parallel10monitoring6alertsNtB4_12AlertManager17get_alert_history0B8_
FNDA:0,_RNCNvMNtNtCsezqlaDlZ1Zy_16wezterm_parallel10monitoring6alertsNtB4_12AlertManager19check_system_alerts0B8_
FNDA:0,_RNCNvMNtNtCsezqlaDlZ1Zy_16wezterm_parallel10monitoring6alertsNtB4_12AlertManager20check_process_alerts0B8_
FNDA:0,_RNCNvMNtNtCsezqlaDlZ1Zy_16wezterm_parallel10monitoring6alertsNtB4_12AlertManager21check_resolved_alerts0B8_
FNDA:0,_RNCNvMNtNtCsezqlaDlZ1Zy_16wezterm_parallel10monitoring6alertsNtB4_12AlertManager22create_alert_if_needed0B8_
FNDA:0,_RNCNvMNtNtCsezqlaDlZ1Zy_16wezterm_parallel10monitoring6alertsNtB4_12AlertManager23send_alert_notification0B8_
FNDA:0,_RNCNvMNtNtCsezqlaDlZ1Zy_16wezterm_parallel10monitoring6alertsNtB4_12AlertManager23update_evaluation_state0B8_
FNDA:0,_RNCNvMNtNtCsezqlaDlZ1Zy_16wezterm_parallel10monitoring6alertsNtB4_12AlertManager5start0B8_
FNDA:0,_RNvMNtNtCsezqlaDlZ1Zy_16wezterm_parallel10monitoring6alertsNtB2_12AlertManager13resolve_alert
FNDA:0,_RNvMNtNtCsezqlaDlZ1Zy_16wezterm_parallel10monitoring6alertsNtB2_12AlertManager16evaluate_metrics
FNDA:0,_RNvMNtNtCsezqlaDlZ1Zy_16wezterm_parallel10monitoring6alertsNtB2_12AlertManager17get_active_alerts
FNDA:0,_RNvMNtNtCsezqlaDlZ1Zy_16wezterm_parallel10monitoring6alertsNtB2_12AlertManager17get_alert_history
FNDA:0,_RNvMNtNtCsezqlaDlZ1Zy_16wezterm_parallel10monitoring6alertsNtB2_12AlertManager19check_system_alerts
FNDA:0,_RNvMNtNtCsezqlaDlZ1Zy_16wezterm_parallel10monitoring6alertsNtB2_12AlertManager20check_process_alerts
FNDA:0,_RNvMNtNtCsezqlaDlZ1Zy_16wezterm_parallel10monitoring6alertsNtB2_12AlertManager21check_resolved_alerts
FNDA:0,_RNvMNtNtCsezqlaDlZ1Zy_16wezterm_parallel10monitoring6alertsNtB2_12AlertManager22create_alert_if_needed
FNDA:0,_RNvMNtNtCsezqlaDlZ1Zy_16wezterm_parallel10monitoring6alertsNtB2_12AlertManager23add_notification_sender
FNDA:0,_RNvMNtNtCsezqlaDlZ1Zy_16wezterm_parallel10monitoring6alertsNtB2_12AlertManager23send_alert_notification
FNDA:0,_RNvMNtNtCsezqlaDlZ1Zy_16wezterm_parallel10monitoring6alertsNtB2_12AlertManager23update_evaluation_state
FNDA:0,_RNvMNtNtCsezqlaDlZ1Zy_16wezterm_parallel10monitoring6alertsNtB2_12AlertManager3new
FNDA:0,_RNvMNtNtCsezqlaDlZ1Zy_16wezterm_parallel10monitoring6alertsNtB2_12AlertManager5start
FNDA:0,_RNvMs0_NtNtCsezqlaDlZ1Zy_16wezterm_parallel10monitoring6alertsNtB5_14LogAlertSender3new
FNDA:0,_RNvMs2_NtNtCsezqlaDlZ1Zy_16wezterm_parallel10monitoring6alertsNtB5_18WebhookAlertSender3new
FNDA:0,_RNvXs1_NtNtCsezqlaDlZ1Zy_16wezterm_parallel10monitoring6alertsNtB5_14LogAlertSenderNtB5_23AlertNotificationSender15send_alert_sync
FNDA:0,_RNvXs1_NtNtCsezqlaDlZ1Zy_16wezterm_parallel10monitoring6alertsNtB5_14LogAlertSenderNtB5_23AlertNotificationSender4name
FNDA:0,_RNvXs3_NtNtCsezqlaDlZ1Zy_16wezterm_parallel10monitoring6alertsNtB5_18WebhookAlertSenderNtB5_23AlertNotificationSender15send_alert_sync
FNDA:0,_RNvXs3_NtNtCsezqlaDlZ1Zy_16wezterm_parallel10monitoring6alertsNtB5_18WebhookAlertSenderNtB5_23AlertNotificationSender4name
FNDA:0,_RNvXs_NtNtCsezqlaDlZ1Zy_16wezterm_parallel10monitoring6alertsNtB4_18ConsoleAlertSenderNtB4_23AlertNotificationSender15send_alert_sync
FNDA:0,_RNvXs_NtNtCsezqlaDlZ1Zy_16wezterm_parallel10monitoring6alertsNtB4_18ConsoleAlertSenderNtB4_23AlertNotificationSender4name
FNDA:0,_RNCNvMNtNtCsbBf3qmLqCJ0_16wezterm_parallel10monitoring6alertsNtB4_12AlertManager13resolve_alert0B8_
FNDA:0,_RNCNvMNtNtCsbBf3qmLqCJ0_16wezterm_parallel10monitoring6alertsNtB4_12AlertManager16evaluate_metrics0B8_
FNDA:0,_RNCNvMNtNtCsbBf3qmLqCJ0_16wezterm_parallel10monitoring6alertsNtB4_12AlertManager17get_alert_history0B8_
FNDA:0,_RNCNvMNtNtCsbBf3qmLqCJ0_16wezterm_parallel10monitoring6alertsNtB4_12AlertManager19check_system_alerts0B8_
FNDA:0,_RNCNvMNtNtCsbBf3qmLqCJ0_16wezterm_parallel10monitoring6alertsNtB4_12AlertManager20check_process_alerts0B8_
FNDA:0,_RNCNvMNtNtCsbBf3qmLqCJ0_16wezterm_parallel10monitoring6alertsNtB4_12AlertManager21check_resolved_alerts0B8_
FNDA:0,_RNCNvMNtNtCsbBf3qmLqCJ0_16wezterm_parallel10monitoring6alertsNtB4_12AlertManager23update_evaluation_state0B8_
FNDA:0,_RNCNvMNtNtCsbBf3qmLqCJ0_16wezterm_parallel10monitoring6alertsNtB4_12AlertManager5start0B8_
FNDA:0,_RNvMNtNtCsbBf3qmLqCJ0_16wezterm_parallel10monitoring6alertsNtB2_12AlertManager13resolve_alert
FNDA:0,_RNvMNtNtCsbBf3qmLqCJ0_16wezterm_parallel10monitoring6alertsNtB2_12AlertManager16evaluate_metrics
FNDA:0,_RNvMNtNtCsbBf3qmLqCJ0_16wezterm_parallel10monitoring6alertsNtB2_12AlertManager17get_alert_history
FNDA:0,_RNvMNtNtCsbBf3qmLqCJ0_16wezterm_parallel10monitoring6alertsNtB2_12AlertManager19check_system_alerts
FNDA:0,_RNvMNtNtCsbBf3qmLqCJ0_16wezterm_parallel10monitoring6alertsNtB2_12AlertManager20check_process_alerts
FNDA:0,_RNvMNtNtCsbBf3qmLqCJ0_16wezterm_parallel10monitoring6alertsNtB2_12AlertManager21check_resolved_alerts
FNDA:0,_RNvMNtNtCsbBf3qmLqCJ0_16wezterm_parallel10monitoring6alertsNtB2_12AlertManager23add_notification_sender
FNDA:0,_RNvMNtNtCsbBf3qmLqCJ0_16wezterm_parallel10monitoring6alertsNtB2_12AlertManager23update_evaluation_state
FNDA:0,_RNvMNtNtCsbBf3qmLqCJ0_16wezterm_parallel10monitoring6alertsNtB2_12AlertManager5start
FNDA:0,_RNvMs0_NtNtCsbBf3qmLqCJ0_16wezterm_parallel10monitoring6alertsNtB5_14LogAlertSender3new
FNDA:0,_RNvMs2_NtNtCsbBf3qmLqCJ0_16wezterm_parallel10monitoring6alertsNtB5_18WebhookAlertSender3new
FNDA:0,_RNvXs1_NtNtCsbBf3qmLqCJ0_16wezterm_parallel10monitoring6alertsNtB5_14LogAlertSenderNtB5_23AlertNotificationSender15send_alert_sync
FNDA:0,_RNvXs1_NtNtCsbBf3qmLqCJ0_16wezterm_parallel10monitoring6alertsNtB5_14LogAlertSenderNtB5_23AlertNotificationSender4name
FNDA:0,_RNvXs3_NtNtCsbBf3qmLqCJ0_16wezterm_parallel10monitoring6alertsNtB5_18WebhookAlertSenderNtB5_23AlertNotificationSender15send_alert_sync
FNDA:0,_RNvXs3_NtNtCsbBf3qmLqCJ0_16wezterm_parallel10monitoring6alertsNtB5_18WebhookAlertSenderNtB5_23AlertNotificationSender4name
FNDA:0,_RNvXs_NtNtCsbBf3qmLqCJ0_16wezterm_parallel10monitoring6alertsNtB4_18ConsoleAlertSenderNtB4_23AlertNotificationSender4name
FNDA:1,_RNvNtNtNtCsbBf3qmLqCJ0_16wezterm_parallel10monitoring6alerts5testss_25test_console_alert_sender
FNDA:1,_RNvNtNtNtCsbBf3qmLqCJ0_16wezterm_parallel10monitoring6alerts5testss_26test_alert_spam_prevention
FNDA:1,_RNvNtNtNtCsbBf3qmLqCJ0_16wezterm_parallel10monitoring6alerts5testss_27test_alert_manager_creation
FNDA:0,_RNCNCNvMNtNtCsbBf3qmLqCJ0_16wezterm_parallel10monitoring6alertsNtB6_12AlertManager22create_alert_if_needed00Ba_
FNDA:2,_RNCNvMNtNtCsbBf3qmLqCJ0_16wezterm_parallel10monitoring6alertsNtB4_12AlertManager17get_active_alerts0B8_
FNDA:2,_RNCNvMNtNtCsbBf3qmLqCJ0_16wezterm_parallel10monitoring6alertsNtB4_12AlertManager22create_alert_if_needed0B8_
FNDA:1,_RNCNvMNtNtCsbBf3qmLqCJ0_16wezterm_parallel10monitoring6alertsNtB4_12AlertManager23send_alert_notification0B8_
FNDA:2,_RNvMNtNtCsbBf3qmLqCJ0_16wezterm_parallel10monitoring6alertsNtB2_12AlertManager17get_active_alerts
FNDA:2,_RNvMNtNtCsbBf3qmLqCJ0_16wezterm_parallel10monitoring6alertsNtB2_12AlertManager22create_alert_if_needed
FNDA:1,_RNvMNtNtCsbBf3qmLqCJ0_16wezterm_parallel10monitoring6alertsNtB2_12AlertManager23send_alert_notification
FNDA:2,_RNvMNtNtCsbBf3qmLqCJ0_16wezterm_parallel10monitoring6alertsNtB2_12AlertManager3new
FNDA:1,_RNvXs_NtNtCsbBf3qmLqCJ0_16wezterm_parallel10monitoring6alertsNtB4_18ConsoleAlertSenderNtB4_23AlertNotificationSender15send_alert_sync
FNDA:1,_RNCNvNtNtNtCsbBf3qmLqCJ0_16wezterm_parallel10monitoring6alerts5testss_25test_console_alert_sender0B9_
FNDA:1,_RNCNvNtNtNtCsbBf3qmLqCJ0_16wezterm_parallel10monitoring6alerts5testss_26test_alert_spam_prevention0B9_
FNDA:1,_RNCNvNtNtNtCsbBf3qmLqCJ0_16wezterm_parallel10monitoring6alerts5testss_27test_alert_manager_creation0B9_
FNF:39
FNH:14
DA:75,2
DA:76,2
DA:77,2
DA:78,2
DA:79,2
DA:80,2
DA:81,2
DA:82,2
DA:83,2
DA:86,0
DA:87,0
DA:88,0
DA:89,0
DA:90,0
DA:91,0
DA:92,0
DA:95,0
DA:96,0
DA:97,0
DA:98,0
DA:99,0
DA:102,0
DA:103,0
DA:104,0
DA:105,0
DA:108,0
DA:109,0
DA:112,0
DA:113,0
DA:114,0
DA:115,0
DA:116,0
DA:117,0
DA:122,0
DA:125,0
DA:128,0
DA:131,0
DA:133,0
DA:134,0
DA:137,0
DA:138,0
DA:141,0
DA:142,0
DA:143,0
DA:144,0
DA:145,0
DA:148,0
DA:149,0
DA:150,0
DA:151,0
DA:152,0
DA:155,0
DA:156,0
DA:157,0
DA:158,0
DA:160,0
DA:161,0
DA:162,0
DA:163,0
DA:164,0
DA:165,0
DA:166,0
DA:167,0
DA:168,0
DA:169,0
DA:170,0
DA:171,0
DA:172,0
DA:173,0
DA:174,0
DA:175,0
DA:176,0
DA:177,0
DA:180,0
DA:181,0
DA:182,0
DA:184,0
DA:187,0
DA:188,0
DA:189,0
DA:190,0
DA:191,0
DA:192,0
DA:193,0
DA:194,0
DA:195,0
DA:196,0
DA:197,0
DA:198,0
DA:199,0
DA:200,0
DA:201,0
DA:202,0
DA:203,0
DA:204,0
DA:205,0
DA:208,0
DA:209,0
DA:210,0
DA:212,0
DA:215,0
DA:216,0
DA:217,0
DA:218,0
DA:219,0
DA:220,0
DA:221,0
DA:222,0
DA:223,0
DA:224,0
DA:225,0
DA:226,0
DA:227,0
DA:228,0
DA:229,0
DA:230,0
DA:231,0
DA:232,0
DA:233,0
DA:235,0
DA:236,0
DA:239,0
DA:240,0
DA:241,0
DA:242,0
DA:243,0
DA:245,0
DA:246,0
DA:247,0
DA:248,0
DA:249,0
DA:250,0
DA:251,0
DA:252,0
DA:253,0
DA:254,0
DA:255,0
DA:256,0
DA:257,0
DA:258,0
DA:259,0
DA:260,0
DA:261,0
DA:262,0
DA:263,0
DA:266,0
DA:267,0
DA:268,0
DA:269,0
DA:270,0
DA:271,0
DA:272,0
DA:273,0
DA:274,0
DA:275,0
DA:276,0
DA:277,0
DA:278,0
DA:279,0
DA:280,0
DA:281,0
DA:284,0
DA:286,0
DA:287,0
DA:288,0
DA:289,0
DA:290,0
DA:291,0
DA:292,0
DA:293,0
DA:294,0
DA:295,0
DA:296,0
DA:297,0
DA:298,0
DA:299,0
DA:300,0
DA:301,0
DA:302,0
DA:303,0
DA:306,0
DA:307,0
DA:310,0
DA:311,0
DA:312,0
DA:313,0
DA:314,0
DA:315,0
DA:317,0
DA:318,0
DA:320,0
DA:321,0
DA:322,0
DA:323,0
DA:324,0
DA:325,0
DA:326,0
DA:327,0
DA:328,0
DA:329,0
DA:330,0
DA:331,0
DA:333,0
DA:335,0
DA:336,0
DA:337,0
DA:338,0
DA:339,0
DA:340,0
DA:341,0
DA:342,0
DA:343,0
DA:345,0
DA:347,0
DA:348,0
DA:349,0
DA:350,0
DA:352,0
DA:354,0
DA:355,0
DA:356,0
DA:357,0
DA:358,0
DA:359,0
DA:360,0
DA:361,0
DA:362,0
DA:365,0
DA:368,0
DA:369,0
DA:370,0
DA:374,0
DA:375,0
DA:376,0
DA:377,0
DA:379,0
DA:382,0
DA:383,0
DA:386,0
DA:387,0
DA:390,0
DA:391,0
DA:395,2
DA:396,2
DA:397,2
DA:398,2
DA:399,2
DA:400,2
DA:401,2
DA:402,2
DA:403,2
DA:404,2
DA:405,2
DA:408,2
DA:409,1
DA:411,1
DA:412,0
DA:413,1
DA:416,1
DA:417,1
DA:418,0
DA:419,1
DA:420,1
DA:423,1
DA:424,1
DA:425,1
DA:426,1
DA:427,1
DA:428,1
DA:429,1
DA:431,1
DA:432,1
DA:433,1
DA:434,0
DA:435,0
DA:436,0
DA:437,1
DA:440,1
DA:443,1
DA:446,1
DA:447,1
DA:448,1
DA:451,1
DA:452,1
DA:453,1
DA:454,1
DA:457,1
DA:458,1
DA:461,1
DA:462,0
DA:463,1
DA:464,1
DA:467,1
DA:469,1
DA:470,2
DA:473,1
DA:474,1
DA:475,0
DA:476,0
DA:477,0
DA:478,0
DA:481,0
DA:483,1
DA:486,2
DA:487,2
DA:488,2
DA:489,2
DA:492,0
DA:493,0
DA:494,0
DA:495,0
DA:496,0
DA:499,0
DA:500,0
DA:501,0
DA:502,0
DA:503,0
DA:505,0
DA:507,0
DA:508,0
DA:510,0
DA:511,0
DA:513,0
DA:514,0
DA:518,1
DA:519,1
DA:520,1
DA:521,0
DA:522,1
DA:523,0
DA:524,0
DA:527,1
DA:528,1
DA:532,1
DA:533,1
DA:535,0
DA:536,0
DA:537,0
DA:541,0
DA:542,0
DA:543,0
DA:547,0
DA:548,0
DA:549,0
DA:550,0
DA:551,0
DA:553,0
DA:554,0
DA:555,0
DA:559,0
DA:560,0
DA:561,0
DA:562,0
DA:563,0
DA:564,0
DA:568,0
DA:571,0
DA:572,0
DA:576,0
DA:577,0
DA:579,0
DA:580,0
DA:581,0
DA:589,1
DA:590,1
DA:591,1
DA:593,1
DA:594,1
DA:595,1
DA:598,1
DA:599,1
DA:600,1
DA:601,1
DA:602,1
DA:603,1
DA:604,1
DA:605,1
DA:606,1
DA:607,1
DA:608,1
DA:609,1
DA:610,1
DA:612,1
DA:613,1
DA:616,1
DA:617,1
DA:618,1
DA:620,1
DA:623,1
DA:624,1
DA:625,1
DA:626,1
DA:627,1
DA:628,1
DA:629,1
DA:630,1
DA:631,1
DA:632,1
DA:633,1
DA:634,1
DA:637,1
DA:638,1
DA:639,1
DA:640,1
DA:641,1
DA:642,1
DA:643,1
DA:644,1
DA:645,1
DA:646,1
DA:647,1
DA:648,1
DA:650,1
DA:651,1
DA:652,1
BRF:0
BRH:0
LF:433
LH:132
end_of_record
SF:/Users/aiq/work/wezterm-parallel/src/monitoring/analytics.rs
FN:522,_RNCNCNvMNtNtCsezqlaDlZ1Zy_16wezterm_parallel10monitoring9analyticsNtB6_16AnalyticsManager19analyze_performance0s4_0Ba_
FN:530,_RNCNCNvMNtNtCsezqlaDlZ1Zy_16wezterm_parallel10monitoring9analyticsNtB6_16AnalyticsManager19analyze_performance0s6_0Ba_
FN:540,_RNCNCNvMNtNtCsezqlaDlZ1Zy_16wezterm_parallel10monitoring9analyticsNtB6_16AnalyticsManager19analyze_performance0s7_0Ba_
FN:628,_RNCNCNvMNtNtCsezqlaDlZ1Zy_16wezterm_parallel10monitoring9analyticsNtB6_16AnalyticsManager19analyze_reliability00Ba_
FN:468,_RNCNCNvMNtNtCsezqlaDlZ1Zy_16wezterm_parallel10monitoring9analyticsNtB6_16AnalyticsManager19get_alerts_in_range00Ba_
FN:458,_RNCNCNvMNtNtCsezqlaDlZ1Zy_16wezterm_parallel10monitoring9analyticsNtB6_16AnalyticsManager20get_metrics_in_range00Ba_
FN:836,_RNCNCNvMNtNtCsezqlaDlZ1Zy_16wezterm_parallel10monitoring9analyticsNtB6_16AnalyticsManager26generate_executive_summary00Ba_
FN:842,_RNCNCNvMNtNtCsezqlaDlZ1Zy_16wezterm_parallel10monitoring9analyticsNtB6_16AnalyticsManager26generate_executive_summary0s0_0Ba_
FN:848,_RNCNCNvMNtNtCsezqlaDlZ1Zy_16wezterm_parallel10monitoring9analyticsNtB6_16AnalyticsManager26generate_executive_summary0s1_0Ba_
FN:837,_RNCNCNvMNtNtCsezqlaDlZ1Zy_16wezterm_parallel10monitoring9analyticsNtB6_16AnalyticsManager26generate_executive_summary0s_0Ba_
FN:478,_RNCNCNvMNtNtCsezqlaDlZ1Zy_16wezterm_parallel10monitoring9analyticsNtB6_16AnalyticsManager26get_health_checks_in_range00Ba_
FN:381,_RNCNvMNtNtCsezqlaDlZ1Zy_16wezterm_parallel10monitoring9analyticsNtB4_16AnalyticsManager11add_metrics0B8_
FN:667,_RNCNvMNtNtCsezqlaDlZ1Zy_16wezterm_parallel10monitoring9analyticsNtB4_16AnalyticsManager13analyze_usage0B8_
FN:888,_RNCNvMNtNtCsezqlaDlZ1Zy_16wezterm_parallel10monitoring9analyticsNtB4_16AnalyticsManager13get_baselines0B8_
FN:719,_RNCNvMNtNtCsezqlaDlZ1Zy_16wezterm_parallel10monitoring9analyticsNtB4_16AnalyticsManager14analyze_trends0B8_
FN:419,_RNCNvMNtNtCsezqlaDlZ1Zy_16wezterm_parallel10monitoring9analyticsNtB4_16AnalyticsManager15generate_report0B8_
FN:408,_RNCNvMNtNtCsezqlaDlZ1Zy_16wezterm_parallel10monitoring9analyticsNtB4_16AnalyticsManager16add_health_check0B8_
FN:863,_RNCNvMNtNtCsezqlaDlZ1Zy_16wezterm_parallel10monitoring9analyticsNtB4_16AnalyticsManager16update_baselines0B8_
FN:484,_RNCNvMNtNtCsezqlaDlZ1Zy_16wezterm_parallel10monitoring9analyticsNtB4_16AnalyticsManager19analyze_performance0B8_
FN:624,_RNCNvMNtNtCsezqlaDlZ1Zy_16wezterm_parallel10monitoring9analyticsNtB4_16AnalyticsManager19analyze_reliability0B8_
FN:464,_RNCNvMNtNtCsezqlaDlZ1Zy_16wezterm_parallel10monitoring9analyticsNtB4_16AnalyticsManager19get_alerts_in_range0B8_
FN:454,_RNCNvMNtNtCsezqlaDlZ1Zy_16wezterm_parallel10monitoring9analyticsNtB4_16AnalyticsManager20get_metrics_in_range0B8_
FN:774,_RNCNvMNtNtCsezqlaDlZ1Zy_16wezterm_parallel10monitoring9analyticsNtB4_16AnalyticsManager24generate_recommendations0B8_
FN:823,_RNCNvMNtNtCsezqlaDlZ1Zy_16wezterm_parallel10monitoring9analyticsNtB4_16AnalyticsManager26generate_executive_summary0B8_
FN:474,_RNCNvMNtNtCsezqlaDlZ1Zy_16wezterm_parallel10monitoring9analyticsNtB4_16AnalyticsManager26get_health_checks_in_range0B8_
FN:397,_RNCNvMNtNtCsezqlaDlZ1Zy_16wezterm_parallel10monitoring9analyticsNtB4_16AnalyticsManager9add_alert0B8_
FN:897,_RNCNvNtNtCsezqlaDlZ1Zy_16wezterm_parallel10monitoring9analytics17current_timestamp0B7_
FN:522,_RNCNCNvMNtNtCsbBf3qmLqCJ0_16wezterm_parallel10monitoring9analyticsNtB6_16AnalyticsManager19analyze_performance0s4_0Ba_
FN:530,_RNCNCNvMNtNtCsbBf3qmLqCJ0_16wezterm_parallel10monitoring9analyticsNtB6_16AnalyticsManager19analyze_performance0s6_0Ba_
FN:540,_RNCNCNvMNtNtCsbBf3qmLqCJ0_16wezterm_parallel10monitoring9analyticsNtB6_16AnalyticsManager19analyze_performance0s7_0Ba_
FN:628,_RNCNCNvMNtNtCsbBf3qmLqCJ0_16wezterm_parallel10monitoring9analyticsNtB6_16AnalyticsManager19analyze_reliability00Ba_
FN:468,_RNCNCNvMNtNtCsbBf3qmLqCJ0_16wezterm_parallel10monitoring9analyticsNtB6_16AnalyticsManager19get_alerts_in_range00Ba_
FN:458,_RNCNCNvMNtNtCsbBf3qmLqCJ0_16wezterm_parallel10monitoring9analyticsNtB6_16AnalyticsManager20get_metrics_in_range00Ba_
FN:836,_RNCNCNvMNtNtCsbBf3qmLqCJ0_16wezterm_parallel10monitoring9analyticsNtB6_16AnalyticsManager26generate_executive_summary00Ba_
FN:842,_RNCNCNvMNtNtCsbBf3qmLqCJ0_16wezterm_parallel10monitoring9analyticsNtB6_16AnalyticsManager26generate_executive_summary0s0_0Ba_
FN:848,_RNCNCNvMNtNtCsbBf3qmLqCJ0_16wezterm_parallel10monitoring9analyticsNtB6_16AnalyticsManager26generate_executive_summary0s1_0Ba_
FN:837,_RNCNCNvMNtNtCsbBf3qmLqCJ0_16wezterm_parallel10monitoring9analyticsNtB6_16AnalyticsManager26generate_executive_summary0s_0Ba_
FN:478,_RNCNCNvMNtNtCsbBf3qmLqCJ0_16wezterm_parallel10monitoring9analyticsNtB6_16AnalyticsManager26get_health_checks_in_range00Ba_
FN:667,_RNCNvMNtNtCsbBf3qmLqCJ0_16wezterm_parallel10monitoring9analyticsNtB4_16AnalyticsManager13analyze_usage0B8_
FN:719,_RNCNvMNtNtCsbBf3qmLqCJ0_16wezterm_parallel10monitoring9analyticsNtB4_16AnalyticsManager14analyze_trends0B8_
FN:419,_RNCNvMNtNtCsbBf3qmLqCJ0_16wezterm_parallel10monitoring9analyticsNtB4_16AnalyticsManager15generate_report0B8_
FN:408,_RNCNvMNtNtCsbBf3qmLqCJ0_16wezterm_parallel10monitoring9analyticsNtB4_16AnalyticsManager16add_health_check0B8_
FN:484,_RNCNvMNtNtCsbBf3qmLqCJ0_16wezterm_parallel10monitoring9analyticsNtB4_16AnalyticsManager19analyze_performance0B8_
FN:624,_RNCNvMNtNtCsbBf3qmLqCJ0_16wezterm_parallel10monitoring9analyticsNtB4_16AnalyticsManager19analyze_reliability0B8_
FN:464,_RNCNvMNtNtCsbBf3qmLqCJ0_16wezterm_parallel10monitoring9analyticsNtB4_16AnalyticsManager19get_alerts_in_range0B8_
FN:454,_RNCNvMNtNtCsbBf3qmLqCJ0_16wezterm_parallel10monitoring9analyticsNtB4_16AnalyticsManager20get_metrics_in_range0B8_
FN:774,_RNCNvMNtNtCsbBf3qmLqCJ0_16wezterm_parallel10monitoring9analyticsNtB4_16AnalyticsManager24generate_recommendations0B8_
FN:823,_RNCNvMNtNtCsbBf3qmLqCJ0_16wezterm_parallel10monitoring9analyticsNtB4_16AnalyticsManager26generate_executive_summary0B8_
FN:474,_RNCNvMNtNtCsbBf3qmLqCJ0_16wezterm_parallel10monitoring9analyticsNtB4_16AnalyticsManager26get_health_checks_in_range0B8_
FN:397,_RNCNvMNtNtCsbBf3qmLqCJ0_16wezterm_parallel10monitoring9analyticsNtB4_16AnalyticsManager9add_alert0B8_
FN:667,_RNvMNtNtCsbBf3qmLqCJ0_16wezterm_parallel10monitoring9analyticsNtB2_16AnalyticsManager13analyze_usage
FN:719,_RNvMNtNtCsbBf3qmLqCJ0_16wezterm_parallel10monitoring9analyticsNtB2_16AnalyticsManager14analyze_trends
FN:419,_RNvMNtNtCsbBf3qmLqCJ0_16wezterm_parallel10monitoring9analyticsNtB2_16AnalyticsManager15generate_report
FN:408,_RNvMNtNtCsbBf3qmLqCJ0_16wezterm_parallel10monitoring9analyticsNtB2_16AnalyticsManager16add_health_check
FN:484,_RNvMNtNtCsbBf3qmLqCJ0_16wezterm_parallel10monitoring9analyticsNtB2_16AnalyticsManager19analyze_performance
FN:619,_RNvMNtNtCsbBf3qmLqCJ0_16wezterm_parallel10monitoring9analyticsNtB2_16AnalyticsManager19analyze_reliability
FN:464,_RNvMNtNtCsbBf3qmLqCJ0_16wezterm_parallel10monitoring9analyticsNtB2_16AnalyticsManager19get_alerts_in_range
FN:454,_RNvMNtNtCsbBf3qmLqCJ0_16wezterm_parallel10monitoring9analyticsNtB2_16AnalyticsManager20get_metrics_in_range
FN:768,_RNvMNtNtCsbBf3qmLqCJ0_16wezterm_parallel10monitoring9analyticsNtB2_16AnalyticsManager24generate_recommendations
FN:817,_RNvMNtNtCsbBf3qmLqCJ0_16wezterm_parallel10monitoring9analyticsNtB2_16AnalyticsManager26generate_executive_summary
FN:474,_RNvMNtNtCsbBf3qmLqCJ0_16wezterm_parallel10monitoring9analyticsNtB2_16AnalyticsManager26get_health_checks_in_range
FN:397,_RNvMNtNtCsbBf3qmLqCJ0_16wezterm_parallel10monitoring9analyticsNtB2_16AnalyticsManager9add_alert
FN:905,_RNvXs_NtNtCsbBf3qmLqCJ0_16wezterm_parallel10monitoring9analyticsNtB4_16AnalyticsManagerNtNtCsd2KPTObkMr_4core7default7Default7default
FN:381,_RNCNvMNtNtCsbBf3qmLqCJ0_16wezterm_parallel10monitoring9analyticsNtB4_16AnalyticsManager11add_metrics0B8_
FN:888,_RNCNvMNtNtCsbBf3qmLqCJ0_16wezterm_parallel10monitoring9analyticsNtB4_16AnalyticsManager13get_baselines0B8_
FN:863,_RNCNvMNtNtCsbBf3qmLqCJ0_16wezterm_parallel10monitoring9analyticsNtB4_16AnalyticsManager16update_baselines0B8_
FN:897,_RNCNvNtNtCsbBf3qmLqCJ0_16wezterm_parallel10monitoring9analytics17current_timestamp0B7_
FN:381,_RNvMNtNtCsbBf3qmLqCJ0_16wezterm_parallel10monitoring9analyticsNtB2_16AnalyticsManager11add_metrics
FN:888,_RNvMNtNtCsbBf3qmLqCJ0_16wezterm_parallel10monitoring9analyticsNtB2_16AnalyticsManager13get_baselines
FN:863,_RNvMNtNtCsbBf3qmLqCJ0_16wezterm_parallel10monitoring9analyticsNtB2_16AnalyticsManager16update_baselines
FN:370,_RNvMNtNtCsbBf3qmLqCJ0_16wezterm_parallel10monitoring9analyticsNtB2_16AnalyticsManager3new
FN:894,_RNvNtNtCsbBf3qmLqCJ0_16wezterm_parallel10monitoring9analytics17current_timestamp
FN:922,_RNvNtNtNtCsbBf3qmLqCJ0_16wezterm_parallel10monitoring9analytics5testss_21test_metrics_addition
FN:915,_RNvNtNtNtCsbBf3qmLqCJ0_16wezterm_parallel10monitoring9analytics5testss_31test_analytics_manager_creation
FN:922,_RNCNvNtNtNtCsbBf3qmLqCJ0_16wezterm_parallel10monitoring9analytics5testss_21test_metrics_addition0B9_
FN:915,_RNCNvNtNtNtCsbBf3qmLqCJ0_16wezterm_parallel10monitoring9analytics5testss_31test_analytics_manager_creation0B9_
FNDA:0,_RNCNCNvMNtNtCsezqlaDlZ1Zy_16wezterm_parallel10monitoring9analyticsNtB6_16AnalyticsManager19analyze_performance0s4_0Ba_
FNDA:0,_RNCNCNvMNtNtCsezqlaDlZ1Zy_16wezterm_parallel10monitoring9analyticsNtB6_16AnalyticsManager19analyze_performance0s6_0Ba_
FNDA:0,_RNCNCNvMNtNtCsezqlaDlZ1Zy_16wezterm_parallel10monitoring9analyticsNtB6_16AnalyticsManager19analyze_performance0s7_0Ba_
FNDA:0,_RNCNCNvMNtNtCsezqlaDlZ1Zy_16wezterm_parallel10monitoring9analyticsNtB6_16AnalyticsManager19analyze_reliability00Ba_
FNDA:0,_RNCNCNvMNtNtCsezqlaDlZ1Zy_16wezterm_parallel10monitoring9analyticsNtB6_16AnalyticsManager19get_alerts_in_range00Ba_
FNDA:0,_RNCNCNvMNtNtCsezqlaDlZ1Zy_16wezterm_parallel10monitoring9analyticsNtB6_16AnalyticsManager20get_metrics_in_range00Ba_
FNDA:0,_RNCNCNvMNtNtCsezqlaDlZ1Zy_16wezterm_parallel10monitoring9analyticsNtB6_16AnalyticsManager26generate_executive_summary00Ba_
FNDA:0,_RNCNCNvMNtNtCsezqlaDlZ1Zy_16wezterm_parallel10monitoring9analyticsNtB6_16AnalyticsManager26generate_executive_summary0s0_0Ba_
FNDA:0,_RNCNCNvMNtNtCsezqlaDlZ1Zy_16wezterm_parallel10monitoring9analyticsNtB6_16AnalyticsManager26generate_executive_summary0s1_0Ba_
FNDA:0,_RNCNCNvMNtNtCsezqlaDlZ1Zy_16wezterm_parallel10monitoring9analyticsNtB6_16AnalyticsManager26generate_executive_summary0s_0Ba_
FNDA:0,_RNCNCNvMNtNtCsezqlaDlZ1Zy_16wezterm_parallel10monitoring9analyticsNtB6_16AnalyticsManager26get_health_checks_in_range00Ba_
FNDA:0,_RNCNvMNtNtCsezqlaDlZ1Zy_16wezterm_parallel10monitoring9analyticsNtB4_16AnalyticsManager11add_metrics0B8_
FNDA:0,_RNCNvMNtNtCsezqlaDlZ1Zy_16wezterm_parallel10monitoring9analyticsNtB4_16AnalyticsManager13analyze_usage0B8_
FNDA:0,_RNCNvMNtNtCsezqlaDlZ1Zy_16wezterm_parallel10monitoring9analyticsNtB4_16AnalyticsManager13get_baselines0B8_
FNDA:0,_RNCNvMNtNtCsezqlaDlZ1Zy_16wezterm_parallel10monitoring9analyticsNtB4_16AnalyticsManager14analyze_trends0B8_
FNDA:0,_RNCNvMNtNtCsezqlaDlZ1Zy_16wezterm_parallel10monitoring9analyticsNtB4_16AnalyticsManager15generate_report0B8_
FNDA:0,_RNCNvMNtNtCsezqlaDlZ1Zy_16wezterm_parallel10monitoring9analyticsNtB4_16AnalyticsManager16add_health_check0B8_
FNDA:0,_RNCNvMNtNtCsezqlaDlZ1Zy_16wezterm_parallel10monitoring9analyticsNtB4_16AnalyticsManager16update_baselines0B8_
FNDA:0,_RNCNvMNtNtCsezqlaDlZ1Zy_16wezterm_parallel10monitoring9analyticsNtB4_16AnalyticsManager19analyze_performance0B8_
FNDA:0,_RNCNvMNtNtCsezqlaDlZ1Zy_16wezterm_parallel10monitoring9analyticsNtB4_16AnalyticsManager19analyze_reliability0B8_
FNDA:0,_RNCNvMNtNtCsezqlaDlZ1Zy_16wezterm_parallel10monitoring9analyticsNtB4_16AnalyticsManager19get_alerts_in_range0B8_
FNDA:0,_RNCNvMNtNtCsezqlaDlZ1Zy_16wezterm_parallel10monitoring9analyticsNtB4_16AnalyticsManager20get_metrics_in_range0B8_
FNDA:0,_RNCNvMNtNtCsezqlaDlZ1Zy_16wezterm_parallel10monitoring9analyticsNtB4_16AnalyticsManager24generate_recommendations0B8_
FNDA:0,_RNCNvMNtNtCsezqlaDlZ1Zy_16wezterm_parallel10monitoring9analyticsNtB4_16AnalyticsManager26generate_executive_summary0B8_
FNDA:0,_RNCNvMNtNtCsezqlaDlZ1Zy_16wezterm_parallel10monitoring9analyticsNtB4_16AnalyticsManager26get_health_checks_in_range0B8_
FNDA:0,_RNCNvMNtNtCsezqlaDlZ1Zy_16wezterm_parallel10monitoring9analyticsNtB4_16AnalyticsManager9add_alert0B8_
FNDA:0,_RNCNvNtNtCsezqlaDlZ1Zy_16wezterm_parallel10monitoring9analytics17current_timestamp0B7_
FNDA:0,_RNCNCNvMNtNtCsbBf3qmLqCJ0_16wezterm_parallel10monitoring9analyticsNtB6_16AnalyticsManager19analyze_performance0s4_0Ba_
FNDA:0,_RNCNCNvMNtNtCsbBf3qmLqCJ0_16wezterm_parallel10monitoring9analyticsNtB6_16AnalyticsManager19analyze_performance0s6_0Ba_
FNDA:0,_RNCNCNvMNtNtCsbBf3qmLqCJ0_16wezterm_parallel10monitoring9analyticsNtB6_16AnalyticsManager19analyze_performance0s7_0Ba_
FNDA:0,_RNCNCNvMNtNtCsbBf3qmLqCJ0_16wezterm_parallel10monitoring9analyticsNtB6_16AnalyticsManager19analyze_reliability00Ba_
FNDA:0,_RNCNCNvMNtNtCsbBf3qmLqCJ0_16wezterm_parallel10monitoring9analyticsNtB6_16AnalyticsManager19get_alerts_in_range00Ba_
FNDA:0,_RNCNCNvMNtNtCsbBf3qmLqCJ0_16wezterm_parallel10monitoring9analyticsNtB6_16AnalyticsManager20get_metrics_in_range00Ba_
FNDA:0,_RNCNCNvMNtNtCsbBf3qmLqCJ0_16wezterm_parallel10monitoring9analyticsNtB6_16AnalyticsManager26generate_executive_summary00Ba_
FNDA:0,_RNCNCNvMNtNtCsbBf3qmLqCJ0_16wezterm_parallel10monitoring9analyticsNtB6_16AnalyticsManager26generate_executive_summary0s0_0Ba_
FNDA:0,_RNCNCNvMNtNtCsbBf3qmLqCJ0_16wezterm_parallel10monitoring9analyticsNtB6_16AnalyticsManager26generate_executive_summary0s1_0Ba_
FNDA:0,_RNCNCNvMNtNtCsbBf3qmLqCJ0_16wezterm_parallel10monitoring9analyticsNtB6_16AnalyticsManager26generate_executive_summary0s_0Ba_
FNDA:0,_RNCNCNvMNtNtCsbBf3qmLqCJ0_16wezterm_parallel10monitoring9analyticsNtB6_16AnalyticsManager26get_health_checks_in_range00Ba_
FNDA:0,_RNCNvMNtNtCsbBf3qmLqCJ0_16wezterm_parallel10monitoring9analyticsNtB4_16AnalyticsManager13analyze_usage0B8_
FNDA:0,_RNCNvMNtNtCsbBf3qmLqCJ0_16wezterm_parallel10monitoring9analyticsNtB4_16AnalyticsManager14analyze_trends0B8_
FNDA:0,_RNCNvMNtNtCsbBf3qmLqCJ0_16wezterm_parallel10monitoring9analyticsNtB4_16AnalyticsManager15generate_report0B8_
FNDA:0,_RNCNvMNtNtCsbBf3qmLqCJ0_16wezterm_parallel10monitoring9analyticsNtB4_16AnalyticsManager16add_health_check0B8_
FNDA:0,_RNCNvMNtNtCsbBf3qmLqCJ0_16wezterm_parallel10monitoring9analyticsNtB4_16AnalyticsManager19analyze_performance0B8_
FNDA:0,_RNCNvMNtNtCsbBf3qmLqCJ0_16wezterm_parallel10monitoring9analyticsNtB4_16AnalyticsManager19analyze_reliability0B8_
FNDA:0,_RNCNvMNtNtCsbBf3qmLqCJ0_16wezterm_parallel10monitoring9analyticsNtB4_16AnalyticsManager19get_alerts_in_range0B8_
FNDA:0,_RNCNvMNtNtCsbBf3qmLqCJ0_16wezterm_parallel10monitoring9analyticsNtB4_16AnalyticsManager20get_metrics_in_range0B8_
FNDA:0,_RNCNvMNtNtCsbBf3qmLqCJ0_16wezterm_parallel10monitoring9analyticsNtB4_16AnalyticsManager24generate_recommendations0B8_
FNDA:0,_RNCNvMNtNtCsbBf3qmLqCJ0_16wezterm_parallel10monitoring9analyticsNtB4_16AnalyticsManager26generate_executive_summary0B8_
FNDA:0,_RNCNvMNtNtCsbBf3qmLqCJ0_16wezterm_parallel10monitoring9analyticsNtB4_16AnalyticsManager26get_health_checks_in_range0B8_
FNDA:0,_RNCNvMNtNtCsbBf3qmLqCJ0_16wezterm_parallel10monitoring9analyticsNtB4_16AnalyticsManager9add_alert0B8_
FNDA:0,_RNvMNtNtCsbBf3qmLqCJ0_16wezterm_parallel10monitoring9analyticsNtB2_16AnalyticsManager13analyze_usage
FNDA:0,_RNvMNtNtCsbBf3qmLqCJ0_16wezterm_parallel10monitoring9analyticsNtB2_16AnalyticsManager14analyze_trends
FNDA:0,_RNvMNtNtCsbBf3qmLqCJ0_16wezterm_parallel10monitoring9analyticsNtB2_16AnalyticsManager15generate_report
FNDA:0,_RNvMNtNtCsbBf3qmLqCJ0_16wezterm_parallel10monitoring9analyticsNtB2_16AnalyticsManager16add_health_check
FNDA:0,_RNvMNtNtCsbBf3qmLqCJ0_16wezterm_parallel10monitoring9analyticsNtB2_16AnalyticsManager19analyze_performance
FNDA:0,_RNvMNtNtCsbBf3qmLqCJ0_16wezterm_parallel10monitoring9analyticsNtB2_16AnalyticsManager19analyze_reliability
FNDA:0,_RNvMNtNtCsbBf3qmLqCJ0_16wezterm_parallel10monitoring9analyticsNtB2_16AnalyticsManager19get_alerts_in_range
FNDA:0,_RNvMNtNtCsbBf3qmLqCJ0_16wezterm_parallel10monitoring9analyticsNtB2_16AnalyticsManager20get_metrics_in_range
FNDA:0,_RNvMNtNtCsbBf3qmLqCJ0_16wezterm_parallel10monitoring9analyticsNtB2_16AnalyticsManager24generate_recommendations
FNDA:0,_RNvMNtNtCsbBf3qmLqCJ0_16wezterm_parallel10monitoring9analyticsNtB2_16AnalyticsManager26generate_executive_summary
FNDA:0,_RNvMNtNtCsbBf3qmLqCJ0_16wezterm_parallel10monitoring9analyticsNtB2_16AnalyticsManager26get_health_checks_in_range
FNDA:0,_RNvMNtNtCsbBf3qmLqCJ0_16wezterm_parallel10monitoring9analyticsNtB2_16AnalyticsManager9add_alert
FNDA:0,_RNvXs_NtNtCsbBf3qmLqCJ0_16wezterm_parallel10monitoring9analyticsNtB4_16AnalyticsManagerNtNtCsd2KPTObkMr_4core7default7Default7default
FNDA:1,_RNCNvMNtNtCsbBf3qmLqCJ0_16wezterm_parallel10monitoring9analyticsNtB4_16AnalyticsManager11add_metrics0B8_
FNDA:1,_RNCNvMNtNtCsbBf3qmLqCJ0_16wezterm_parallel10monitoring9analyticsNtB4_16AnalyticsManager13get_baselines0B8_
FNDA:0,_RNCNvMNtNtCsbBf3qmLqCJ0_16wezterm_parallel10monitoring9analyticsNtB4_16AnalyticsManager16update_baselines0B8_
FNDA:0,_RNCNvNtNtCsbBf3qmLqCJ0_16wezterm_parallel10monitoring9analytics17current_timestamp0B7_
FNDA:1,_RNvMNtNtCsbBf3qmLqCJ0_16wezterm_parallel10monitoring9analyticsNtB2_16AnalyticsManager11add_metrics
FNDA:1,_RNvMNtNtCsbBf3qmLqCJ0_16wezterm_parallel10monitoring9analyticsNtB2_16AnalyticsManager13get_baselines
FNDA:0,_RNvMNtNtCsbBf3qmLqCJ0_16wezterm_parallel10monitoring9analyticsNtB2_16AnalyticsManager16update_baselines
FNDA:2,_RNvMNtNtCsbBf3qmLqCJ0_16wezterm_parallel10monitoring9analyticsNtB2_16AnalyticsManager3new
FNDA:1,_RNvNtNtCsbBf3qmLqCJ0_16wezterm_parallel10monitoring9analytics17current_timestamp
FNDA:1,_RNvNtNtNtCsbBf3qmLqCJ0_16wezterm_parallel10monitoring9analytics5testss_21test_metrics_addition
FNDA:1,_RNvNtNtNtCsbBf3qmLqCJ0_16wezterm_parallel10monitoring9analytics5testss_31test_analytics_manager_creation
FNDA:1,_RNCNvNtNtNtCsbBf3qmLqCJ0_16wezterm_parallel10monitoring9analytics5testss_21test_metrics_addition0B9_
FNDA:1,_RNCNvNtNtNtCsbBf3qmLqCJ0_16wezterm_parallel10monitoring9analytics5testss_31test_analytics_manager_creation0B9_
FNF:49
FNH:10
DA:370,2
DA:371,2
DA:372,2
DA:373,2
DA:374,2
DA:375,2
DA:376,2
DA:377,2
DA:378,2
DA:381,1
DA:382,1
DA:383,1
DA:386,1
DA:387,0
DA:388,1
DA:391,1
DA:392,0
DA:393,1
DA:394,1
DA:397,0
DA:398,0
DA:399,0
DA:402,0
DA:403,0
DA:404,0
DA:405,0
DA:408,0
DA:409,0
DA:410,0
DA:413,0
DA:414,0
DA:415,0
DA:416,0
DA:419,0
DA:420,0
DA:423,0
DA:424,0
DA:425,0
DA:428,0
DA:429,0
DA:430,0
DA:431,0
DA:432,0
DA:433,0
DA:434,0
DA:435,0
DA:436,0
DA:437,0
DA:438,0
DA:439,0
DA:441,0
DA:442,0
DA:443,0
DA:444,0
DA:445,0
DA:446,0
DA:447,0
DA:448,0
DA:449,0
DA:450,0
DA:451,0
DA:454,0
DA:455,0
DA:456,0
DA:457,0
DA:458,0
DA:459,0
DA:460,0
DA:461,0
DA:464,0
DA:465,0
DA:466,0
DA:467,0
DA:468,0
DA:469,0
DA:470,0
DA:471,0
DA:474,0
DA:475,0
DA:476,0
DA:477,0
DA:478,0
DA:479,0
DA:480,0
DA:481,0
DA:484,0
DA:485,0
DA:486,0
DA:487,0
DA:488,0
DA:489,0
DA:490,0
DA:491,0
DA:492,0
DA:493,0
DA:494,0
DA:495,0
DA:496,0
DA:497,0
DA:498,0
DA:499,0
DA:500,0
DA:501,0
DA:502,0
DA:503,0
DA:504,0
DA:505,0
DA:506,0
DA:507,0
DA:508,0
DA:509,0
DA:512,0
DA:513,0
DA:514,0
DA:517,0
DA:518,0
DA:519,0
DA:520,0
DA:521,0
DA:522,0
DA:523,0
DA:524,0
DA:527,0
DA:528,0
DA:529,0
DA:530,0
DA:531,0
DA:532,0
DA:534,0
DA:537,0
DA:538,0
DA:539,0
DA:540,0
DA:541,0
DA:542,0
DA:544,0
DA:548,0
DA:549,0
DA:551,0
DA:555,0
DA:557,0
DA:558,0
DA:559,0
DA:560,0
DA:561,0
DA:562,0
DA:564,0
DA:566,0
DA:568,0
DA:569,0
DA:571,0
DA:573,0
DA:574,0
DA:576,0
DA:578,0
DA:579,0
DA:580,0
DA:581,0
DA:582,0
DA:583,0
DA:585,0
DA:587,0
DA:588,0
DA:589,0
DA:591,0
DA:593,0
DA:594,0
DA:595,0
DA:596,0
DA:597,0
DA:598,0
DA:599,0
DA:600,0
DA:601,0
DA:602,0
DA:603,0
DA:604,0
DA:605,0
DA:606,0
DA:607,0
DA:608,0
DA:609,0
DA:610,0
DA:611,0
DA:612,0
DA:613,0
DA:614,0
DA:615,0
DA:616,0
DA:619,0
DA:620,0
DA:621,0
DA:622,0
DA:623,0
DA:624,0
DA:626,0
DA:627,0
DA:628,0
DA:629,0
DA:631,0
DA:632,0
DA:634,0
DA:638,0
DA:639,0
DA:640,0
DA:641,0
DA:642,0
DA:643,0
DA:644,0
DA:647,0
DA:648,0
DA:650,0
DA:651,0
DA:652,0
DA:653,0
DA:654,0
DA:655,0
DA:656,0
DA:657,0
DA:658,0
DA:659,0
DA:660,0
DA:661,0
DA:662,0
DA:663,0
DA:664,0
DA:667,0
DA:668,0
DA:670,0
DA:671,0
DA:672,0
DA:673,0
DA:674,0
DA:675,0
DA:676,0
DA:677,0
DA:678,0
DA:681,0
DA:682,0
DA:683,0
DA:685,0
DA:693,0
DA:694,0
DA:695,0
DA:696,0
DA:697,0
DA:698,0
DA:699,0
DA:700,0
DA:701,0
DA:702,0
DA:703,0
DA:704,0
DA:705,0
DA:706,0
DA:707,0
DA:708,0
DA:710,0
DA:711,0
DA:712,0
DA:713,0
DA:714,0
DA:715,0
DA:716,0
DA:719,0
DA:720,0
DA:721,0
DA:724,0
DA:725,0
DA:726,0
DA:727,0
DA:728,0
DA:729,0
DA:730,0
DA:731,0
DA:732,0
DA:733,0
DA:736,0
DA:737,0
DA:738,0
DA:739,0
DA:740,0
DA:741,0
DA:742,0
DA:743,0
DA:745,0
DA:746,0
DA:747,0
DA:748,0
DA:749,0
DA:750,0
DA:751,0
DA:752,0
DA:753,0
DA:754,0
DA:755,0
DA:756,0
DA:758,0
DA:759,0
DA:760,0
DA:761,0
DA:762,0
DA:763,0
DA:764,0
DA:765,0
DA:768,0
DA:769,0
DA:770,0
DA:771,0
DA:772,0
DA:773,0
DA:774,0
DA:775,0
DA:778,0
DA:779,0
DA:780,0
DA:781,0
DA:782,0
DA:783,0
DA:784,0
DA:785,0
DA:786,0
DA:787,0
DA:788,0
DA:789,0
DA:790,0
DA:791,0
DA:792,0
DA:793,0
DA:796,0
DA:797,0
DA:798,0
DA:799,0
DA:800,0
DA:801,0
DA:802,0
DA:803,0
DA:804,0
DA:805,0
DA:806,0
DA:807,0
DA:808,0
DA:809,0
DA:810,0
DA:811,0
DA:813,0
DA:814,0
DA:817,0
DA:818,0
DA:819,0
DA:820,0
DA:821,0
DA:822,0
DA:823,0
DA:824,0
DA:825,0
DA:826,0
DA:827,0
DA:829,0
DA:830,0
DA:831,0
DA:834,0
DA:835,0
DA:836,0
DA:837,0
DA:838,0
DA:840,0
DA:841,0
DA:842,0
DA:843,0
DA:844,0
DA:847,0
DA:848,0
DA:849,0
DA:850,0
DA:852,0
DA:853,0
DA:854,0
DA:855,0
DA:856,0
DA:857,0
DA:858,0
DA:859,0
DA:860,0
DA:863,0
DA:864,0
DA:866,0
DA:867,0
DA:868,0
DA:870,0
DA:872,0
DA:873,0
DA:874,0
DA:875,0
DA:876,0
DA:877,0
DA:879,0
DA:880,0
DA:881,0
DA:882,0
DA:883,0
DA:884,0
DA:885,0
DA:888,1
DA:889,1
DA:890,1
DA:894,1
DA:895,1
DA:896,1
DA:897,1
DA:898,0
DA:899,0
DA:900,0
DA:901,1
DA:902,1
DA:905,0
DA:906,0
DA:907,0
DA:915,1
DA:916,1
DA:917,1
DA:918,1
DA:919,1
DA:922,1
DA:923,1
DA:925,1
DA:926,1
DA:927,1
DA:928,1
DA:929,1
DA:930,1
DA:931,1
DA:932,1
DA:933,1
DA:934,1
DA:935,1
DA:936,1
DA:937,1
DA:938,1
DA:939,1
DA:941,1
DA:943,1
DA:944,1
DA:945,1
BRF:0
BRH:0
LF:475
LH:58
end_of_record
SF:/Users/aiq/work/wezterm-parallel/src/monitoring/health.rs
FN:585,_RNCNvNtNtCsezqlaDlZ1Zy_16wezterm_parallel10monitoring6health17current_timestamp0B7_
FN:442,_RNCNCNvMNtNtCsezqlaDlZ1Zy_16wezterm_parallel10monitoring6healthNtB6_18HealthCheckManager23check_persistence_layer00Ba_
FN:270,_RNCNvMNtNtCsezqlaDlZ1Zy_16wezterm_parallel10monitoring6healthNtB4_18HealthCheckManager16check_ipc_system0B8_
FN:372,_RNCNvMNtNtCsezqlaDlZ1Zy_16wezterm_parallel10monitoring6healthNtB4_18HealthCheckManager17check_file_system0B8_
FN:231,_RNCNvMNtNtCsezqlaDlZ1Zy_16wezterm_parallel10monitoring6healthNtB4_18HealthCheckManager18check_task_manager0B8_
FN:554,_RNCNvMNtNtCsezqlaDlZ1Zy_16wezterm_parallel10monitoring6healthNtB4_18HealthCheckManager18get_health_history0B8_
FN:86,_RNCNvMNtNtCsezqlaDlZ1Zy_16wezterm_parallel10monitoring6healthNtB4_18HealthCheckManager20perform_health_check0B8_
FN:537,_RNCNvMNtNtCsezqlaDlZ1Zy_16wezterm_parallel10monitoring6healthNtB4_18HealthCheckManager21update_health_history0B8_
FN:338,_RNCNvMNtNtCsezqlaDlZ1Zy_16wezterm_parallel10monitoring6healthNtB4_18HealthCheckManager22check_websocket_server0B8_
FN:436,_RNCNvMNtNtCsezqlaDlZ1Zy_16wezterm_parallel10monitoring6healthNtB4_18HealthCheckManager23check_persistence_layer0B8_
FN:174,_RNCNvMNtNtCsezqlaDlZ1Zy_16wezterm_parallel10monitoring6healthNtB4_18HealthCheckManager23check_workspace_manager0B8_
FN:496,_RNCNvMNtNtCsezqlaDlZ1Zy_16wezterm_parallel10monitoring6healthNtB4_18HealthCheckManager23create_component_health0B8_
FN:548,_RNCNvMNtNtCsezqlaDlZ1Zy_16wezterm_parallel10monitoring6healthNtB4_18HealthCheckManager23get_latest_health_check0B8_
FN:62,_RNCNvMNtNtCsezqlaDlZ1Zy_16wezterm_parallel10monitoring6healthNtB4_18HealthCheckManager5start0B8_
FN:599,_RNCNvNtNtNtCsbBf3qmLqCJ0_16wezterm_parallel10monitoring6health5testss_34test_health_check_manager_creation0B9_
FN:442,_RNCNCNvMNtNtCsbBf3qmLqCJ0_16wezterm_parallel10monitoring6healthNtB6_18HealthCheckManager23check_persistence_layer00Ba_
FN:270,_RNCNvMNtNtCsbBf3qmLqCJ0_16wezterm_parallel10monitoring6healthNtB4_18HealthCheckManager16check_ipc_system0B8_
FN:372,_RNCNvMNtNtCsbBf3qmLqCJ0_16wezterm_parallel10monitoring6healthNtB4_18HealthCheckManager17check_file_system0B8_
FN:231,_RNCNvMNtNtCsbBf3qmLqCJ0_16wezterm_parallel10monitoring6healthNtB4_18HealthCheckManager18check_task_manager0B8_
FN:554,_RNCNvMNtNtCsbBf3qmLqCJ0_16wezterm_parallel10monitoring6healthNtB4_18HealthCheckManager18get_health_history0B8_
FN:86,_RNCNvMNtNtCsbBf3qmLqCJ0_16wezterm_parallel10monitoring6healthNtB4_18HealthCheckManager20perform_health_check0B8_
FN:537,_RNCNvMNtNtCsbBf3qmLqCJ0_16wezterm_parallel10monitoring6healthNtB4_18HealthCheckManager21update_health_history0B8_
FN:338,_RNCNvMNtNtCsbBf3qmLqCJ0_16wezterm_parallel10monitoring6healthNtB4_18HealthCheckManager22check_websocket_server0B8_
FN:436,_RNCNvMNtNtCsbBf3qmLqCJ0_16wezterm_parallel10monitoring6healthNtB4_18HealthCheckManager23check_persistence_layer0B8_
FN:174,_RNCNvMNtNtCsbBf3qmLqCJ0_16wezterm_parallel10monitoring6healthNtB4_18HealthCheckManager23check_workspace_manager0B8_
FN:496,_RNCNvMNtNtCsbBf3qmLqCJ0_16wezterm_parallel10monitoring6healthNtB4_18HealthCheckManager23create_component_health0B8_
FN:62,_RNCNvMNtNtCsbBf3qmLqCJ0_16wezterm_parallel10monitoring6healthNtB4_18HealthCheckManager5start0B8_
FN:585,_RNCNvNtNtCsbBf3qmLqCJ0_16wezterm_parallel10monitoring6health17current_timestamp0B7_
FN:270,_RNvMNtNtCsbBf3qmLqCJ0_16wezterm_parallel10monitoring6healthNtB2_18HealthCheckManager16check_ipc_system
FN:372,_RNvMNtNtCsbBf3qmLqCJ0_16wezterm_parallel10monitoring6healthNtB2_18HealthCheckManager17check_file_system
FN:231,_RNvMNtNtCsbBf3qmLqCJ0_16wezterm_parallel10monitoring6healthNtB2_18HealthCheckManager18check_task_manager
FN:554,_RNvMNtNtCsbBf3qmLqCJ0_16wezterm_parallel10monitoring6healthNtB2_18HealthCheckManager18get_health_history
FN:86,_RNvMNtNtCsbBf3qmLqCJ0_16wezterm_parallel10monitoring6healthNtB2_18HealthCheckManager20perform_health_check
FN:537,_RNvMNtNtCsbBf3qmLqCJ0_16wezterm_parallel10monitoring6healthNtB2_18HealthCheckManager21update_health_history
FN:338,_RNvMNtNtCsbBf3qmLqCJ0_16wezterm_parallel10monitoring6healthNtB2_18HealthCheckManager22check_websocket_server
FN:436,_RNvMNtNtCsbBf3qmLqCJ0_16wezterm_parallel10monitoring6healthNtB2_18HealthCheckManager23check_persistence_layer
FN:174,_RNvMNtNtCsbBf3qmLqCJ0_16wezterm_parallel10monitoring6healthNtB2_18HealthCheckManager23check_workspace_manager
FN:493,_RNvMNtNtCsbBf3qmLqCJ0_16wezterm_parallel10monitoring6healthNtB2_18HealthCheckManager23create_component_health
FN:62,_RNvMNtNtCsbBf3qmLqCJ0_16wezterm_parallel10monitoring6healthNtB2_18HealthCheckManager5start
FN:582,_RNvNtNtCsbBf3qmLqCJ0_16wezterm_parallel10monitoring6health17current_timestamp
FN:572,_RNvNtNtCsbBf3qmLqCJ0_16wezterm_parallel10monitoring6health23health_status_to_string
FN:611,_RNvNtNtNtCsbBf3qmLqCJ0_16wezterm_parallel10monitoring6health5testss_17test_worst_status
FN:599,_RNvNtNtNtCsbBf3qmLqCJ0_16wezterm_parallel10monitoring6health5testss_34test_health_check_manager_creation
FN:548,_RNCNvMNtNtCsbBf3qmLqCJ0_16wezterm_parallel10monitoring6healthNtB4_18HealthCheckManager23get_latest_health_check0B8_
FN:548,_RNvMNtNtCsbBf3qmLqCJ0_16wezterm_parallel10monitoring6healthNtB2_18HealthCheckManager23get_latest_health_check
FN:46,_RNvMNtNtCsbBf3qmLqCJ0_16wezterm_parallel10monitoring6healthNtB2_18HealthCheckManager3new
FN:562,_RNvNtNtCsbBf3qmLqCJ0_16wezterm_parallel10monitoring6health12worst_status
FNDA:0,_RNCNvNtNtCsezqlaDlZ1Zy_16wezterm_parallel10monitoring6health17current_timestamp0B7_
FNDA:0,_RNCNCNvMNtNtCsezqlaDlZ1Zy_16wezterm_parallel10monitoring6healthNtB6_18HealthCheckManager23check_persistence_layer00Ba_
FNDA:0,_RNCNvMNtNtCsezqlaDlZ1Zy_16wezterm_parallel10monitoring6healthNtB4_18HealthCheckManager16check_ipc_system0B8_
FNDA:0,_RNCNvMNtNtCsezqlaDlZ1Zy_16wezterm_parallel10monitoring6healthNtB4_18HealthCheckManager17check_file_system0B8_
FNDA:0,_RNCNvMNtNtCsezqlaDlZ1Zy_16wezterm_parallel10monitoring6healthNtB4_18HealthCheckManager18check_task_manager0B8_
FNDA:0,_RNCNvMNtNtCsezqlaDlZ1Zy_16wezterm_parallel10monitoring6healthNtB4_18HealthCheckManager18get_health_history0B8_
FNDA:0,_RNCNvMNtNtCsezqlaDlZ1Zy_16wezterm_parallel10monitoring6healthNtB4_18HealthCheckManager20perform_health_check0B8_
FNDA:0,_RNCNvMNtNtCsezqlaDlZ1Zy_16wezterm_parallel10monitoring6healthNtB4_18HealthCheckManager21update_health_history0B8_
FNDA:0,_RNCNvMNtNtCsezqlaDlZ1Zy_16wezterm_parallel10monitoring6healthNtB4_18HealthCheckManager22check_websocket_server0B8_
FNDA:0,_RNCNvMNtNtCsezqlaDlZ1Zy_16wezterm_parallel10monitoring6healthNtB4_18HealthCheckManager23check_persistence_layer0B8_
FNDA:0,_RNCNvMNtNtCsezqlaDlZ1Zy_16wezterm_parallel10monitoring6healthNtB4_18HealthCheckManager23check_workspace_manager0B8_
FNDA:0,_RNCNvMNtNtCsezqlaDlZ1Zy_16wezterm_parallel10monitoring6healthNtB4_18HealthCheckManager23create_component_health0B8_
FNDA:0,_RNCNvMNtNtCsezqlaDlZ1Zy_16wezterm_parallel10monitoring6healthNtB4_18HealthCheckManager23get_latest_health_check0B8_
FNDA:0,_RNCNvMNtNtCsezqlaDlZ1Zy_16wezterm_parallel10monitoring6healthNtB4_18HealthCheckManager5start0B8_
FNDA:1,_RNCNvNtNtNtCsbBf3qmLqCJ0_16wezterm_parallel10monitoring6health5testss_34test_health_check_manager_creation0B9_
FNDA:0,_RNCNCNvMNtNtCsbBf3qmLqCJ0_16wezterm_parallel10monitoring6healthNtB6_18HealthCheckManager23check_persistence_layer00Ba_
FNDA:0,_RNCNvMNtNtCsbBf3qmLqCJ0_16wezterm_parallel10monitoring6healthNtB4_18HealthCheckManager16check_ipc_system0B8_
FNDA:0,_RNCNvMNtNtCsbBf3qmLqCJ0_16wezterm_parallel10monitoring6healthNtB4_18HealthCheckManager17check_file_system0B8_
FNDA:0,_RNCNvMNtNtCsbBf3qmLqCJ0_16wezterm_parallel10monitoring6healthNtB4_18HealthCheckManager18check_task_manager0B8_
FNDA:0,_RNCNvMNtNtCsbBf3qmLqCJ0_16wezterm_parallel10monitoring6healthNtB4_18HealthCheckManager18get_health_history0B8_
FNDA:0,_RNCNvMNtNtCsbBf3qmLqCJ0_16wezterm_parallel10monitoring6healthNtB4_18HealthCheckManager20perform_health_check0B8_
FNDA:0,_RNCNvMNtNtCsbBf3qmLqCJ0_16wezterm_parallel10monitoring6healthNtB4_18HealthCheckManager21update_health_history0B8_
FNDA:0,_RNCNvMNtNtCsbBf3qmLqCJ0_16wezterm_parallel10monitoring6healthNtB4_18HealthCheckManager22check_websocket_server0B8_
FNDA:0,_RNCNvMNtNtCsbBf3qmLqCJ0_16wezterm_parallel10monitoring6healthNtB4_18HealthCheckManager23check_persistence_layer0B8_
FNDA:0,_RNCNvMNtNtCsbBf3qmLqCJ0_16wezterm_parallel10monitoring6healthNtB4_18HealthCheckManager23check_workspace_manager0B8_
FNDA:0,_RNCNvMNtNtCsbBf3qmLqCJ0_16wezterm_parallel10monitoring6healthNtB4_18HealthCheckManager23create_component_health0B8_
FNDA:0,_RNCNvMNtNtCsbBf3qmLqCJ0_16wezterm_parallel10monitoring6healthNtB4_18HealthCheckManager5start0B8_
FNDA:0,_RNCNvNtNtCsbBf3qmLqCJ0_16wezterm_parallel10monitoring6health17current_timestamp0B7_
FNDA:0,_RNvMNtNtCsbBf3qmLqCJ0_16wezterm_parallel10monitoring6healthNtB2_18HealthCheckManager16check_ipc_system
FNDA:0,_RNvMNtNtCsbBf3qmLqCJ0_16wezterm_parallel10monitoring6healthNtB2_18HealthCheckManager17check_file_system
FNDA:0,_RNvMNtNtCsbBf3qmLqCJ0_16wezterm_parallel10monitoring6healthNtB2_18HealthCheckManager18check_task_manager
FNDA:0,_RNvMNtNtCsbBf3qmLqCJ0_16wezterm_parallel10monitoring6healthNtB2_18HealthCheckManager18get_health_history
FNDA:0,_RNvMNtNtCsbBf3qmLqCJ0_16wezterm_parallel10monitoring6healthNtB2_18HealthCheckManager20perform_health_check
FNDA:0,_RNvMNtNtCsbBf3qmLqCJ0_16wezterm_parallel10monitoring6healthNtB2_18HealthCheckManager21update_health_history
FNDA:0,_RNvMNtNtCsbBf3qmLqCJ0_16wezterm_parallel10monitoring6healthNtB2_18HealthCheckManager22check_websocket_server
FNDA:0,_RNvMNtNtCsbBf3qmLqCJ0_16wezterm_parallel10monitoring6healthNtB2_18HealthCheckManager23check_persistence_layer
FNDA:0,_RNvMNtNtCsbBf3qmLqCJ0_16wezterm_parallel10monitoring6healthNtB2_18HealthCheckManager23check_workspace_manager
FNDA:0,_RNvMNtNtCsbBf3qmLqCJ0_16wezterm_parallel10monitoring6healthNtB2_18HealthCheckManager23create_component_health
FNDA:0,_RNvMNtNtCsbBf3qmLqCJ0_16wezterm_parallel10monitoring6healthNtB2_18HealthCheckManager5start
FNDA:0,_RNvNtNtCsbBf3qmLqCJ0_16wezterm_parallel10monitoring6health17current_timestamp
FNDA:0,_RNvNtNtCsbBf3qmLqCJ0_16wezterm_parallel10monitoring6health23health_status_to_string
FNDA:1,_RNvNtNtNtCsbBf3qmLqCJ0_16wezterm_parallel10monitoring6health5testss_17test_worst_status
FNDA:1,_RNvNtNtNtCsbBf3qmLqCJ0_16wezterm_parallel10monitoring6health5testss_34test_health_check_manager_creation
FNDA:1,_RNCNvMNtNtCsbBf3qmLqCJ0_16wezterm_parallel10monitoring6healthNtB4_18HealthCheckManager23get_latest_health_check0B8_
FNDA:1,_RNvMNtNtCsbBf3qmLqCJ0_16wezterm_parallel10monitoring6healthNtB2_18HealthCheckManager23get_latest_health_check
FNDA:1,_RNvMNtNtCsbBf3qmLqCJ0_16wezterm_parallel10monitoring6healthNtB2_18HealthCheckManager3new
FNDA:4,_RNvNtNtCsbBf3qmLqCJ0_16wezterm_parallel10monitoring6health12worst_status
FNF:33
FNH:7
DA:46,1
DA:47,1
DA:48,1
DA:49,1
DA:50,1
DA:51,1
DA:52,1
DA:53,1
DA:54,1
DA:55,1
DA:56,1
DA:57,1
DA:58,1
DA:59,1
DA:62,0
DA:63,0
DA:64,0
DA:69,0
DA:71,0
DA:72,0
DA:73,0
DA:74,0
DA:76,0
DA:77,0
DA:81,0
DA:86,0
DA:87,0
DA:88,0
DA:90,0
DA:92,0
DA:93,0
DA:96,0
DA:97,0
DA:98,0
DA:99,0
DA:100,0
DA:101,0
DA:102,0
DA:106,0
DA:107,0
DA:108,0
DA:109,0
DA:110,0
DA:111,0
DA:112,0
DA:116,0
DA:117,0
DA:118,0
DA:119,0
DA:120,0
DA:121,0
DA:122,0
DA:126,0
DA:127,0
DA:128,0
DA:129,0
DA:130,0
DA:131,0
DA:132,0
DA:136,0
DA:137,0
DA:138,0
DA:139,0
DA:140,0
DA:141,0
DA:142,0
DA:146,0
DA:147,0
DA:148,0
DA:149,0
DA:150,0
DA:151,0
DA:152,0
DA:155,0
DA:157,0
DA:158,0
DA:159,0
DA:160,0
DA:161,0
DA:162,0
DA:164,0
DA:165,0
DA:166,0
DA:170,0
DA:171,0
DA:174,0
DA:175,0
DA:176,0
DA:178,0
DA:179,0
DA:180,0
DA:181,0
DA:182,0
DA:184,0
DA:185,0
DA:188,0
DA:189,0
DA:190,0
DA:191,0
DA:192,0
DA:193,0
DA:194,0
DA:195,0
DA:196,0
DA:197,0
DA:198,0
DA:199,0
DA:200,0
DA:201,0
DA:202,0
DA:204,0
DA:205,0
DA:206,0
DA:207,0
DA:208,0
DA:209,0
DA:210,0
DA:211,0
DA:212,0
DA:213,0
DA:214,0
DA:215,0
DA:216,0
DA:217,0
DA:220,0
DA:221,0
DA:222,0
DA:223,0
DA:224,0
DA:225,0
DA:226,0
DA:228,0
DA:231,0
DA:232,0
DA:233,0
DA:236,0
DA:237,0
DA:240,0
DA:241,0
DA:243,0
DA:244,0
DA:246,0
DA:249,0
DA:250,0
DA:251,0
DA:252,0
DA:253,0
DA:254,0
DA:255,0
DA:256,0
DA:257,0
DA:258,0
DA:259,0
DA:260,0
DA:261,0
DA:262,0
DA:263,0
DA:264,0
DA:265,0
DA:266,0
DA:267,0
DA:270,0
DA:271,0
DA:272,0
DA:275,0
DA:277,0
DA:278,0
DA:279,0
DA:281,0
DA:282,0
DA:283,0
DA:284,0
DA:285,0
DA:286,0
DA:287,0
DA:288,0
DA:289,0
DA:290,0
DA:291,0
DA:292,0
DA:293,0
DA:294,0
DA:295,0
DA:296,0
DA:297,0
DA:299,0
DA:300,0
DA:301,0
DA:302,0
DA:303,0
DA:304,0
DA:305,0
DA:306,0
DA:307,0
DA:308,0
DA:309,0
DA:310,0
DA:311,0
DA:312,0
DA:313,0
DA:314,0
DA:315,0
DA:316,0
DA:319,0
DA:320,0
DA:321,0
DA:322,0
DA:323,0
DA:324,0
DA:325,0
DA:326,0
DA:327,0
DA:328,0
DA:329,0
DA:330,0
DA:331,0
DA:332,0
DA:333,0
DA:335,0
DA:338,0
DA:339,0
DA:340,0
DA:343,0
DA:344,0
DA:345,0
DA:346,0
DA:347,0
DA:348,0
DA:349,0
DA:350,0
DA:351,0
DA:352,0
DA:353,0
DA:354,0
DA:355,0
DA:356,0
DA:357,0
DA:358,0
DA:359,0
DA:360,0
DA:361,0
DA:362,0
DA:363,0
DA:364,0
DA:365,0
DA:366,0
DA:367,0
DA:369,0
DA:372,0
DA:373,0
DA:374,0
DA:377,0
DA:379,0
DA:382,0
DA:383,0
DA:385,0
DA:387,0
DA:388,0
DA:389,0
DA:390,0
DA:391,0
DA:392,0
DA:393,0
DA:394,0
DA:395,0
DA:396,0
DA:397,0
DA:398,0
DA:399,0
DA:400,0
DA:401,0
DA:402,0
DA:403,0
DA:404,0
DA:405,0
DA:407,0
DA:408,0
DA:409,0
DA:410,0
DA:411,0
DA:412,0
DA:413,0
DA:416,0
DA:417,0
DA:418,0
DA:419,0
DA:420,0
DA:421,0
DA:422,0
DA:425,0
DA:426,0
DA:427,0
DA:428,0
DA:429,0
DA:430,0
DA:431,0
DA:433,0
DA:436,0
DA:437,0
DA:438,0
DA:441,0
DA:442,0
DA:443,0
DA:445,0
DA:446,0
DA:447,0
DA:448,0
DA:449,0
DA:450,0
DA:452,0
DA:453,0
DA:454,0
DA:455,0
DA:456,0
DA:457,0
DA:458,0
DA:459,0
DA:460,0
DA:461,0
DA:462,0
DA:463,0
DA:464,0
DA:465,0
DA:466,0
DA:467,0
DA:468,0
DA:469,0
DA:470,0
DA:471,0
DA:473,0
DA:474,0
DA:475,0
DA:476,0
DA:477,0
DA:478,0
DA:479,0
DA:480,0
DA:481,0
DA:482,0
DA:483,0
DA:484,0
DA:485,0
DA:486,0
DA:487,0
DA:488,0
DA:490,0
DA:493,0
DA:494,0
DA:495,0
DA:496,0
DA:497,0
DA:500,0
DA:501,0
DA:503,0
DA:506,0
DA:507,0
DA:509,0
DA:512,0
DA:513,0
DA:514,0
DA:515,0
DA:516,0
DA:517,0
DA:520,0
DA:521,0
DA:522,0
DA:523,0
DA:524,0
DA:525,0
DA:527,0
DA:528,0
DA:529,0
DA:530,0
DA:531,0
DA:532,0
DA:533,0
DA:534,0
DA:537,0
DA:538,0
DA:539,0
DA:542,0
DA:543,0
DA:544,0
DA:545,0
DA:548,1
DA:549,1
DA:550,1
DA:551,1
DA:554,0
DA:555,0
DA:556,0
DA:557,0
DA:558,0
DA:562,4
DA:563,4
DA:564,1
DA:565,1
DA:566,1
DA:567,1
DA:569,4
DA:572,0
DA:573,0
DA:574,0
DA:575,0
DA:576,0
DA:577,0
DA:579,0
DA:582,0
DA:583,0
DA:584,0
DA:585,0
DA:586,0
DA:587,0
DA:588,0
DA:589,0
DA:590,0
DA:599,1
DA:600,1
DA:601,1
DA:603,1
DA:604,1
DA:606,1
DA:607,1
DA:608,1
DA:611,1
DA:612,1
DA:613,1
DA:616,1
DA:617,1
DA:620,1
DA:621,1
DA:624,1
DA:625,1
DA:628,1
BRF:0
BRH:0
LF:450
LH:46
end_of_record
SF:/Users/aiq/work/wezterm-parallel/src/monitoring/logger.rs
FN:226,_RNCNCNvMNtNtCsezqlaDlZ1Zy_16wezterm_parallel10monitoring6loggerNtB6_14LoggingManager18setup_log_rotation00Ba_
FN:97,_RNCNvMNtNtCsezqlaDlZ1Zy_16wezterm_parallel10monitoring6loggerNtB4_14LoggingManager10initialize0B8_
FN:326,_RNCNvMNtNtCsezqlaDlZ1Zy_16wezterm_parallel10monitoring6loggerNtB4_14LoggingManager11search_logs0B8_
FN:297,_RNCNvMNtNtCsezqlaDlZ1Zy_16wezterm_parallel10monitoring6loggerNtB4_14LoggingManager12update_stats0B8_
FN:181,_RNCNvMNtNtCsezqlaDlZ1Zy_16wezterm_parallel10monitoring6loggerNtB4_14LoggingManager14setup_log_file0B8_
FN:257,_RNCNvMNtNtCsezqlaDlZ1Zy_16wezterm_parallel10monitoring6loggerNtB4_14LoggingManager15rotate_log_file0B8_
FN:153,_RNCNvMNtNtCsezqlaDlZ1Zy_16wezterm_parallel10monitoring6loggerNtB4_14LoggingManager18setup_file_logging0B8_
FN:214,_RNCNvMNtNtCsezqlaDlZ1Zy_16wezterm_parallel10monitoring6loggerNtB4_14LoggingManager18setup_log_rotation0B8_
FN:174,_RNCNvMNtNtCsezqlaDlZ1Zy_16wezterm_parallel10monitoring6loggerNtB4_14LoggingManager20setup_syslog_logging0B8_
FN:142,_RNCNvMNtNtCsezqlaDlZ1Zy_16wezterm_parallel10monitoring6loggerNtB4_14LoggingManager21setup_console_logging0B8_
FN:164,_RNCNvMNtNtCsezqlaDlZ1Zy_16wezterm_parallel10monitoring6loggerNtB4_14LoggingManager22setup_combined_logging0B8_
FN:292,_RNCNvMNtNtCsezqlaDlZ1Zy_16wezterm_parallel10monitoring6loggerNtB4_14LoggingManager9get_stats0B8_
FN:386,_RNCNvMs1_NtNtCsezqlaDlZ1Zy_16wezterm_parallel10monitoring6loggerNtB7_11LogAnalyzer22analyze_error_patterns0Bb_
FN:350,_RNvMs_NtNtCsezqlaDlZ1Zy_16wezterm_parallel10monitoring6loggerNtB4_13LogFileWriter3new
FN:292,_RNCNvMNtNtCsbBf3qmLqCJ0_16wezterm_parallel10monitoring6loggerNtB4_14LoggingManager9get_stats0B8_
FN:226,_RNCNCNvMNtNtCsbBf3qmLqCJ0_16wezterm_parallel10monitoring6loggerNtB6_14LoggingManager18setup_log_rotation00Ba_
FN:97,_RNCNvMNtNtCsbBf3qmLqCJ0_16wezterm_parallel10monitoring6loggerNtB4_14LoggingManager10initialize0B8_
FN:326,_RNCNvMNtNtCsbBf3qmLqCJ0_16wezterm_parallel10monitoring6loggerNtB4_14LoggingManager11search_logs0B8_
FN:297,_RNCNvMNtNtCsbBf3qmLqCJ0_16wezterm_parallel10monitoring6loggerNtB4_14LoggingManager12update_stats0B8_
FN:181,_RNCNvMNtNtCsbBf3qmLqCJ0_16wezterm_parallel10monitoring6loggerNtB4_14LoggingManager14setup_log_file0B8_
FN:257,_RNCNvMNtNtCsbBf3qmLqCJ0_16wezterm_parallel10monitoring6loggerNtB4_14LoggingManager15rotate_log_file0B8_
FN:153,_RNCNvMNtNtCsbBf3qmLqCJ0_16wezterm_parallel10monitoring6loggerNtB4_14LoggingManager18setup_file_logging0B8_
FN:214,_RNCNvMNtNtCsbBf3qmLqCJ0_16wezterm_parallel10monitoring6loggerNtB4_14LoggingManager18setup_log_rotation0B8_
FN:174,_RNCNvMNtNtCsbBf3qmLqCJ0_16wezterm_parallel10monitoring6loggerNtB4_14LoggingManager20setup_syslog_logging0B8_
FN:142,_RNCNvMNtNtCsbBf3qmLqCJ0_16wezterm_parallel10monitoring6loggerNtB4_14LoggingManager21setup_console_logging0B8_
FN:164,_RNCNvMNtNtCsbBf3qmLqCJ0_16wezterm_parallel10monitoring6loggerNtB4_14LoggingManager22setup_combined_logging0B8_
FN:386,_RNCNvMs1_NtNtCsbBf3qmLqCJ0_16wezterm_parallel10monitoring6loggerNtB7_11LogAnalyzer22analyze_error_patterns0Bb_
FN:97,_RNvMNtNtCsbBf3qmLqCJ0_16wezterm_parallel10monitoring6loggerNtB2_14LoggingManager10initialize
FN:318,_RNvMNtNtCsbBf3qmLqCJ0_16wezterm_parallel10monitoring6loggerNtB2_14LoggingManager11search_logs
FN:297,_RNvMNtNtCsbBf3qmLqCJ0_16wezterm_parallel10monitoring6loggerNtB2_14LoggingManager12update_stats
FN:181,_RNvMNtNtCsbBf3qmLqCJ0_16wezterm_parallel10monitoring6loggerNtB2_14LoggingManager14setup_log_file
FN:252,_RNvMNtNtCsbBf3qmLqCJ0_16wezterm_parallel10monitoring6loggerNtB2_14LoggingManager15rotate_log_file
FN:149,_RNvMNtNtCsbBf3qmLqCJ0_16wezterm_parallel10monitoring6loggerNtB2_14LoggingManager18setup_file_logging
FN:211,_RNvMNtNtCsbBf3qmLqCJ0_16wezterm_parallel10monitoring6loggerNtB2_14LoggingManager18setup_log_rotation
FN:171,_RNvMNtNtCsbBf3qmLqCJ0_16wezterm_parallel10monitoring6loggerNtB2_14LoggingManager20setup_syslog_logging
FN:139,_RNvMNtNtCsbBf3qmLqCJ0_16wezterm_parallel10monitoring6loggerNtB2_14LoggingManager21setup_console_logging
FN:160,_RNvMNtNtCsbBf3qmLqCJ0_16wezterm_parallel10monitoring6loggerNtB2_14LoggingManager22setup_combined_logging
FN:415,_RNvMs1_NtNtCsbBf3qmLqCJ0_16wezterm_parallel10monitoring6loggerNtB5_11LogAnalyzer14classify_error
FN:386,_RNvMs1_NtNtCsbBf3qmLqCJ0_16wezterm_parallel10monitoring6loggerNtB5_11LogAnalyzer22analyze_error_patterns
FN:434,_RNvMs1_NtNtCsbBf3qmLqCJ0_16wezterm_parallel10monitoring6loggerNtB5_11LogAnalyzer24generate_recommendations
FN:350,_RNvMs_NtNtCsbBf3qmLqCJ0_16wezterm_parallel10monitoring6loggerNtB4_13LogFileWriter3new
FN:370,_RNvXs0_NtNtCsbBf3qmLqCJ0_16wezterm_parallel10monitoring6loggerNtB5_13LogFileWriterNtNtCs9QY0sRQ9KnX_3std2io5Write5flush
FN:356,_RNvXs0_NtNtCsbBf3qmLqCJ0_16wezterm_parallel10monitoring6loggerNtB5_13LogFileWriterNtNtCs9QY0sRQ9KnX_3std2io5Write5write
FN:87,_RNvMNtNtCsbBf3qmLqCJ0_16wezterm_parallel10monitoring6loggerNtB2_14LoggingManager3new
FN:292,_RNvMNtNtCsbBf3qmLqCJ0_16wezterm_parallel10monitoring6loggerNtB2_14LoggingManager9get_stats
FN:497,_RNvNtNtNtCsbBf3qmLqCJ0_16wezterm_parallel10monitoring6logger5testss_25test_error_classification
FN:488,_RNvNtNtNtCsbBf3qmLqCJ0_16wezterm_parallel10monitoring6logger5testss_29test_logging_manager_creation
FN:488,_RNCNvNtNtNtCsbBf3qmLqCJ0_16wezterm_parallel10monitoring6logger5testss_29test_logging_manager_creation0B9_
FNDA:0,_RNCNCNvMNtNtCsezqlaDlZ1Zy_16wezterm_parallel10monitoring6loggerNtB6_14LoggingManager18setup_log_rotation00Ba_
FNDA:0,_RNCNvMNtNtCsezqlaDlZ1Zy_16wezterm_parallel10monitoring6loggerNtB4_14LoggingManager10initialize0B8_
FNDA:0,_RNCNvMNtNtCsezqlaDlZ1Zy_16wezterm_parallel10monitoring6loggerNtB4_14LoggingManager11search_logs0B8_
FNDA:0,_RNCNvMNtNtCsezqlaDlZ1Zy_16wezterm_parallel10monitoring6loggerNtB4_14LoggingManager12update_stats0B8_
FNDA:0,_RNCNvMNtNtCsezqlaDlZ1Zy_16wezterm_parallel10monitoring6loggerNtB4_14LoggingManager14setup_log_file0B8_
FNDA:0,_RNCNvMNtNtCsezqlaDlZ1Zy_16wezterm_parallel10monitoring6loggerNtB4_14LoggingManager15rotate_log_file0B8_
FNDA:0,_RNCNvMNtNtCsezqlaDlZ1Zy_16wezterm_parallel10monitoring6loggerNtB4_14LoggingManager18setup_file_logging0B8_
FNDA:0,_RNCNvMNtNtCsezqlaDlZ1Zy_16wezterm_parallel10monitoring6loggerNtB4_14LoggingManager18setup_log_rotation0B8_
FNDA:0,_RNCNvMNtNtCsezqlaDlZ1Zy_16wezterm_parallel10monitoring6loggerNtB4_14LoggingManager20setup_syslog_logging0B8_
FNDA:0,_RNCNvMNtNtCsezqlaDlZ1Zy_16wezterm_parallel10monitoring6loggerNtB4_14LoggingManager21setup_console_logging0B8_
FNDA:0,_RNCNvMNtNtCsezqlaDlZ1Zy_16wezterm_parallel10monitoring6loggerNtB4_14LoggingManager22setup_combined_logging0B8_
FNDA:0,_RNCNvMNtNtCsezqlaDlZ1Zy_16wezterm_parallel10monitoring6loggerNtB4_14LoggingManager9get_stats0B8_
FNDA:0,_RNCNvMs1_NtNtCsezqlaDlZ1Zy_16wezterm_parallel10monitoring6loggerNtB7_11LogAnalyzer22analyze_error_patterns0Bb_
FNDA:0,_RNvMs_NtNtCsezqlaDlZ1Zy_16wezterm_parallel10monitoring6loggerNtB4_13LogFileWriter3new
FNDA:1,_RNCNvMNtNtCsbBf3qmLqCJ0_16wezterm_parallel10monitoring6loggerNtB4_14LoggingManager9get_stats0B8_
FNDA:0,_RNCNCNvMNtNtCsbBf3qmLqCJ0_16wezterm_parallel10monitoring6loggerNtB6_14LoggingManager18setup_log_rotation00Ba_
FNDA:0,_RNCNvMNtNtCsbBf3qmLqCJ0_16wezterm_parallel10monitoring6loggerNtB4_14LoggingManager10initialize0B8_
FNDA:0,_RNCNvMNtNtCsbBf3qmLqCJ0_16wezterm_parallel10monitoring6loggerNtB4_14LoggingManager11search_logs0B8_
FNDA:0,_RNCNvMNtNtCsbBf3qmLqCJ0_16wezterm_parallel10monitoring6loggerNtB4_14LoggingManager12update_stats0B8_
FNDA:0,_RNCNvMNtNtCsbBf3qmLqCJ0_16wezterm_parallel10monitoring6loggerNtB4_14LoggingManager14setup_log_file0B8_
FNDA:0,_RNCNvMNtNtCsbBf3qmLqCJ0_16wezterm_parallel10monitoring6loggerNtB4_14LoggingManager15rotate_log_file0B8_
FNDA:0,_RNCNvMNtNtCsbBf3qmLqCJ0_16wezterm_parallel10monitoring6loggerNtB4_14LoggingManager18setup_file_logging0B8_
FNDA:0,_RNCNvMNtNtCsbBf3qmLqCJ0_16wezterm_parallel10monitoring6loggerNtB4_14LoggingManager18setup_log_rotation0B8_
FNDA:0,_RNCNvMNtNtCsbBf3qmLqCJ0_16wezterm_parallel10monitoring6loggerNtB4_14LoggingManager20setup_syslog_logging0B8_
FNDA:0,_RNCNvMNtNtCsbBf3qmLqCJ0_16wezterm_parallel10monitoring6loggerNtB4_14LoggingManager21setup_console_logging0B8_
FNDA:0,_RNCNvMNtNtCsbBf3qmLqCJ0_16wezterm_parallel10monitoring6loggerNtB4_14LoggingManager22setup_combined_logging0B8_
FNDA:0,_RNCNvMs1_NtNtCsbBf3qmLqCJ0_16wezterm_parallel10monitoring6loggerNtB7_11LogAnalyzer22analyze_error_patterns0Bb_
FNDA:0,_RNvMNtNtCsbBf3qmLqCJ0_16wezterm_parallel10monitoring6loggerNtB2_14LoggingManager10initialize
FNDA:0,_RNvMNtNtCsbBf3qmLqCJ0_16wezterm_parallel10monitoring6loggerNtB2_14LoggingManager11search_logs
FNDA:0,_RNvMNtNtCsbBf3qmLqCJ0_16wezterm_parallel10monitoring6loggerNtB2_14LoggingManager12update_stats
FNDA:0,_RNvMNtNtCsbBf3qmLqCJ0_16wezterm_parallel10monitoring6loggerNtB2_14LoggingManager14setup_log_file
FNDA:0,_RNvMNtNtCsbBf3qmLqCJ0_16wezterm_parallel10monitoring6loggerNtB2_14LoggingManager15rotate_log_file
FNDA:0,_RNvMNtNtCsbBf3qmLqCJ0_16wezterm_parallel10monitoring6loggerNtB2_14LoggingManager18setup_file_logging
FNDA:0,_RNvMNtNtCsbBf3qmLqCJ0_16wezterm_parallel10monitoring6loggerNtB2_14LoggingManager18setup_log_rotation
FNDA:0,_RNvMNtNtCsbBf3qmLqCJ0_16wezterm_parallel10monitoring6loggerNtB2_14LoggingManager20setup_syslog_logging
FNDA:0,_RNvMNtNtCsbBf3qmLqCJ0_16wezterm_parallel10monitoring6loggerNtB2_14LoggingManager21setup_console_logging
FNDA:0,_RNvMNtNtCsbBf3qmLqCJ0_16wezterm_parallel10monitoring6loggerNtB2_14LoggingManager22setup_combined_logging
FNDA:0,_RNvMs1_NtNtCsbBf3qmLqCJ0_16wezterm_parallel10monitoring6loggerNtB5_11LogAnalyzer14classify_error
FNDA:0,_RNvMs1_NtNtCsbBf3qmLqCJ0_16wezterm_parallel10monitoring6loggerNtB5_11LogAnalyzer22analyze_error_patterns
FNDA:0,_RNvMs1_NtNtCsbBf3qmLqCJ0_16wezterm_parallel10monitoring6loggerNtB5_11LogAnalyzer24generate_recommendations
FNDA:0,_RNvMs_NtNtCsbBf3qmLqCJ0_16wezterm_parallel10monitoring6loggerNtB4_13LogFileWriter3new
FNDA:0,_RNvXs0_NtNtCsbBf3qmLqCJ0_16wezterm_parallel10monitoring6loggerNtB5_13LogFileWriterNtNtCs9QY0sRQ9KnX_3std2io5Write5flush
FNDA:0,_RNvXs0_NtNtCsbBf3qmLqCJ0_16wezterm_parallel10monitoring6loggerNtB5_13LogFileWriterNtNtCs9QY0sRQ9KnX_3std2io5Write5write
FNDA:2,_RNvMNtNtCsbBf3qmLqCJ0_16wezterm_parallel10monitoring6loggerNtB2_14LoggingManager3new
FNDA:1,_RNvMNtNtCsbBf3qmLqCJ0_16wezterm_parallel10monitoring6loggerNtB2_14LoggingManager9get_stats
FNDA:1,_RNvNtNtNtCsbBf3qmLqCJ0_16wezterm_parallel10monitoring6logger5testss_25test_error_classification
FNDA:1,_RNvNtNtNtCsbBf3qmLqCJ0_16wezterm_parallel10monitoring6logger5testss_29test_logging_manager_creation
FNDA:1,_RNCNvNtNtNtCsbBf3qmLqCJ0_16wezterm_parallel10monitoring6logger5testss_29test_logging_manager_creation0B9_
FNF:34
FNH:6
DA:87,2
DA:88,2
DA:89,2
DA:90,2
DA:91,2
DA:92,2
DA:93,2
DA:94,2
DA:97,0
DA:98,0
DA:99,0
DA:100,0
DA:103,0
DA:104,0
DA:105,0
DA:106,0
DA:107,0
DA:108,0
DA:109,0
DA:113,0
DA:114,0
DA:115,0
DA:118,0
DA:120,0
DA:122,0
DA:123,0
DA:125,0
DA:126,0
DA:129,0
DA:133,0
DA:135,0
DA:136,0
DA:139,0
DA:140,0
DA:141,0
DA:142,0
DA:144,0
DA:145,0
DA:146,0
DA:149,0
DA:150,0
DA:151,0
DA:152,0
DA:153,0
DA:154,0
DA:155,0
DA:156,0
DA:157,0
DA:160,0
DA:161,0
DA:162,0
DA:163,0
DA:164,0
DA:165,0
DA:166,0
DA:167,0
DA:168,0
DA:171,0
DA:172,0
DA:173,0
DA:174,0
DA:176,0
DA:177,0
DA:178,0
DA:181,0
DA:182,0
DA:185,0
DA:186,0
DA:187,0
DA:190,0
DA:191,0
DA:192,0
DA:193,0
DA:196,0
DA:197,0
DA:199,0
DA:200,0
DA:203,0
DA:204,0
DA:205,0
DA:207,0
DA:208,0
DA:211,0
DA:212,0
DA:213,0
DA:214,0
DA:215,0
DA:216,0
DA:217,0
DA:218,0
DA:219,0
DA:221,0
DA:222,0
DA:226,0
DA:227,0
DA:230,0
DA:232,0
DA:233,0
DA:234,0
DA:235,0
DA:236,0
DA:237,0
DA:238,0
DA:240,0
DA:242,0
DA:243,0
DA:244,0
DA:248,0
DA:249,0
DA:252,0
DA:253,0
DA:254,0
DA:255,0
DA:256,0
DA:257,0
DA:259,0
DA:262,0
DA:263,0
DA:264,0
DA:266,0
DA:269,0
DA:271,0
DA:272,0
DA:273,0
DA:277,0
DA:278,0
DA:279,0
DA:280,0
DA:281,0
DA:283,0
DA:284,0
DA:286,0
DA:288,0
DA:289,0
DA:292,1
DA:293,1
DA:294,1
DA:297,0
DA:298,0
DA:300,0
DA:303,0
DA:306,0
DA:307,0
DA:308,0
DA:309,0
DA:310,0
DA:311,0
DA:314,0
DA:315,0
DA:318,0
DA:319,0
DA:320,0
DA:321,0
DA:322,0
DA:323,0
DA:324,0
DA:325,0
DA:326,0
DA:330,0
DA:338,0
DA:339,0
DA:350,0
DA:351,0
DA:352,0
DA:356,0
DA:361,0
DA:362,0
DA:363,0
DA:364,0
DA:365,0
DA:366,0
DA:368,0
DA:370,0
DA:371,0
DA:372,0
DA:373,0
DA:374,0
DA:375,0
DA:376,0
DA:378,0
DA:386,0
DA:387,0
DA:388,0
DA:390,0
DA:391,0
DA:392,0
DA:393,0
DA:394,0
DA:398,0
DA:399,0
DA:400,0
DA:402,0
DA:405,0
DA:406,0
DA:407,0
DA:408,0
DA:409,0
DA:410,0
DA:411,0
DA:412,0
DA:415,0
DA:416,0
DA:418,0
DA:419,0
DA:420,0
DA:421,0
DA:422,0
DA:423,0
DA:424,0
DA:425,0
DA:426,0
DA:427,0
DA:429,0
DA:431,0
DA:434,0
DA:435,0
DA:436,0
DA:437,0
DA:439,0
DA:440,0
DA:441,0
DA:442,0
DA:443,0
DA:445,0
DA:446,0
DA:448,0
DA:449,0
DA:451,0
DA:452,0
DA:453,0
DA:454,0
DA:456,0
DA:458,0
DA:461,0
DA:462,0
DA:488,1
DA:489,1
DA:490,1
DA:492,1
DA:493,1
DA:494,1
DA:497,1
DA:499,1
DA:500,1
DA:504,1
DA:505,1
BRF:0
BRH:0
LF:261
LH:25
end_of_record
SF:/Users/aiq/work/wezterm-parallel/src/monitoring/metrics.rs
FN:465,_RNCNCNvMs_NtNtCsezqlaDlZ1Zy_16wezterm_parallel10monitoring7metricsNtB8_16MetricsCollector30collect_single_process_metrics0s_0Bc_
FN:505,_RNCNvMs_NtNtCsezqlaDlZ1Zy_16wezterm_parallel10monitoring7metricsNtB6_16MetricsCollector12get_fd_count0Ba_
FN:40,_RNCNvMs_NtNtCsezqlaDlZ1Zy_16wezterm_parallel10monitoring7metricsNtB6_16MetricsCollector15collect_metrics0Ba_
FN:488,_RNCNvMs_NtNtCsezqlaDlZ1Zy_16wezterm_parallel10monitoring7metricsNtB6_16MetricsCollector16get_thread_count0Ba_
FN:84,_RNCNvMs_NtNtCsezqlaDlZ1Zy_16wezterm_parallel10monitoring7metricsNtB6_16MetricsCollector17collect_cpu_usage0Ba_
FN:300,_RNCNvMs_NtNtCsezqlaDlZ1Zy_16wezterm_parallel10monitoring7metricsNtB6_16MetricsCollector20collect_disk_metrics0Ba_
FN:187,_RNCNvMs_NtNtCsezqlaDlZ1Zy_16wezterm_parallel10monitoring7metricsNtB6_16MetricsCollector22collect_memory_metrics0Ba_
FN:394,_RNCNvMs_NtNtCsezqlaDlZ1Zy_16wezterm_parallel10monitoring7metricsNtB6_16MetricsCollector22find_related_processes0Ba_
FN:109,_RNCNvMs_NtNtCsezqlaDlZ1Zy_16wezterm_parallel10monitoring7metricsNtB6_16MetricsCollector23collect_cpu_usage_macos0Ba_
FN:333,_RNCNvMs_NtNtCsezqlaDlZ1Zy_16wezterm_parallel10monitoring7metricsNtB6_16MetricsCollector23collect_network_metrics0Ba_
FN:379,_RNCNvMs_NtNtCsezqlaDlZ1Zy_16wezterm_parallel10monitoring7metricsNtB6_16MetricsCollector23collect_process_metrics0Ba_
FN:211,_RNCNvMs_NtNtCsezqlaDlZ1Zy_16wezterm_parallel10monitoring7metricsNtB6_16MetricsCollector28collect_memory_metrics_macos0Ba_
FN:458,_RNCNvMs_NtNtCsezqlaDlZ1Zy_16wezterm_parallel10monitoring7metricsNtB6_16MetricsCollector30collect_single_process_metrics0Ba_
FN:535,_RNvMs_NtNtCsezqlaDlZ1Zy_16wezterm_parallel10monitoring7metricsNtB4_16MetricsCollector24extract_memory_from_line
FN:585,_RNCNvNtNtCsezqlaDlZ1Zy_16wezterm_parallel10monitoring7metrics17current_timestamp0B7_
FN:545,_RNvMs_NtNtCsbBf3qmLqCJ0_16wezterm_parallel10monitoring7metricsNtB4_16MetricsCollector15parse_disk_size
FN:31,_RNvMs_NtNtCsbBf3qmLqCJ0_16wezterm_parallel10monitoring7metricsNtB4_16MetricsCollector3new
FN:465,_RNCNCNvMs_NtNtCsbBf3qmLqCJ0_16wezterm_parallel10monitoring7metricsNtB8_16MetricsCollector30collect_single_process_metrics0s_0Bc_
FN:505,_RNCNvMs_NtNtCsbBf3qmLqCJ0_16wezterm_parallel10monitoring7metricsNtB6_16MetricsCollector12get_fd_count0Ba_
FN:40,_RNCNvMs_NtNtCsbBf3qmLqCJ0_16wezterm_parallel10monitoring7metricsNtB6_16MetricsCollector15collect_metrics0Ba_
FN:488,_RNCNvMs_NtNtCsbBf3qmLqCJ0_16wezterm_parallel10monitoring7metricsNtB6_16MetricsCollector16get_thread_count0Ba_
FN:84,_RNCNvMs_NtNtCsbBf3qmLqCJ0_16wezterm_parallel10monitoring7metricsNtB6_16MetricsCollector17collect_cpu_usage0Ba_
FN:300,_RNCNvMs_NtNtCsbBf3qmLqCJ0_16wezterm_parallel10monitoring7metricsNtB6_16MetricsCollector20collect_disk_metrics0Ba_
FN:187,_RNCNvMs_NtNtCsbBf3qmLqCJ0_16wezterm_parallel10monitoring7metricsNtB6_16MetricsCollector22collect_memory_metrics0Ba_
FN:394,_RNCNvMs_NtNtCsbBf3qmLqCJ0_16wezterm_parallel10monitoring7metricsNtB6_16MetricsCollector22find_related_processes0Ba_
FN:109,_RNCNvMs_NtNtCsbBf3qmLqCJ0_16wezterm_parallel10monitoring7metricsNtB6_16MetricsCollector23collect_cpu_usage_macos0Ba_
FN:333,_RNCNvMs_NtNtCsbBf3qmLqCJ0_16wezterm_parallel10monitoring7metricsNtB6_16MetricsCollector23collect_network_metrics0Ba_
FN:379,_RNCNvMs_NtNtCsbBf3qmLqCJ0_16wezterm_parallel10monitoring7metricsNtB6_16MetricsCollector23collect_process_metrics0Ba_
FN:211,_RNCNvMs_NtNtCsbBf3qmLqCJ0_16wezterm_parallel10monitoring7metricsNtB6_16MetricsCollector28collect_memory_metrics_macos0Ba_
FN:458,_RNCNvMs_NtNtCsbBf3qmLqCJ0_16wezterm_parallel10monitoring7metricsNtB6_16MetricsCollector30collect_single_process_metrics0Ba_
FN:585,_RNCNvNtNtCsbBf3qmLqCJ0_16wezterm_parallel10monitoring7metrics17current_timestamp0B7_
FN:505,_RNvMs_NtNtCsbBf3qmLqCJ0_16wezterm_parallel10monitoring7metricsNtB4_16MetricsCollector12get_fd_count
FN:417,_RNvMs_NtNtCsbBf3qmLqCJ0_16wezterm_parallel10monitoring7metricsNtB4_16MetricsCollector13parse_ps_line
FN:40,_RNvMs_NtNtCsbBf3qmLqCJ0_16wezterm_parallel10monitoring7metricsNtB4_16MetricsCollector15collect_metrics
FN:488,_RNvMs_NtNtCsbBf3qmLqCJ0_16wezterm_parallel10monitoring7metricsNtB4_16MetricsCollector16get_thread_count
FN:84,_RNvMs_NtNtCsbBf3qmLqCJ0_16wezterm_parallel10monitoring7metricsNtB4_16MetricsCollector17collect_cpu_usage
FN:300,_RNvMs_NtNtCsbBf3qmLqCJ0_16wezterm_parallel10monitoring7metricsNtB4_16MetricsCollector20collect_disk_metrics
FN:438,_RNvMs_NtNtCsbBf3qmLqCJ0_16wezterm_parallel10monitoring7metricsNtB4_16MetricsCollector20extract_process_name
FN:187,_RNvMs_NtNtCsbBf3qmLqCJ0_16wezterm_parallel10monitoring7metricsNtB4_16MetricsCollector22collect_memory_metrics
FN:394,_RNvMs_NtNtCsbBf3qmLqCJ0_16wezterm_parallel10monitoring7metricsNtB4_16MetricsCollector22find_related_processes
FN:109,_RNvMs_NtNtCsbBf3qmLqCJ0_16wezterm_parallel10monitoring7metricsNtB4_16MetricsCollector23collect_cpu_usage_macos
FN:333,_RNvMs_NtNtCsbBf3qmLqCJ0_16wezterm_parallel10monitoring7metricsNtB4_16MetricsCollector23collect_network_metrics
FN:377,_RNvMs_NtNtCsbBf3qmLqCJ0_16wezterm_parallel10monitoring7metricsNtB4_16MetricsCollector23collect_process_metrics
FN:523,_RNvMs_NtNtCsbBf3qmLqCJ0_16wezterm_parallel10monitoring7metricsNtB4_16MetricsCollector23extract_pages_from_line
FN:535,_RNvMs_NtNtCsbBf3qmLqCJ0_16wezterm_parallel10monitoring7metricsNtB4_16MetricsCollector24extract_memory_from_line
FN:211,_RNvMs_NtNtCsbBf3qmLqCJ0_16wezterm_parallel10monitoring7metricsNtB4_16MetricsCollector28collect_memory_metrics_macos
FN:455,_RNvMs_NtNtCsbBf3qmLqCJ0_16wezterm_parallel10monitoring7metricsNtB4_16MetricsCollector30collect_single_process_metrics
FN:582,_RNvNtNtCsbBf3qmLqCJ0_16wezterm_parallel10monitoring7metrics17current_timestamp
FN:24,_RNvXNtNtCsbBf3qmLqCJ0_16wezterm_parallel10monitoring7metricsNtB2_16MetricsCollectorNtNtCsd2KPTObkMr_4core7default7Default7default
FN:604,_RNvNtNtNtCsbBf3qmLqCJ0_16wezterm_parallel10monitoring7metrics5testss_22test_disk_size_parsing
FN:597,_RNvNtNtNtCsbBf3qmLqCJ0_16wezterm_parallel10monitoring7metrics5testss_31test_metrics_collector_creation
FN:604,_RNCNvNtNtNtCsbBf3qmLqCJ0_16wezterm_parallel10monitoring7metrics5testss_22test_disk_size_parsing0B9_
FN:597,_RNCNvNtNtNtCsbBf3qmLqCJ0_16wezterm_parallel10monitoring7metrics5testss_31test_metrics_collector_creation0B9_
FNDA:0,_RNCNCNvMs_NtNtCsezqlaDlZ1Zy_16wezterm_parallel10monitoring7metricsNtB8_16MetricsCollector30collect_single_process_metrics0s_0Bc_
FNDA:0,_RNCNvMs_NtNtCsezqlaDlZ1Zy_16wezterm_parallel10monitoring7metricsNtB6_16MetricsCollector12get_fd_count0Ba_
FNDA:0,_RNCNvMs_NtNtCsezqlaDlZ1Zy_16wezterm_parallel10monitoring7metricsNtB6_16MetricsCollector15collect_metrics0Ba_
FNDA:0,_RNCNvMs_NtNtCsezqlaDlZ1Zy_16wezterm_parallel10monitoring7metricsNtB6_16MetricsCollector16get_thread_count0Ba_
FNDA:0,_RNCNvMs_NtNtCsezqlaDlZ1Zy_16wezterm_parallel10monitoring7metricsNtB6_16MetricsCollector17collect_cpu_usage0Ba_
FNDA:0,_RNCNvMs_NtNtCsezqlaDlZ1Zy_16wezterm_parallel10monitoring7metricsNtB6_16MetricsCollector20collect_disk_metrics0Ba_
FNDA:0,_RNCNvMs_NtNtCsezqlaDlZ1Zy_16wezterm_parallel10monitoring7metricsNtB6_16MetricsCollector22collect_memory_metrics0Ba_
FNDA:0,_RNCNvMs_NtNtCsezqlaDlZ1Zy_16wezterm_parallel10monitoring7metricsNtB6_16MetricsCollector22find_related_processes0Ba_
FNDA:0,_RNCNvMs_NtNtCsezqlaDlZ1Zy_16wezterm_parallel10monitoring7metricsNtB6_16MetricsCollector23collect_cpu_usage_macos0Ba_
FNDA:0,_RNCNvMs_NtNtCsezqlaDlZ1Zy_16wezterm_parallel10monitoring7metricsNtB6_16MetricsCollector23collect_network_metrics0Ba_
FNDA:0,_RNCNvMs_NtNtCsezqlaDlZ1Zy_16wezterm_parallel10monitoring7metricsNtB6_16MetricsCollector23collect_process_metrics0Ba_
FNDA:0,_RNCNvMs_NtNtCsezqlaDlZ1Zy_16wezterm_parallel10monitoring7metricsNtB6_16MetricsCollector28collect_memory_metrics_macos0Ba_
FNDA:0,_RNCNvMs_NtNtCsezqlaDlZ1Zy_16wezterm_parallel10monitoring7metricsNtB6_16MetricsCollector30collect_single_process_metrics0Ba_
FNDA:0,_RNvMs_NtNtCsezqlaDlZ1Zy_16wezterm_parallel10monitoring7metricsNtB4_16MetricsCollector24extract_memory_from_line
FNDA:0,_RNCNvNtNtCsezqlaDlZ1Zy_16wezterm_parallel10monitoring7metrics17current_timestamp0B7_
FNDA:4,_RNvMs_NtNtCsbBf3qmLqCJ0_16wezterm_parallel10monitoring7metricsNtB4_16MetricsCollector15parse_disk_size
FNDA:2,_RNvMs_NtNtCsbBf3qmLqCJ0_16wezterm_parallel10monitoring7metricsNtB4_16MetricsCollector3new
FNDA:0,_RNCNCNvMs_NtNtCsbBf3qmLqCJ0_16wezterm_parallel10monitoring7metricsNtB8_16MetricsCollector30collect_single_process_metrics0s_0Bc_
FNDA:0,_RNCNvMs_NtNtCsbBf3qmLqCJ0_16wezterm_parallel10monitoring7metricsNtB6_16MetricsCollector12get_fd_count0Ba_
FNDA:0,_RNCNvMs_NtNtCsbBf3qmLqCJ0_16wezterm_parallel10monitoring7metricsNtB6_16MetricsCollector15collect_metrics0Ba_
FNDA:0,_RNCNvMs_NtNtCsbBf3qmLqCJ0_16wezterm_parallel10monitoring7metricsNtB6_16MetricsCollector16get_thread_count0Ba_
FNDA:0,_RNCNvMs_NtNtCsbBf3qmLqCJ0_16wezterm_parallel10monitoring7metricsNtB6_16MetricsCollector17collect_cpu_usage0Ba_
FNDA:0,_RNCNvMs_NtNtCsbBf3qmLqCJ0_16wezterm_parallel10monitoring7metricsNtB6_16MetricsCollector20collect_disk_metrics0Ba_
FNDA:0,_RNCNvMs_NtNtCsbBf3qmLqCJ0_16wezterm_parallel10monitoring7metricsNtB6_16MetricsCollector22collect_memory_metrics0Ba_
FNDA:0,_RNCNvMs_NtNtCsbBf3qmLqCJ0_16wezterm_parallel10monitoring7metricsNtB6_16MetricsCollector22find_related_processes0Ba_
FNDA:0,_RNCNvMs_NtNtCsbBf3qmLqCJ0_16wezterm_parallel10monitoring7metricsNtB6_16MetricsCollector23collect_cpu_usage_macos0Ba_
FNDA:0,_RNCNvMs_NtNtCsbBf3qmLqCJ0_16wezterm_parallel10monitoring7metricsNtB6_16MetricsCollector23collect_network_metrics0Ba_
FNDA:0,_RNCNvMs_NtNtCsbBf3qmLqCJ0_16wezterm_parallel10monitoring7metricsNtB6_16MetricsCollector23collect_process_metrics0Ba_
FNDA:0,_RNCNvMs_NtNtCsbBf3qmLqCJ0_16wezterm_parallel10monitoring7metricsNtB6_16MetricsCollector28collect_memory_metrics_macos0Ba_
FNDA:0,_RNCNvMs_NtNtCsbBf3qmLqCJ0_16wezterm_parallel10monitoring7metricsNtB6_16MetricsCollector30collect_single_process_metrics0Ba_
FNDA:0,_RNCNvNtNtCsbBf3qmLqCJ0_16wezterm_parallel10monitoring7metrics17current_timestamp0B7_
FNDA:0,_RNvMs_NtNtCsbBf3qmLqCJ0_16wezterm_parallel10monitoring7metricsNtB4_16MetricsCollector12get_fd_count
FNDA:0,_RNvMs_NtNtCsbBf3qmLqCJ0_16wezterm_parallel10monitoring7metricsNtB4_16MetricsCollector13parse_ps_line
FNDA:0,_RNvMs_NtNtCsbBf3qmLqCJ0_16wezterm_parallel10monitoring7metricsNtB4_16MetricsCollector15collect_metrics
FNDA:0,_RNvMs_NtNtCsbBf3qmLqCJ0_16wezterm_parallel10monitoring7metricsNtB4_16MetricsCollector16get_thread_count
FNDA:0,_RNvMs_NtNtCsbBf3qmLqCJ0_16wezterm_parallel10monitoring7metricsNtB4_16MetricsCollector17collect_cpu_usage
FNDA:0,_RNvMs_NtNtCsbBf3qmLqCJ0_16wezterm_parallel10monitoring7metricsNtB4_16MetricsCollector20collect_disk_metrics
FNDA:0,_RNvMs_NtNtCsbBf3qmLqCJ0_16wezterm_parallel10monitoring7metricsNtB4_16MetricsCollector20extract_process_name
FNDA:0,_RNvMs_NtNtCsbBf3qmLqCJ0_16wezterm_parallel10monitoring7metricsNtB4_16MetricsCollector22collect_memory_metrics
FNDA:0,_RNvMs_NtNtCsbBf3qmLqCJ0_16wezterm_parallel10monitoring7metricsNtB4_16MetricsCollector22find_related_processes
FNDA:0,_RNvMs_NtNtCsbBf3qmLqCJ0_16wezterm_parallel10monitoring7metricsNtB4_16MetricsCollector23collect_cpu_usage_macos
FNDA:0,_RNvMs_NtNtCsbBf3qmLqCJ0_16wezterm_parallel10monitoring7metricsNtB4_16MetricsCollector23collect_network_metrics
FNDA:0,_RNvMs_NtNtCsbBf3qmLqCJ0_16wezterm_parallel10monitoring7metricsNtB4_16MetricsCollector23collect_process_metrics
FNDA:0,_RNvMs_NtNtCsbBf3qmLqCJ0_16wezterm_parallel10monitoring7metricsNtB4_16MetricsCollector23extract_pages_from_line
FNDA:0,_RNvMs_NtNtCsbBf3qmLqCJ0_16wezterm_parallel10monitoring7metricsNtB4_16MetricsCollector24extract_memory_from_line
FNDA:0,_RNvMs_NtNtCsbBf3qmLqCJ0_16wezterm_parallel10monitoring7metricsNtB4_16MetricsCollector28collect_memory_metrics_macos
FNDA:0,_RNvMs_NtNtCsbBf3qmLqCJ0_16wezterm_parallel10monitoring7metricsNtB4_16MetricsCollector30collect_single_process_metrics
FNDA:0,_RNvNtNtCsbBf3qmLqCJ0_16wezterm_parallel10monitoring7metrics17current_timestamp
FNDA:0,_RNvXNtNtCsbBf3qmLqCJ0_16wezterm_parallel10monitoring7metricsNtB2_16MetricsCollectorNtNtCsd2KPTObkMr_4core7default7Default7default
FNDA:1,_RNvNtNtNtCsbBf3qmLqCJ0_16wezterm_parallel10monitoring7metrics5testss_22test_disk_size_parsing
FNDA:1,_RNvNtNtNtCsbBf3qmLqCJ0_16wezterm_parallel10monitoring7metrics5testss_31test_metrics_collector_creation
FNDA:1,_RNCNvNtNtNtCsbBf3qmLqCJ0_16wezterm_parallel10monitoring7metrics5testss_22test_disk_size_parsing0B9_
FNDA:1,_RNCNvNtNtNtCsbBf3qmLqCJ0_16wezterm_parallel10monitoring7metrics5testss_31test_metrics_collector_creation0B9_
FNF:38
FNH:6
DA:24,0
DA:25,0
DA:26,0
DA:31,2
DA:32,2
DA:33,2
DA:34,2
DA:35,2
DA:36,2
DA:37,2
DA:40,0
DA:41,0
DA:43,0
DA:46,0
DA:49,0
DA:52,0
DA:55,0
DA:58,0
DA:60,0
DA:61,0
DA:62,0
DA:63,0
DA:64,0
DA:65,0
DA:66,0
DA:67,0
DA:68,0
DA:69,0
DA:71,0
DA:73,0
DA:74,0
DA:76,0
DA:77,0
DA:80,0
DA:81,0
DA:84,0
DA:88,0
DA:106,0
DA:109,0
DA:110,0
DA:111,0
DA:112,0
DA:114,0
DA:117,0
DA:118,0
DA:120,0
DA:121,0
DA:122,0
DA:123,0
DA:124,0
DA:125,0
DA:126,0
DA:127,0
DA:128,0
DA:131,0
DA:132,0
DA:133,0
DA:187,0
DA:190,0
DA:208,0
DA:211,0
DA:212,0
DA:213,0
DA:215,0
DA:216,0
DA:217,0
DA:218,0
DA:219,0
DA:221,0
DA:222,0
DA:223,0
DA:224,0
DA:225,0
DA:226,0
DA:227,0
DA:228,0
DA:229,0
DA:230,0
DA:231,0
DA:232,0
DA:233,0
DA:234,0
DA:235,0
DA:236,0
DA:237,0
DA:238,0
DA:239,0
DA:242,0
DA:243,0
DA:245,0
DA:246,0
DA:300,0
DA:303,0
DA:305,0
DA:308,0
DA:309,0
DA:310,0
DA:312,0
DA:313,0
DA:314,0
DA:315,0
DA:328,0
DA:329,0
DA:330,0
DA:333,0
DA:367,0
DA:368,0
DA:369,0
DA:370,0
DA:371,0
DA:372,0
DA:374,0
DA:377,0
DA:378,0
DA:379,0
DA:380,0
DA:383,0
DA:385,0
DA:386,0
DA:387,0
DA:390,0
DA:391,0
DA:394,0
DA:395,0
DA:399,0
DA:401,0
DA:403,0
DA:404,0
DA:405,0
DA:406,0
DA:407,0
DA:408,0
DA:412,0
DA:413,0
DA:417,0
DA:418,0
DA:419,0
DA:420,0
DA:421,0
DA:422,0
DA:423,0
DA:425,0
DA:426,0
DA:427,0
DA:428,0
DA:429,0
DA:430,0
DA:431,0
DA:433,0
DA:435,0
DA:438,0
DA:439,0
DA:440,0
DA:441,0
DA:442,0
DA:443,0
DA:444,0
DA:446,0
DA:447,0
DA:448,0
DA:449,0
DA:450,0
DA:452,0
DA:455,0
DA:456,0
DA:457,0
DA:458,0
DA:459,0
DA:462,0
DA:463,0
DA:464,0
DA:465,0
DA:466,0
DA:468,0
DA:469,0
DA:470,0
DA:471,0
DA:472,0
DA:473,0
DA:474,0
DA:475,0
DA:476,0
DA:477,0
DA:481,0
DA:483,0
DA:484,0
DA:488,0
DA:500,0
DA:501,0
DA:505,0
DA:518,0
DA:519,0
DA:523,0
DA:524,0
DA:525,0
DA:526,0
DA:527,0
DA:529,0
DA:531,0
DA:535,0
DA:536,0
DA:537,0
DA:538,0
DA:540,0
DA:542,0
DA:545,4
DA:546,4
DA:547,4
DA:548,1
DA:549,3
DA:550,1
DA:551,2
DA:552,1
DA:553,1
DA:554,0
DA:556,1
DA:559,4
DA:560,3
DA:562,1
DA:565,4
DA:566,4
DA:567,4
DA:582,0
DA:583,0
DA:584,0
DA:585,0
DA:586,0
DA:587,0
DA:588,0
DA:589,0
DA:590,0
DA:597,1
DA:598,1
DA:599,1
DA:600,1
DA:601,1
DA:604,1
DA:605,1
DA:607,1
DA:608,1
DA:609,1
DA:610,1
DA:611,1
BRF:0
BRH:0
LF:261
LH:39
end_of_record
SF:/Users/aiq/work/wezterm-parallel/src/monitoring/mod.rs
FN:460,_RNCNvNtNtCsezqlaDlZ1Zy_16wezterm_parallel10monitoring5utils17current_timestamp0B7_
FN:427,_RNCNvMs1_NtCsezqlaDlZ1Zy_16wezterm_parallel10monitoringNtB7_17MonitoringManager12create_alert0B9_
FN:441,_RNCNvMs1_NtCsezqlaDlZ1Zy_16wezterm_parallel10monitoringNtB7_17MonitoringManager13resolve_alert0B9_
FN:415,_RNCNvMs1_NtCsezqlaDlZ1Zy_16wezterm_parallel10monitoringNtB7_17MonitoringManager17get_active_alerts0B9_
FN:421,_RNCNvMs1_NtCsezqlaDlZ1Zy_16wezterm_parallel10monitoringNtB7_17MonitoringManager17get_health_status0B9_
FN:381,_RNCNvMs1_NtCsezqlaDlZ1Zy_16wezterm_parallel10monitoringNtB7_17MonitoringManager17initialize_logger0B9_
FN:409,_RNCNvMs1_NtCsezqlaDlZ1Zy_16wezterm_parallel10monitoringNtB7_17MonitoringManager19get_current_metrics0B9_
FN:395,_RNCNvMs1_NtCsezqlaDlZ1Zy_16wezterm_parallel10monitoringNtB7_17MonitoringManager19start_health_checks0B9_
FN:402,_RNCNvMs1_NtCsezqlaDlZ1Zy_16wezterm_parallel10monitoringNtB7_17MonitoringManager22start_alert_processing0B9_
FN:388,_RNCNvMs1_NtCsezqlaDlZ1Zy_16wezterm_parallel10monitoringNtB7_17MonitoringManager24start_metrics_collection0B9_
FN:356,_RNCNvMs1_NtCsezqlaDlZ1Zy_16wezterm_parallel10monitoringNtB7_17MonitoringManager5start0B9_
FN:457,_RNvNtNtCsezqlaDlZ1Zy_16wezterm_parallel10monitoring5utils17current_timestamp
FN:427,_RNCNvMs1_NtCsbBf3qmLqCJ0_16wezterm_parallel10monitoringNtB7_17MonitoringManager12create_alert0B9_
FN:441,_RNCNvMs1_NtCsbBf3qmLqCJ0_16wezterm_parallel10monitoringNtB7_17MonitoringManager13resolve_alert0B9_
FN:415,_RNCNvMs1_NtCsbBf3qmLqCJ0_16wezterm_parallel10monitoringNtB7_17MonitoringManager17get_active_alerts0B9_
FN:421,_RNCNvMs1_NtCsbBf3qmLqCJ0_16wezterm_parallel10monitoringNtB7_17MonitoringManager17get_health_status0B9_
FN:381,_RNCNvMs1_NtCsbBf3qmLqCJ0_16wezterm_parallel10monitoringNtB7_17MonitoringManager17initialize_logger0B9_
FN:409,_RNCNvMs1_NtCsbBf3qmLqCJ0_16wezterm_parallel10monitoringNtB7_17MonitoringManager19get_current_metrics0B9_
FN:395,_RNCNvMs1_NtCsbBf3qmLqCJ0_16wezterm_parallel10monitoringNtB7_17MonitoringManager19start_health_checks0B9_
FN:402,_RNCNvMs1_NtCsbBf3qmLqCJ0_16wezterm_parallel10monitoringNtB7_17MonitoringManager22start_alert_processing0B9_
FN:388,_RNCNvMs1_NtCsbBf3qmLqCJ0_16wezterm_parallel10monitoringNtB7_17MonitoringManager24start_metrics_collection0B9_
FN:356,_RNCNvMs1_NtCsbBf3qmLqCJ0_16wezterm_parallel10monitoringNtB7_17MonitoringManager5start0B9_
FN:460,_RNCNvNtNtCsbBf3qmLqCJ0_16wezterm_parallel10monitoring5utils17current_timestamp0B7_
FN:427,_RNvMs1_NtCsbBf3qmLqCJ0_16wezterm_parallel10monitoringNtB5_17MonitoringManager12create_alert
FN:441,_RNvMs1_NtCsbBf3qmLqCJ0_16wezterm_parallel10monitoringNtB5_17MonitoringManager13resolve_alert
FN:415,_RNvMs1_NtCsbBf3qmLqCJ0_16wezterm_parallel10monitoringNtB5_17MonitoringManager17get_active_alerts
FN:421,_RNvMs1_NtCsbBf3qmLqCJ0_16wezterm_parallel10monitoringNtB5_17MonitoringManager17get_health_status
FN:381,_RNvMs1_NtCsbBf3qmLqCJ0_16wezterm_parallel10monitoringNtB5_17MonitoringManager17initialize_logger
FN:409,_RNvMs1_NtCsbBf3qmLqCJ0_16wezterm_parallel10monitoringNtB5_17MonitoringManager19get_current_metrics
FN:395,_RNvMs1_NtCsbBf3qmLqCJ0_16wezterm_parallel10monitoringNtB5_17MonitoringManager19start_health_checks
FN:402,_RNvMs1_NtCsbBf3qmLqCJ0_16wezterm_parallel10monitoringNtB5_17MonitoringManager22start_alert_processing
FN:388,_RNvMs1_NtCsbBf3qmLqCJ0_16wezterm_parallel10monitoringNtB5_17MonitoringManager24start_metrics_collection
FN:344,_RNvMs1_NtCsbBf3qmLqCJ0_16wezterm_parallel10monitoringNtB5_17MonitoringManager3new
FN:356,_RNvMs1_NtCsbBf3qmLqCJ0_16wezterm_parallel10monitoringNtB5_17MonitoringManager5start
FN:457,_RNvNtNtCsbBf3qmLqCJ0_16wezterm_parallel10monitoring5utils17current_timestamp
FN:201,_RNvXNtCsbBf3qmLqCJ0_16wezterm_parallel10monitoringNtB2_13AlertSeverityNtNtCsd2KPTObkMr_4core3fmt7Display3fmt
FN:330,_RNvXs0_NtCsbBf3qmLqCJ0_16wezterm_parallel10monitoringNtB5_15AlertThresholdsNtNtCsd2KPTObkMr_4core7default7Default7default
FN:313,_RNvXs_NtCsbBf3qmLqCJ0_16wezterm_parallel10monitoringNtB4_16MonitoringConfigNtNtCsd2KPTObkMr_4core7default7Default7default
FNDA:0,_RNCNvNtNtCsezqlaDlZ1Zy_16wezterm_parallel10monitoring5utils17current_timestamp0B7_
FNDA:0,_RNCNvMs1_NtCsezqlaDlZ1Zy_16wezterm_parallel10monitoringNtB7_17MonitoringManager12create_alert0B9_
FNDA:0,_RNCNvMs1_NtCsezqlaDlZ1Zy_16wezterm_parallel10monitoringNtB7_17MonitoringManager13resolve_alert0B9_
FNDA:0,_RNCNvMs1_NtCsezqlaDlZ1Zy_16wezterm_parallel10monitoringNtB7_17MonitoringManager17get_active_alerts0B9_
FNDA:0,_RNCNvMs1_NtCsezqlaDlZ1Zy_16wezterm_parallel10monitoringNtB7_17MonitoringManager17get_health_status0B9_
FNDA:0,_RNCNvMs1_NtCsezqlaDlZ1Zy_16wezterm_parallel10monitoringNtB7_17MonitoringManager17initialize_logger0B9_
FNDA:0,_RNCNvMs1_NtCsezqlaDlZ1Zy_16wezterm_parallel10monitoringNtB7_17MonitoringManager19get_current_metrics0B9_
FNDA:0,_RNCNvMs1_NtCsezqlaDlZ1Zy_16wezterm_parallel10monitoringNtB7_17MonitoringManager19start_health_checks0B9_
FNDA:0,_RNCNvMs1_NtCsezqlaDlZ1Zy_16wezterm_parallel10monitoringNtB7_17MonitoringManager22start_alert_processing0B9_
FNDA:0,_RNCNvMs1_NtCsezqlaDlZ1Zy_16wezterm_parallel10monitoringNtB7_17MonitoringManager24start_metrics_collection0B9_
FNDA:0,_RNCNvMs1_NtCsezqlaDlZ1Zy_16wezterm_parallel10monitoringNtB7_17MonitoringManager5start0B9_
FNDA:0,_RNvNtNtCsezqlaDlZ1Zy_16wezterm_parallel10monitoring5utils17current_timestamp
FNDA:0,_RNCNvMs1_NtCsbBf3qmLqCJ0_16wezterm_parallel10monitoringNtB7_17MonitoringManager12create_alert0B9_
FNDA:0,_RNCNvMs1_NtCsbBf3qmLqCJ0_16wezterm_parallel10monitoringNtB7_17MonitoringManager13resolve_alert0B9_
FNDA:0,_RNCNvMs1_NtCsbBf3qmLqCJ0_16wezterm_parallel10monitoringNtB7_17MonitoringManager17get_active_alerts0B9_
FNDA:0,_RNCNvMs1_NtCsbBf3qmLqCJ0_16wezterm_parallel10monitoringNtB7_17MonitoringManager17get_health_status0B9_
FNDA:0,_RNCNvMs1_NtCsbBf3qmLqCJ0_16wezterm_parallel10monitoringNtB7_17MonitoringManager17initialize_logger0B9_
FNDA:0,_RNCNvMs1_NtCsbBf3qmLqCJ0_16wezterm_parallel10monitoringNtB7_17MonitoringManager19get_current_metrics0B9_
FNDA:0,_RNCNvMs1_NtCsbBf3qmLqCJ0_16wezterm_parallel10monitoringNtB7_17MonitoringManager19start_health_checks0B9_
FNDA:0,_RNCNvMs1_NtCsbBf3qmLqCJ0_16wezterm_parallel10monitoringNtB7_17MonitoringManager22start_alert_processing0B9_
FNDA:0,_RNCNvMs1_NtCsbBf3qmLqCJ0_16wezterm_parallel10monitoringNtB7_17MonitoringManager24start_metrics_collection0B9_
FNDA:0,_RNCNvMs1_NtCsbBf3qmLqCJ0_16wezterm_parallel10monitoringNtB7_17MonitoringManager5start0B9_
FNDA:0,_RNCNvNtNtCsbBf3qmLqCJ0_16wezterm_parallel10monitoring5utils17current_timestamp0B7_
FNDA:0,_RNvMs1_NtCsbBf3qmLqCJ0_16wezterm_parallel10monitoringNtB5_17MonitoringManager12create_alert
FNDA:0,_RNvMs1_NtCsbBf3qmLqCJ0_16wezterm_parallel10monitoringNtB5_17MonitoringManager13resolve_alert
FNDA:0,_RNvMs1_NtCsbBf3qmLqCJ0_16wezterm_parallel10monitoringNtB5_17MonitoringManager17get_active_alerts
FNDA:0,_RNvMs1_NtCsbBf3qmLqCJ0_16wezterm_parallel10monitoringNtB5_17MonitoringManager17get_health_status
FNDA:0,_RNvMs1_NtCsbBf3qmLqCJ0_16wezterm_parallel10monitoringNtB5_17MonitoringManager17initialize_logger
FNDA:0,_RNvMs1_NtCsbBf3qmLqCJ0_16wezterm_parallel10monitoringNtB5_17MonitoringManager19get_current_metrics
FNDA:0,_RNvMs1_NtCsbBf3qmLqCJ0_16wezterm_parallel10monitoringNtB5_17MonitoringManager19start_health_checks
FNDA:0,_RNvMs1_NtCsbBf3qmLqCJ0_16wezterm_parallel10monitoringNtB5_17MonitoringManager22start_alert_processing
FNDA:0,_RNvMs1_NtCsbBf3qmLqCJ0_16wezterm_parallel10monitoringNtB5_17MonitoringManager24start_metrics_collection
FNDA:0,_RNvMs1_NtCsbBf3qmLqCJ0_16wezterm_parallel10monitoringNtB5_17MonitoringManager3new
FNDA:0,_RNvMs1_NtCsbBf3qmLqCJ0_16wezterm_parallel10monitoringNtB5_17MonitoringManager5start
FNDA:0,_RNvNtNtCsbBf3qmLqCJ0_16wezterm_parallel10monitoring5utils17current_timestamp
FNDA:0,_RNvXNtCsbBf3qmLqCJ0_16wezterm_parallel10monitoringNtB2_13AlertSeverityNtNtCsd2KPTObkMr_4core3fmt7Display3fmt
FNDA:4,_RNvXs0_NtCsbBf3qmLqCJ0_16wezterm_parallel10monitoringNtB5_15AlertThresholdsNtNtCsd2KPTObkMr_4core7default7Default7default
FNDA:2,_RNvXs_NtCsbBf3qmLqCJ0_16wezterm_parallel10monitoringNtB4_16MonitoringConfigNtNtCsd2KPTObkMr_4core7default7Default7default
FNF:26
FNH:2
DA:201,0
DA:202,0
DA:203,0
DA:204,0
DA:205,0
DA:206,0
DA:208,0
DA:313,2
DA:314,2
DA:315,2
DA:316,2
DA:317,2
DA:318,2
DA:319,2
DA:320,2
DA:321,2
DA:322,2
DA:323,2
DA:324,2
DA:325,2
DA:326,2
DA:330,4
DA:331,4
DA:332,4
DA:333,4
DA:334,4
DA:335,4
DA:336,4
DA:337,4
DA:338,4
DA:339,4
DA:344,0
DA:345,0
DA:346,0
DA:347,0
DA:348,0
DA:349,0
DA:350,0
DA:351,0
DA:352,0
DA:353,0
DA:356,0
DA:357,0
DA:358,0
DA:359,0
DA:360,0
DA:362,0
DA:365,0
DA:368,0
DA:371,0
DA:374,0
DA:376,0
DA:377,0
DA:378,0
DA:381,0
DA:384,0
DA:385,0
DA:388,0
DA:391,0
DA:392,0
DA:395,0
DA:398,0
DA:399,0
DA:402,0
DA:405,0
DA:406,0
DA:409,0
DA:410,0
DA:411,0
DA:412,0
DA:415,0
DA:416,0
DA:417,0
DA:418,0
DA:421,0
DA:422,0
DA:423,0
DA:424,0
DA:427,0
DA:428,0
DA:429,0
DA:431,0
DA:432,0
DA:435,0
DA:436,0
DA:437,0
DA:438,0
DA:441,0
DA:442,0
DA:443,0
DA:444,0
DA:445,0
DA:447,0
DA:448,0
DA:449,0
DA:450,0
DA:457,0
DA:458,0
DA:459,0
DA:460,0
DA:461,0
DA:462,0
DA:463,0
DA:464,0
DA:465,0
BRF:0
BRH:0
LF:116
LH:24
end_of_record
SF:/Users/aiq/work/wezterm-parallel/src/performance/async_opt.rs
FN:180,_RNCNvMNtNtCsezqlaDlZ1Zy_16wezterm_parallel11performance9async_optNtB4_13AsyncTaskPool9get_stats0B8_
FN:364,_RNCNvMs0_NtNtCsezqlaDlZ1Zy_16wezterm_parallel11performance9async_optNtB7_17ThreadPoolMonitor16start_monitoring0Bb_
FN:422,_RNCNvXs2_NtNtCsezqlaDlZ1Zy_16wezterm_parallel11performance9async_optNtB7_18FileProcessingTaskNtB7_9AsyncTask7execute0Bb_
FN:475,_RNCNvXs4_NtNtCsezqlaDlZ1Zy_16wezterm_parallel11performance9async_optNtB7_12DatabaseTaskNtB7_9AsyncTask7execute0Bb_
FN:234,_RINvMs_NtNtCsezqlaDlZ1Zy_16wezterm_parallel11performance9async_optINtB5_14BatchProcessorpE3newppEB9_
FN:246,_RNCINvMs_NtNtCsezqlaDlZ1Zy_16wezterm_parallel11performance9async_optINtB7_14BatchProcessorpE3newppE0Bb_
FN:85,_RNCNCNvMNtNtCsezqlaDlZ1Zy_16wezterm_parallel11performance9async_optNtB6_13AsyncTaskPool11submit_task00Ba_
FN:151,_RNCNCNvMNtNtCsezqlaDlZ1Zy_16wezterm_parallel11performance9async_optNtB6_13AsyncTaskPool23cleanup_completed_tasks00Ba_
FN:78,_RNCNvMNtNtCsezqlaDlZ1Zy_16wezterm_parallel11performance9async_optNtB4_13AsyncTaskPool11submit_task0B8_
FN:97,_RNCNvMNtNtCsezqlaDlZ1Zy_16wezterm_parallel11performance9async_optNtB4_13AsyncTaskPool13process_queue0B8_
FN:192,_RNCNvMNtNtCsezqlaDlZ1Zy_16wezterm_parallel11performance9async_optNtB4_13AsyncTaskPool15generate_report0B8_
FN:155,_RNCNvMNtNtCsezqlaDlZ1Zy_16wezterm_parallel11performance9async_optNtB4_13AsyncTaskPool19wait_for_completion0B8_
FN:149,_RNCNvMNtNtCsezqlaDlZ1Zy_16wezterm_parallel11performance9async_optNtB4_13AsyncTaskPool23cleanup_completed_tasks0B8_
FN:319,_RNCNvMs_NtNtCsezqlaDlZ1Zy_16wezterm_parallel11performance9async_optINtB6_14BatchProcessorpE4stop0Ba_
FN:303,_RNCNvMs_NtNtCsezqlaDlZ1Zy_16wezterm_parallel11performance9async_optINtB6_14BatchProcessorpE5flush0Ba_
FN:265,_RNCNvMs_NtNtCsezqlaDlZ1Zy_16wezterm_parallel11performance9async_optINtB6_14BatchProcessorpE5start0Ba_
FN:290,_RNCNvMs_NtNtCsezqlaDlZ1Zy_16wezterm_parallel11performance9async_optINtB6_14BatchProcessorpE8add_item0Ba_
FN:319,_RNvMs_NtNtCsezqlaDlZ1Zy_16wezterm_parallel11performance9async_optINtB4_14BatchProcessorpE4stopB8_
FN:303,_RNvMs_NtNtCsezqlaDlZ1Zy_16wezterm_parallel11performance9async_optINtB4_14BatchProcessorpE5flushB8_
FN:259,_RNvMs_NtNtCsezqlaDlZ1Zy_16wezterm_parallel11performance9async_optINtB4_14BatchProcessorpE5startB8_
FN:290,_RNvMs_NtNtCsezqlaDlZ1Zy_16wezterm_parallel11performance9async_optINtB4_14BatchProcessorpE8add_itemB8_
FN:78,_RNvMNtNtCsezqlaDlZ1Zy_16wezterm_parallel11performance9async_optNtB2_13AsyncTaskPool11submit_task
FN:97,_RNvMNtNtCsezqlaDlZ1Zy_16wezterm_parallel11performance9async_optNtB2_13AsyncTaskPool13process_queue
FN:192,_RNvMNtNtCsezqlaDlZ1Zy_16wezterm_parallel11performance9async_optNtB2_13AsyncTaskPool15generate_report
FN:155,_RNvMNtNtCsezqlaDlZ1Zy_16wezterm_parallel11performance9async_optNtB2_13AsyncTaskPool19wait_for_completion
FN:149,_RNvMNtNtCsezqlaDlZ1Zy_16wezterm_parallel11performance9async_optNtB2_13AsyncTaskPool23cleanup_completed_tasks
FN:65,_RNvMNtNtCsezqlaDlZ1Zy_16wezterm_parallel11performance9async_optNtB2_13AsyncTaskPool3new
FN:180,_RNvMNtNtCsezqlaDlZ1Zy_16wezterm_parallel11performance9async_optNtB2_13AsyncTaskPool9get_stats
FN:388,_RNvMs0_NtNtCsezqlaDlZ1Zy_16wezterm_parallel11performance9async_optNtB5_17ThreadPoolMonitor15stop_monitoring
FN:360,_RNvMs0_NtNtCsezqlaDlZ1Zy_16wezterm_parallel11performance9async_optNtB5_17ThreadPoolMonitor16start_monitoring
FN:346,_RNvMs0_NtNtCsezqlaDlZ1Zy_16wezterm_parallel11performance9async_optNtB5_17ThreadPoolMonitor3new
FN:404,_RNvMs1_NtNtCsezqlaDlZ1Zy_16wezterm_parallel11performance9async_optNtB5_18FileProcessingTask3new
FN:457,_RNvMs3_NtNtCsezqlaDlZ1Zy_16wezterm_parallel11performance9async_optNtB5_12DatabaseTask3new
FN:441,_RNvXs2_NtNtCsezqlaDlZ1Zy_16wezterm_parallel11performance9async_optNtB5_18FileProcessingTaskNtB5_9AsyncTask18estimated_duration
FN:413,_RNvXs2_NtNtCsezqlaDlZ1Zy_16wezterm_parallel11performance9async_optNtB5_18FileProcessingTaskNtB5_9AsyncTask7execute
FN:432,_RNvXs2_NtNtCsezqlaDlZ1Zy_16wezterm_parallel11performance9async_optNtB5_18FileProcessingTaskNtB5_9AsyncTask8priority
FN:445,_RNvXs2_NtNtCsezqlaDlZ1Zy_16wezterm_parallel11performance9async_optNtB5_18FileProcessingTaskNtB5_9AsyncTask9task_type
FN:489,_RNvXs4_NtNtCsezqlaDlZ1Zy_16wezterm_parallel11performance9async_optNtB5_12DatabaseTaskNtB5_9AsyncTask18estimated_duration
FN:466,_RNvXs4_NtNtCsezqlaDlZ1Zy_16wezterm_parallel11performance9async_optNtB5_12DatabaseTaskNtB5_9AsyncTask7execute
FN:485,_RNvXs4_NtNtCsezqlaDlZ1Zy_16wezterm_parallel11performance9async_optNtB5_12DatabaseTaskNtB5_9AsyncTask8priority
FN:493,_RNvXs4_NtNtCsezqlaDlZ1Zy_16wezterm_parallel11performance9async_optNtB5_12DatabaseTaskNtB5_9AsyncTask9task_type
FN:192,_RNCNvMNtNtCsbBf3qmLqCJ0_16wezterm_parallel11performance9async_optNtB4_13AsyncTaskPool15generate_report0B8_
FN:192,_RNvMNtNtCsbBf3qmLqCJ0_16wezterm_parallel11performance9async_optNtB2_13AsyncTaskPool15generate_report
FN:535,_RNCNCNCNvNtNtNtCsbBf3qmLqCJ0_16wezterm_parallel11performance9async_opt5testss_20test_batch_processor000Bd_
FN:533,_RNCNCNvNtNtNtCsbBf3qmLqCJ0_16wezterm_parallel11performance9async_opt5testss_20test_batch_processor00Bb_
FN:503,_RNCNvNtNtNtCsbBf3qmLqCJ0_16wezterm_parallel11performance9async_opt5testss_20test_async_task_pool0B9_
FN:527,_RNCNvNtNtNtCsbBf3qmLqCJ0_16wezterm_parallel11performance9async_opt5testss_20test_batch_processor0B9_
FN:557,_RNCNvNtNtNtCsbBf3qmLqCJ0_16wezterm_parallel11performance9async_opt5testss_24test_thread_pool_monitor0B9_
FN:503,_RNvNtNtNtCsbBf3qmLqCJ0_16wezterm_parallel11performance9async_opt5testss_20test_async_task_pool
FN:527,_RNvNtNtNtCsbBf3qmLqCJ0_16wezterm_parallel11performance9async_opt5testss_20test_batch_processor
FN:557,_RNvNtNtNtCsbBf3qmLqCJ0_16wezterm_parallel11performance9async_opt5testss_24test_thread_pool_monitor
FN:234,_RINvMs_NtNtCsbBf3qmLqCJ0_16wezterm_parallel11performance9async_optINtB5_14BatchProcessorlE3newNCNCNvNtB5_5testss_20test_batch_processor00NCNCB1w_00EB9_
FN:246,_RNCINvMs_NtNtCsbBf3qmLqCJ0_16wezterm_parallel11performance9async_optINtB7_14BatchProcessorlE3newNCNCNvNtB7_5testss_20test_batch_processor00NCNCB1y_00E0Bb_
FN:85,_RNCNCNvMNtNtCsbBf3qmLqCJ0_16wezterm_parallel11performance9async_optNtB6_13AsyncTaskPool11submit_task00Ba_
FN:151,_RNCNCNvMNtNtCsbBf3qmLqCJ0_16wezterm_parallel11performance9async_optNtB6_13AsyncTaskPool23cleanup_completed_tasks00Ba_
FN:78,_RNCNvMNtNtCsbBf3qmLqCJ0_16wezterm_parallel11performance9async_optNtB4_13AsyncTaskPool11submit_task0B8_
FN:97,_RNCNvMNtNtCsbBf3qmLqCJ0_16wezterm_parallel11performance9async_optNtB4_13AsyncTaskPool13process_queue0B8_
FN:155,_RNCNvMNtNtCsbBf3qmLqCJ0_16wezterm_parallel11performance9async_optNtB4_13AsyncTaskPool19wait_for_completion0B8_
FN:149,_RNCNvMNtNtCsbBf3qmLqCJ0_16wezterm_parallel11performance9async_optNtB4_13AsyncTaskPool23cleanup_completed_tasks0B8_
FN:180,_RNCNvMNtNtCsbBf3qmLqCJ0_16wezterm_parallel11performance9async_optNtB4_13AsyncTaskPool9get_stats0B8_
FN:364,_RNCNvMs0_NtNtCsbBf3qmLqCJ0_16wezterm_parallel11performance9async_optNtB7_17ThreadPoolMonitor16start_monitoring0Bb_
FN:319,_RNCNvMs_NtNtCsbBf3qmLqCJ0_16wezterm_parallel11performance9async_optINtB6_14BatchProcessorlE4stop0Ba_
FN:303,_RNCNvMs_NtNtCsbBf3qmLqCJ0_16wezterm_parallel11performance9async_optINtB6_14BatchProcessorlE5flush0Ba_
FN:265,_RNCNvMs_NtNtCsbBf3qmLqCJ0_16wezterm_parallel11performance9async_optINtB6_14BatchProcessorlE5start0Ba_
FN:290,_RNCNvMs_NtNtCsbBf3qmLqCJ0_16wezterm_parallel11performance9async_optINtB6_14BatchProcessorlE8add_item0Ba_
FN:422,_RNCNvXs2_NtNtCsbBf3qmLqCJ0_16wezterm_parallel11performance9async_optNtB7_18FileProcessingTaskNtB7_9AsyncTask7execute0Bb_
FN:475,_RNCNvXs4_NtNtCsbBf3qmLqCJ0_16wezterm_parallel11performance9async_optNtB7_12DatabaseTaskNtB7_9AsyncTask7execute0Bb_
FN:319,_RNvMs_NtNtCsbBf3qmLqCJ0_16wezterm_parallel11performance9async_optINtB4_14BatchProcessorlE4stopB8_
FN:303,_RNvMs_NtNtCsbBf3qmLqCJ0_16wezterm_parallel11performance9async_optINtB4_14BatchProcessorlE5flushB8_
FN:259,_RNvMs_NtNtCsbBf3qmLqCJ0_16wezterm_parallel11performance9async_optINtB4_14BatchProcessorlE5startB8_
FN:290,_RNvMs_NtNtCsbBf3qmLqCJ0_16wezterm_parallel11performance9async_optINtB4_14BatchProcessorlE8add_itemB8_
FN:78,_RNvMNtNtCsbBf3qmLqCJ0_16wezterm_parallel11performance9async_optNtB2_13AsyncTaskPool11submit_task
FN:97,_RNvMNtNtCsbBf3qmLqCJ0_16wezterm_parallel11performance9async_optNtB2_13AsyncTaskPool13process_queue
FN:155,_RNvMNtNtCsbBf3qmLqCJ0_16wezterm_parallel11performance9async_optNtB2_13AsyncTaskPool19wait_for_completion
FN:149,_RNvMNtNtCsbBf3qmLqCJ0_16wezterm_parallel11performance9async_optNtB2_13AsyncTaskPool23cleanup_completed_tasks
FN:65,_RNvMNtNtCsbBf3qmLqCJ0_16wezterm_parallel11performance9async_optNtB2_13AsyncTaskPool3new
FN:180,_RNvMNtNtCsbBf3qmLqCJ0_16wezterm_parallel11performance9async_optNtB2_13AsyncTaskPool9get_stats
FN:388,_RNvMs0_NtNtCsbBf3qmLqCJ0_16wezterm_parallel11performance9async_optNtB5_17ThreadPoolMonitor15stop_monitoring
FN:360,_RNvMs0_NtNtCsbBf3qmLqCJ0_16wezterm_parallel11performance9async_optNtB5_17ThreadPoolMonitor16start_monitoring
FN:346,_RNvMs0_NtNtCsbBf3qmLqCJ0_16wezterm_parallel11performance9async_optNtB5_17ThreadPoolMonitor3new
FN:404,_RNvMs1_NtNtCsbBf3qmLqCJ0_16wezterm_parallel11performance9async_optNtB5_18FileProcessingTask3new
FN:457,_RNvMs3_NtNtCsbBf3qmLqCJ0_16wezterm_parallel11performance9async_optNtB5_12DatabaseTask3new
FN:441,_RNvXs2_NtNtCsbBf3qmLqCJ0_16wezterm_parallel11performance9async_optNtB5_18FileProcessingTaskNtB5_9AsyncTask18estimated_duration
FN:413,_RNvXs2_NtNtCsbBf3qmLqCJ0_16wezterm_parallel11performance9async_optNtB5_18FileProcessingTaskNtB5_9AsyncTask7execute
FN:432,_RNvXs2_NtNtCsbBf3qmLqCJ0_16wezterm_parallel11performance9async_optNtB5_18FileProcessingTaskNtB5_9AsyncTask8priority
FN:445,_RNvXs2_NtNtCsbBf3qmLqCJ0_16wezterm_parallel11performance9async_optNtB5_18FileProcessingTaskNtB5_9AsyncTask9task_type
FN:489,_RNvXs4_NtNtCsbBf3qmLqCJ0_16wezterm_parallel11performance9async_optNtB5_12DatabaseTaskNtB5_9AsyncTask18estimated_duration
FN:466,_RNvXs4_NtNtCsbBf3qmLqCJ0_16wezterm_parallel11performance9async_optNtB5_12DatabaseTaskNtB5_9AsyncTask7execute
FN:485,_RNvXs4_NtNtCsbBf3qmLqCJ0_16wezterm_parallel11performance9async_optNtB5_12DatabaseTaskNtB5_9AsyncTask8priority
FN:493,_RNvXs4_NtNtCsbBf3qmLqCJ0_16wezterm_parallel11performance9async_optNtB5_12DatabaseTaskNtB5_9AsyncTask9task_type
FNDA:0,_RNCNvMNtNtCsezqlaDlZ1Zy_16wezterm_parallel11performance9async_optNtB4_13AsyncTaskPool9get_stats0B8_
FNDA:0,_RNCNvMs0_NtNtCsezqlaDlZ1Zy_16wezterm_parallel11performance9async_optNtB7_17ThreadPoolMonitor16start_monitoring0Bb_
FNDA:0,_RNCNvXs2_NtNtCsezqlaDlZ1Zy_16wezterm_parallel11performance9async_optNtB7_18FileProcessingTaskNtB7_9AsyncTask7execute0Bb_
FNDA:0,_RNCNvXs4_NtNtCsezqlaDlZ1Zy_16wezterm_parallel11performance9async_optNtB7_12DatabaseTaskNtB7_9AsyncTask7execute0Bb_
FNDA:0,_RINvMs_NtNtCsezqlaDlZ1Zy_16wezterm_parallel11performance9async_optINtB5_14BatchProcessorpE3newppEB9_
FNDA:0,_RNCINvMs_NtNtCsezqlaDlZ1Zy_16wezterm_parallel11performance9async_optINtB7_14BatchProcessorpE3newppE0Bb_
FNDA:0,_RNCNCNvMNtNtCsezqlaDlZ1Zy_16wezterm_parallel11performance9async_optNtB6_13AsyncTaskPool11submit_task00Ba_
FNDA:0,_RNCNCNvMNtNtCsezqlaDlZ1Zy_16wezterm_parallel11performance9async_optNtB6_13AsyncTaskPool23cleanup_completed_tasks00Ba_
FNDA:0,_RNCNvMNtNtCsezqlaDlZ1Zy_16wezterm_parallel11performance9async_optNtB4_13AsyncTaskPool11submit_task0B8_
FNDA:0,_RNCNvMNtNtCsezqlaDlZ1Zy_16wezterm_parallel11performance9async_optNtB4_13AsyncTaskPool13process_queue0B8_
FNDA:0,_RNCNvMNtNtCsezqlaDlZ1Zy_16wezterm_parallel11performance9async_optNtB4_13AsyncTaskPool15generate_report0B8_
FNDA:0,_RNCNvMNtNtCsezqlaDlZ1Zy_16wezterm_parallel11performance9async_optNtB4_13AsyncTaskPool19wait_for_completion0B8_
FNDA:0,_RNCNvMNtNtCsezqlaDlZ1Zy_16wezterm_parallel11performance9async_optNtB4_13AsyncTaskPool23cleanup_completed_tasks0B8_
FNDA:0,_RNCNvMs_NtNtCsezqlaDlZ1Zy_16wezterm_parallel11performance9async_optINtB6_14BatchProcessorpE4stop0Ba_
FNDA:0,_RNCNvMs_NtNtCsezqlaDlZ1Zy_16wezterm_parallel11performance9async_optINtB6_14BatchProcessorpE5flush0Ba_
FNDA:0,_RNCNvMs_NtNtCsezqlaDlZ1Zy_16wezterm_parallel11performance9async_optINtB6_14BatchProcessorpE5start0Ba_
FNDA:0,_RNCNvMs_NtNtCsezqlaDlZ1Zy_16wezterm_parallel11performance9async_optINtB6_14BatchProcessorpE8add_item0Ba_
FNDA:0,_RNvMs_NtNtCsezqlaDlZ1Zy_16wezterm_parallel11performance9async_optINtB4_14BatchProcessorpE4stopB8_
FNDA:0,_RNvMs_NtNtCsezqlaDlZ1Zy_16wezterm_parallel11performance9async_optINtB4_14BatchProcessorpE5flushB8_
FNDA:0,_RNvMs_NtNtCsezqlaDlZ1Zy_16wezterm_parallel11performance9async_optINtB4_14BatchProcessorpE5startB8_
FNDA:0,_RNvMs_NtNtCsezqlaDlZ1Zy_16wezterm_parallel11performance9async_optINtB4_14BatchProcessorpE8add_itemB8_
FNDA:0,_RNvMNtNtCsezqlaDlZ1Zy_16wezterm_parallel11performance9async_optNtB2_13AsyncTaskPool11submit_task
FNDA:0,_RNvMNtNtCsezqlaDlZ1Zy_16wezterm_parallel11performance9async_optNtB2_13AsyncTaskPool13process_queue
FNDA:0,_RNvMNtNtCsezqlaDlZ1Zy_16wezterm_parallel11performance9async_optNtB2_13AsyncTaskPool15generate_report
FNDA:0,_RNvMNtNtCsezqlaDlZ1Zy_16wezterm_parallel11performance9async_optNtB2_13AsyncTaskPool19wait_for_completion
FNDA:0,_RNvMNtNtCsezqlaDlZ1Zy_16wezterm_parallel11performance9async_optNtB2_13AsyncTaskPool23cleanup_completed_tasks
FNDA:0,_RNvMNtNtCsezqlaDlZ1Zy_16wezterm_parallel11performance9async_optNtB2_13AsyncTaskPool3new
FNDA:0,_RNvMNtNtCsezqlaDlZ1Zy_16wezterm_parallel11performance9async_optNtB2_13AsyncTaskPool9get_stats
FNDA:0,_RNvMs0_NtNtCsezqlaDlZ1Zy_16wezterm_parallel11performance9async_optNtB5_17ThreadPoolMonitor15stop_monitoring
FNDA:0,_RNvMs0_NtNtCsezqlaDlZ1Zy_16wezterm_parallel11performance9async_optNtB5_17ThreadPoolMonitor16start_monitoring
FNDA:0,_RNvMs0_NtNtCsezqlaDlZ1Zy_16wezterm_parallel11performance9async_optNtB5_17ThreadPoolMonitor3new
FNDA:0,_RNvMs1_NtNtCsezqlaDlZ1Zy_16wezterm_parallel11performance9async_optNtB5_18FileProcessingTask3new
FNDA:0,_RNvMs3_NtNtCsezqlaDlZ1Zy_16wezterm_parallel11performance9async_optNtB5_12DatabaseTask3new
FNDA:0,_RNvXs2_NtNtCsezqlaDlZ1Zy_16wezterm_parallel11performance9async_optNtB5_18FileProcessingTaskNtB5_9AsyncTask18estimated_duration
FNDA:0,_RNvXs2_NtNtCsezqlaDlZ1Zy_16wezterm_parallel11performance9async_optNtB5_18FileProcessingTaskNtB5_9AsyncTask7execute
FNDA:0,_RNvXs2_NtNtCsezqlaDlZ1Zy_16wezterm_parallel11performance9async_optNtB5_18FileProcessingTaskNtB5_9AsyncTask8priority
FNDA:0,_RNvXs2_NtNtCsezqlaDlZ1Zy_16wezterm_parallel11performance9async_optNtB5_18FileProcessingTaskNtB5_9AsyncTask9task_type
FNDA:0,_RNvXs4_NtNtCsezqlaDlZ1Zy_16wezterm_parallel11performance9async_optNtB5_12DatabaseTaskNtB5_9AsyncTask18estimated_duration
FNDA:0,_RNvXs4_NtNtCsezqlaDlZ1Zy_16wezterm_parallel11performance9async_optNtB5_12DatabaseTaskNtB5_9AsyncTask7execute
FNDA:0,_RNvXs4_NtNtCsezqlaDlZ1Zy_16wezterm_parallel11performance9async_optNtB5_12DatabaseTaskNtB5_9AsyncTask8priority
FNDA:0,_RNvXs4_NtNtCsezqlaDlZ1Zy_16wezterm_parallel11performance9async_optNtB5_12DatabaseTaskNtB5_9AsyncTask9task_type
FNDA:0,_RNCNvMNtNtCsbBf3qmLqCJ0_16wezterm_parallel11performance9async_optNtB4_13AsyncTaskPool15generate_report0B8_
FNDA:0,_RNvMNtNtCsbBf3qmLqCJ0_16wezterm_parallel11performance9async_optNtB2_13AsyncTaskPool15generate_report
FNDA:1,_RNCNCNCNvNtNtNtCsbBf3qmLqCJ0_16wezterm_parallel11performance9async_opt5testss_20test_batch_processor000Bd_
FNDA:1,_RNCNCNvNtNtNtCsbBf3qmLqCJ0_16wezterm_parallel11performance9async_opt5testss_20test_batch_processor00Bb_
FNDA:1,_RNCNvNtNtNtCsbBf3qmLqCJ0_16wezterm_parallel11performance9async_opt5testss_20test_async_task_pool0B9_
FNDA:1,_RNCNvNtNtNtCsbBf3qmLqCJ0_16wezterm_parallel11performance9async_opt5testss_20test_batch_processor0B9_
FNDA:1,_RNCNvNtNtNtCsbBf3qmLqCJ0_16wezterm_parallel11performance9async_opt5testss_24test_thread_pool_monitor0B9_
FNDA:1,_RNvNtNtNtCsbBf3qmLqCJ0_16wezterm_parallel11performance9async_opt5testss_20test_async_task_pool
FNDA:1,_RNvNtNtNtCsbBf3qmLqCJ0_16wezterm_parallel11performance9async_opt5testss_20test_batch_processor
FNDA:1,_RNvNtNtNtCsbBf3qmLqCJ0_16wezterm_parallel11performance9async_opt5testss_24test_thread_pool_monitor
FNDA:1,_RINvMs_NtNtCsbBf3qmLqCJ0_16wezterm_parallel11performance9async_optINtB5_14BatchProcessorlE3newNCNCNvNtB5_5testss_20test_batch_processor00NCNCB1w_00EB9_
FNDA:1,_RNCINvMs_NtNtCsbBf3qmLqCJ0_16wezterm_parallel11performance9async_optINtB7_14BatchProcessorlE3newNCNCNvNtB7_5testss_20test_batch_processor00NCNCB1y_00E0Bb_
FNDA:0,_RNCNCNvMNtNtCsbBf3qmLqCJ0_16wezterm_parallel11performance9async_optNtB6_13AsyncTaskPool11submit_task00Ba_
FNDA:0,_RNCNCNvMNtNtCsbBf3qmLqCJ0_16wezterm_parallel11performance9async_optNtB6_13AsyncTaskPool23cleanup_completed_tasks00Ba_
FNDA:2,_RNCNvMNtNtCsbBf3qmLqCJ0_16wezterm_parallel11performance9async_optNtB4_13AsyncTaskPool11submit_task0B8_
FNDA:2,_RNCNvMNtNtCsbBf3qmLqCJ0_16wezterm_parallel11performance9async_optNtB4_13AsyncTaskPool13process_queue0B8_
FNDA:1,_RNCNvMNtNtCsbBf3qmLqCJ0_16wezterm_parallel11performance9async_optNtB4_13AsyncTaskPool19wait_for_completion0B8_
FNDA:2,_RNCNvMNtNtCsbBf3qmLqCJ0_16wezterm_parallel11performance9async_optNtB4_13AsyncTaskPool23cleanup_completed_tasks0B8_
FNDA:2,_RNCNvMNtNtCsbBf3qmLqCJ0_16wezterm_parallel11performance9async_optNtB4_13AsyncTaskPool9get_stats0B8_
FNDA:1,_RNCNvMs0_NtNtCsbBf3qmLqCJ0_16wezterm_parallel11performance9async_optNtB7_17ThreadPoolMonitor16start_monitoring0Bb_
FNDA:1,_RNCNvMs_NtNtCsbBf3qmLqCJ0_16wezterm_parallel11performance9async_optINtB6_14BatchProcessorlE4stop0Ba_
FNDA:2,_RNCNvMs_NtNtCsbBf3qmLqCJ0_16wezterm_parallel11performance9async_optINtB6_14BatchProcessorlE5flush0Ba_
FNDA:0,_RNCNvMs_NtNtCsbBf3qmLqCJ0_16wezterm_parallel11performance9async_optINtB6_14BatchProcessorlE5start0Ba_
FNDA:3,_RNCNvMs_NtNtCsbBf3qmLqCJ0_16wezterm_parallel11performance9async_optINtB6_14BatchProcessorlE8add_item0Ba_
FNDA:1,_RNCNvXs2_NtNtCsbBf3qmLqCJ0_16wezterm_parallel11performance9async_optNtB7_18FileProcessingTaskNtB7_9AsyncTask7execute0Bb_
FNDA:1,_RNCNvXs4_NtNtCsbBf3qmLqCJ0_16wezterm_parallel11performance9async_optNtB7_12DatabaseTaskNtB7_9AsyncTask7execute0Bb_
FNDA:1,_RNvMs_NtNtCsbBf3qmLqCJ0_16wezterm_parallel11performance9async_optINtB4_14BatchProcessorlE4stopB8_
FNDA:2,_RNvMs_NtNtCsbBf3qmLqCJ0_16wezterm_parallel11performance9async_optINtB4_14BatchProcessorlE5flushB8_
FNDA:1,_RNvMs_NtNtCsbBf3qmLqCJ0_16wezterm_parallel11performance9async_optINtB4_14BatchProcessorlE5startB8_
FNDA:3,_RNvMs_NtNtCsbBf3qmLqCJ0_16wezterm_parallel11performance9async_optINtB4_14BatchProcessorlE8add_itemB8_
FNDA:2,_RNvMNtNtCsbBf3qmLqCJ0_16wezterm_parallel11performance9async_optNtB2_13AsyncTaskPool11submit_task
FNDA:2,_RNvMNtNtCsbBf3qmLqCJ0_16wezterm_parallel11performance9async_optNtB2_13AsyncTaskPool13process_queue
FNDA:1,_RNvMNtNtCsbBf3qmLqCJ0_16wezterm_parallel11performance9async_optNtB2_13AsyncTaskPool19wait_for_completion
FNDA:2,_RNvMNtNtCsbBf3qmLqCJ0_16wezterm_parallel11performance9async_optNtB2_13AsyncTaskPool23cleanup_completed_tasks
FNDA:2,_RNvMNtNtCsbBf3qmLqCJ0_16wezterm_parallel11performance9async_optNtB2_13AsyncTaskPool3new
FNDA:2,_RNvMNtNtCsbBf3qmLqCJ0_16wezterm_parallel11performance9async_optNtB2_13AsyncTaskPool9get_stats
FNDA:1,_RNvMs0_NtNtCsbBf3qmLqCJ0_16wezterm_parallel11performance9async_optNtB5_17ThreadPoolMonitor15stop_monitoring
FNDA:1,_RNvMs0_NtNtCsbBf3qmLqCJ0_16wezterm_parallel11performance9async_optNtB5_17ThreadPoolMonitor16start_monitoring
FNDA:1,_RNvMs0_NtNtCsbBf3qmLqCJ0_16wezterm_parallel11performance9async_optNtB5_17ThreadPoolMonitor3new
FNDA:1,_RNvMs1_NtNtCsbBf3qmLqCJ0_16wezterm_parallel11performance9async_optNtB5_18FileProcessingTask3new
FNDA:1,_RNvMs3_NtNtCsbBf3qmLqCJ0_16wezterm_parallel11performance9async_optNtB5_12DatabaseTask3new
FNDA:0,_RNvXs2_NtNtCsbBf3qmLqCJ0_16wezterm_parallel11performance9async_optNtB5_18FileProcessingTaskNtB5_9AsyncTask18estimated_duration
FNDA:1,_RNvXs2_NtNtCsbBf3qmLqCJ0_16wezterm_parallel11performance9async_optNtB5_18FileProcessingTaskNtB5_9AsyncTask7execute
FNDA:0,_RNvXs2_NtNtCsbBf3qmLqCJ0_16wezterm_parallel11performance9async_optNtB5_18FileProcessingTaskNtB5_9AsyncTask8priority
FNDA:1,_RNvXs2_NtNtCsbBf3qmLqCJ0_16wezterm_parallel11performance9async_optNtB5_18FileProcessingTaskNtB5_9AsyncTask9task_type
FNDA:0,_RNvXs4_NtNtCsbBf3qmLqCJ0_16wezterm_parallel11performance9async_optNtB5_12DatabaseTaskNtB5_9AsyncTask18estimated_duration
FNDA:1,_RNvXs4_NtNtCsbBf3qmLqCJ0_16wezterm_parallel11performance9async_optNtB5_12DatabaseTaskNtB5_9AsyncTask7execute
FNDA:0,_RNvXs4_NtNtCsbBf3qmLqCJ0_16wezterm_parallel11performance9async_optNtB5_12DatabaseTaskNtB5_9AsyncTask8priority
FNDA:1,_RNvXs4_NtNtCsbBf3qmLqCJ0_16wezterm_parallel11performance9async_optNtB5_12DatabaseTaskNtB5_9AsyncTask9task_type
FNF:49
FNH:40
DA:65,2
DA:66,2
DA:68,2
DA:69,2
DA:70,2
DA:71,2
DA:72,2
DA:73,2
DA:74,2
DA:75,2
DA:78,2
DA:80,2
DA:81,2
DA:84,2
DA:85,2
DA:86,2
DA:88,2
DA:89,2
DA:90,2
DA:93,2
DA:94,2
DA:97,2
DA:98,2
DA:99,2
DA:101,0
DA:102,0
DA:106,2
DA:107,2
DA:108,2
DA:111,2
DA:112,2
DA:115,2
DA:116,2
DA:118,2
DA:120,2
DA:122,2
DA:123,2
DA:125,2
DA:126,2
DA:127,2
DA:128,2
DA:129,2
DA:130,2
DA:131,2
DA:132,2
DA:134,0
DA:135,0
DA:136,0
DA:137,0
DA:141,2
DA:144,2
DA:145,0
DA:146,2
DA:149,2
DA:150,2
DA:151,2
DA:152,2
DA:155,1
DA:157,1
DA:158,1
DA:159,1
DA:162,1
DA:163,1
DA:164,1
DA:167,1
DA:168,1
DA:169,0
DA:172,0
DA:175,0
DA:177,1
DA:180,2
DA:181,2
DA:182,2
DA:185,2
DA:186,2
DA:188,2
DA:189,2
DA:192,0
DA:193,0
DA:194,0
DA:195,0
DA:197,0
DA:200,0
DA:201,0
DA:202,0
DA:203,0
DA:204,0
DA:205,0
DA:206,0
DA:207,0
DA:208,0
DA:209,0
DA:219,0
DA:234,1
DA:235,1
DA:236,1
DA:237,1
DA:238,1
DA:239,1
DA:241,1
DA:242,1
DA:246,1
DA:249,1
DA:250,1
DA:251,1
DA:252,1
DA:253,1
DA:254,1
DA:255,1
DA:256,1
DA:259,1
DA:260,1
DA:261,1
DA:262,1
DA:263,1
DA:265,1
DA:266,0
DA:269,0
DA:271,0
DA:272,0
DA:273,0
DA:274,0
DA:275,0
DA:276,0
DA:279,0
DA:280,0
DA:281,0
DA:282,0
DA:283,0
DA:284,0
DA:287,1
DA:290,3
DA:291,3
DA:292,3
DA:293,3
DA:294,3
DA:297,3
DA:298,1
DA:299,2
DA:300,3
DA:303,2
DA:304,1
DA:305,2
DA:306,2
DA:307,1
DA:308,1
DA:309,1
DA:312,1
DA:313,1
DA:314,0
DA:315,1
DA:316,2
DA:319,1
DA:321,1
DA:323,1
DA:324,1
DA:325,1
DA:326,1
DA:346,1
DA:347,1
DA:349,1
DA:350,1
DA:351,1
DA:352,1
DA:353,1
DA:354,1
DA:355,1
DA:356,1
DA:357,1
DA:360,1
DA:361,1
DA:362,1
DA:364,1
DA:365,1
DA:368,2
DA:370,1
DA:371,1
DA:372,1
DA:373,1
DA:374,1
DA:375,1
DA:376,1
DA:377,1
DA:379,1
DA:380,0
DA:381,0
DA:382,1
DA:384,0
DA:385,1
DA:388,1
DA:389,1
DA:390,1
DA:391,1
DA:392,1
DA:404,1
DA:405,1
DA:406,1
DA:407,1
DA:408,1
DA:409,1
DA:413,1
DA:414,1
DA:415,1
DA:416,1
DA:417,1
DA:418,1
DA:419,1
DA:420,1
DA:421,1
DA:422,1
DA:423,1
DA:426,1
DA:428,1
DA:429,1
DA:430,1
DA:432,0
DA:433,0
DA:434,0
DA:435,0
DA:436,0
DA:437,0
DA:439,0
DA:441,0
DA:442,0
DA:443,0
DA:445,1
DA:446,1
DA:447,1
DA:457,1
DA:458,1
DA:459,1
DA:460,1
DA:461,1
DA:462,1
DA:466,1
DA:467,1
DA:468,1
DA:469,1
DA:470,1
DA:471,1
DA:472,1
DA:473,1
DA:474,1
DA:475,1
DA:476,1
DA:479,1
DA:481,1
DA:482,1
DA:483,1
DA:485,0
DA:486,0
DA:487,0
DA:489,0
DA:490,0
DA:491,0
DA:493,1
DA:494,1
DA:495,1
DA:503,1
DA:504,1
DA:506,1
DA:507,1
DA:508,1
DA:511,1
DA:512,1
DA:513,1
DA:516,1
DA:517,1
DA:519,1
DA:521,1
DA:522,1
DA:523,1
DA:524,1
DA:527,1
DA:528,1
DA:530,1
DA:532,1
DA:533,1
DA:534,1
DA:535,1
DA:536,1
DA:537,1
DA:538,1
DA:539,1
DA:542,1
DA:545,1
DA:546,1
DA:547,1
DA:550,1
DA:551,1
DA:553,1
DA:554,1
DA:557,1
DA:558,1
DA:559,1
DA:561,1
DA:564,1
DA:565,1
DA:566,1
DA:567,1
DA:569,1
DA:570,1
BRF:0
BRH:0
LF:323
LH:259
end_of_record
SF:/Users/aiq/work/wezterm-parallel/src/performance/memory.rs
FN:341,_RNCNvMs1_NtNtCsezqlaDlZ1Zy_16wezterm_parallel11performance6memoryNtB7_13MemoryMonitor15perform_cleanup0Bb_
FN:357,_RNCNvMs1_NtNtCsezqlaDlZ1Zy_16wezterm_parallel11performance6memoryNtB7_13MemoryMonitor17emergency_cleanup0Bb_
FN:209,_RNCNvMs1_NtNtCsezqlaDlZ1Zy_16wezterm_parallel11performance6memoryNtB7_13MemoryMonitor18check_memory_usage0Bb_
FN:324,_RNCNvMs1_NtNtCsezqlaDlZ1Zy_16wezterm_parallel11performance6memoryNtB7_13MemoryMonitor21estimate_memory_usage0Bb_
FN:387,_RNCNvMs1_NtNtCsezqlaDlZ1Zy_16wezterm_parallel11performance6memoryNtB7_13MemoryMonitor22generate_memory_report0Bb_
FN:312,_RNCNvMs1_NtNtCsezqlaDlZ1Zy_16wezterm_parallel11performance6memoryNtB7_13MemoryMonitor22get_macos_memory_usage0Bb_
FN:276,_RNCNvMs1_NtNtCsezqlaDlZ1Zy_16wezterm_parallel11performance6memoryNtB7_13MemoryMonitor24get_current_memory_usage0Bb_
FN:83,_RNCNvMNtNtCsezqlaDlZ1Zy_16wezterm_parallel11performance6memoryNtB4_10MemoryPool7cleanup0B8_
FN:90,_RNCNvMNtNtCsezqlaDlZ1Zy_16wezterm_parallel11performance6memoryNtB4_10MemoryPool7cleanups_0B8_
FN:77,_RNCNvMNtNtCsezqlaDlZ1Zy_16wezterm_parallel11performance6memoryNtB4_10MemoryPool9get_stats0B8_
FN:171,_RNCNvMs0_NtNtCsezqlaDlZ1Zy_16wezterm_parallel11performance6memoryNtB7_14StringInterner7cleanup0Bb_
FN:341,_RNCNvMs1_NtNtCsezqlaDlZ1Zy_16wezterm_parallel11performance6memoryNtB7_13MemoryMonitor15perform_cleanup0CsjIgq8mvfQLP_16wezterm_parallel
FN:357,_RNCNvMs1_NtNtCsezqlaDlZ1Zy_16wezterm_parallel11performance6memoryNtB7_13MemoryMonitor17emergency_cleanup0CsjIgq8mvfQLP_16wezterm_parallel
FN:209,_RNCNvMs1_NtNtCsezqlaDlZ1Zy_16wezterm_parallel11performance6memoryNtB7_13MemoryMonitor18check_memory_usage0CsjIgq8mvfQLP_16wezterm_parallel
FN:324,_RNCNvMs1_NtNtCsezqlaDlZ1Zy_16wezterm_parallel11performance6memoryNtB7_13MemoryMonitor21estimate_memory_usage0CsjIgq8mvfQLP_16wezterm_parallel
FN:312,_RNCNvMs1_NtNtCsezqlaDlZ1Zy_16wezterm_parallel11performance6memoryNtB7_13MemoryMonitor22get_macos_memory_usage0CsjIgq8mvfQLP_16wezterm_parallel
FN:276,_RNCNvMs1_NtNtCsezqlaDlZ1Zy_16wezterm_parallel11performance6memoryNtB7_13MemoryMonitor24get_current_memory_usage0CsjIgq8mvfQLP_16wezterm_parallel
FN:57,_RNvMNtNtCsezqlaDlZ1Zy_16wezterm_parallel11performance6memoryNtB2_10MemoryPool10deallocate
FN:21,_RNvMNtNtCsezqlaDlZ1Zy_16wezterm_parallel11performance6memoryNtB2_10MemoryPool3new
FN:82,_RNvMNtNtCsezqlaDlZ1Zy_16wezterm_parallel11performance6memoryNtB2_10MemoryPool7cleanup
FN:32,_RNvMNtNtCsezqlaDlZ1Zy_16wezterm_parallel11performance6memoryNtB2_10MemoryPool8allocate
FN:70,_RNvMNtNtCsezqlaDlZ1Zy_16wezterm_parallel11performance6memoryNtB2_10MemoryPool9get_stats
FN:128,_RNvMs0_NtNtCsezqlaDlZ1Zy_16wezterm_parallel11performance6memoryNtB5_14StringInterner3new
FN:137,_RNvMs0_NtNtCsezqlaDlZ1Zy_16wezterm_parallel11performance6memoryNtB5_14StringInterner6intern
FN:166,_RNvMs0_NtNtCsezqlaDlZ1Zy_16wezterm_parallel11performance6memoryNtB5_14StringInterner7cleanup
FN:150,_RNvMs0_NtNtCsezqlaDlZ1Zy_16wezterm_parallel11performance6memoryNtB5_14StringInterner9get_stats
FN:377,_RNvMs1_NtNtCsezqlaDlZ1Zy_16wezterm_parallel11performance6memoryNtB5_13MemoryMonitor15get_memory_pool
FN:341,_RNvMs1_NtNtCsezqlaDlZ1Zy_16wezterm_parallel11performance6memoryNtB5_13MemoryMonitor15perform_cleanup
FN:357,_RNvMs1_NtNtCsezqlaDlZ1Zy_16wezterm_parallel11performance6memoryNtB5_13MemoryMonitor17emergency_cleanup
FN:209,_RNvMs1_NtNtCsezqlaDlZ1Zy_16wezterm_parallel11performance6memoryNtB5_13MemoryMonitor18check_memory_usage
FN:382,_RNvMs1_NtNtCsezqlaDlZ1Zy_16wezterm_parallel11performance6memoryNtB5_13MemoryMonitor19get_string_interner
FN:324,_RNvMs1_NtNtCsezqlaDlZ1Zy_16wezterm_parallel11performance6memoryNtB5_13MemoryMonitor21estimate_memory_usage
FN:387,_RNvMs1_NtNtCsezqlaDlZ1Zy_16wezterm_parallel11performance6memoryNtB5_13MemoryMonitor22generate_memory_report
FN:312,_RNvMs1_NtNtCsezqlaDlZ1Zy_16wezterm_parallel11performance6memoryNtB5_13MemoryMonitor22get_macos_memory_usage
FN:276,_RNvMs1_NtNtCsezqlaDlZ1Zy_16wezterm_parallel11performance6memoryNtB5_13MemoryMonitor24get_current_memory_usage
FN:197,_RNvMs1_NtNtCsezqlaDlZ1Zy_16wezterm_parallel11performance6memoryNtB5_13MemoryMonitor3new
FN:122,_RNvXs_NtNtCsezqlaDlZ1Zy_16wezterm_parallel11performance6memoryNtB4_14StringInternerNtNtCsd2KPTObkMr_4core7default7Default7default
FN:83,_RNCNvMNtNtCsbBf3qmLqCJ0_16wezterm_parallel11performance6memoryNtB4_10MemoryPool7cleanup0B8_
FN:90,_RNCNvMNtNtCsbBf3qmLqCJ0_16wezterm_parallel11performance6memoryNtB4_10MemoryPool7cleanups_0B8_
FN:77,_RNCNvMNtNtCsbBf3qmLqCJ0_16wezterm_parallel11performance6memoryNtB4_10MemoryPool9get_stats0B8_
FN:171,_RNCNvMs0_NtNtCsbBf3qmLqCJ0_16wezterm_parallel11performance6memoryNtB7_14StringInterner7cleanup0Bb_
FN:341,_RNCNvMs1_NtNtCsbBf3qmLqCJ0_16wezterm_parallel11performance6memoryNtB7_13MemoryMonitor15perform_cleanup0Bb_
FN:357,_RNCNvMs1_NtNtCsbBf3qmLqCJ0_16wezterm_parallel11performance6memoryNtB7_13MemoryMonitor17emergency_cleanup0Bb_
FN:209,_RNCNvMs1_NtNtCsbBf3qmLqCJ0_16wezterm_parallel11performance6memoryNtB7_13MemoryMonitor18check_memory_usage0Bb_
FN:324,_RNCNvMs1_NtNtCsbBf3qmLqCJ0_16wezterm_parallel11performance6memoryNtB7_13MemoryMonitor21estimate_memory_usage0Bb_
FN:387,_RNCNvMs1_NtNtCsbBf3qmLqCJ0_16wezterm_parallel11performance6memoryNtB7_13MemoryMonitor22generate_memory_report0Bb_
FN:312,_RNCNvMs1_NtNtCsbBf3qmLqCJ0_16wezterm_parallel11performance6memoryNtB7_13MemoryMonitor22get_macos_memory_usage0Bb_
FN:276,_RNCNvMs1_NtNtCsbBf3qmLqCJ0_16wezterm_parallel11performance6memoryNtB7_13MemoryMonitor24get_current_memory_usage0Bb_
FN:377,_RNvMs1_NtNtCsbBf3qmLqCJ0_16wezterm_parallel11performance6memoryNtB5_13MemoryMonitor15get_memory_pool
FN:382,_RNvMs1_NtNtCsbBf3qmLqCJ0_16wezterm_parallel11performance6memoryNtB5_13MemoryMonitor19get_string_interner
FN:122,_RNvXs_NtNtCsbBf3qmLqCJ0_16wezterm_parallel11performance6memoryNtB4_14StringInternerNtNtCsd2KPTObkMr_4core7default7Default7default
FN:440,_RNvNtNtNtCsbBf3qmLqCJ0_16wezterm_parallel11performance6memory5testss_16test_memory_pool
FN:493,_RNvNtNtNtCsbBf3qmLqCJ0_16wezterm_parallel11performance6memory5testss_18test_memory_report
FN:481,_RNvNtNtNtCsbBf3qmLqCJ0_16wezterm_parallel11performance6memory5testss_19test_memory_monitor
FN:459,_RNvNtNtNtCsbBf3qmLqCJ0_16wezterm_parallel11performance6memory5testss_20test_string_interner
FN:493,_RNCNvNtNtNtCsbBf3qmLqCJ0_16wezterm_parallel11performance6memory5testss_18test_memory_report0B9_
FN:481,_RNCNvNtNtNtCsbBf3qmLqCJ0_16wezterm_parallel11performance6memory5testss_19test_memory_monitor0B9_
FN:57,_RNvMNtNtCsbBf3qmLqCJ0_16wezterm_parallel11performance6memoryNtB2_10MemoryPool10deallocate
FN:21,_RNvMNtNtCsbBf3qmLqCJ0_16wezterm_parallel11performance6memoryNtB2_10MemoryPool3new
FN:82,_RNvMNtNtCsbBf3qmLqCJ0_16wezterm_parallel11performance6memoryNtB2_10MemoryPool7cleanup
FN:32,_RNvMNtNtCsbBf3qmLqCJ0_16wezterm_parallel11performance6memoryNtB2_10MemoryPool8allocate
FN:70,_RNvMNtNtCsbBf3qmLqCJ0_16wezterm_parallel11performance6memoryNtB2_10MemoryPool9get_stats
FN:128,_RNvMs0_NtNtCsbBf3qmLqCJ0_16wezterm_parallel11performance6memoryNtB5_14StringInterner3new
FN:137,_RNvMs0_NtNtCsbBf3qmLqCJ0_16wezterm_parallel11performance6memoryNtB5_14StringInterner6intern
FN:166,_RNvMs0_NtNtCsbBf3qmLqCJ0_16wezterm_parallel11performance6memoryNtB5_14StringInterner7cleanup
FN:150,_RNvMs0_NtNtCsbBf3qmLqCJ0_16wezterm_parallel11performance6memoryNtB5_14StringInterner9get_stats
FN:341,_RNvMs1_NtNtCsbBf3qmLqCJ0_16wezterm_parallel11performance6memoryNtB5_13MemoryMonitor15perform_cleanup
FN:357,_RNvMs1_NtNtCsbBf3qmLqCJ0_16wezterm_parallel11performance6memoryNtB5_13MemoryMonitor17emergency_cleanup
FN:209,_RNvMs1_NtNtCsbBf3qmLqCJ0_16wezterm_parallel11performance6memoryNtB5_13MemoryMonitor18check_memory_usage
FN:324,_RNvMs1_NtNtCsbBf3qmLqCJ0_16wezterm_parallel11performance6memoryNtB5_13MemoryMonitor21estimate_memory_usage
FN:387,_RNvMs1_NtNtCsbBf3qmLqCJ0_16wezterm_parallel11performance6memoryNtB5_13MemoryMonitor22generate_memory_report
FN:312,_RNvMs1_NtNtCsbBf3qmLqCJ0_16wezterm_parallel11performance6memoryNtB5_13MemoryMonitor22get_macos_memory_usage
FN:276,_RNvMs1_NtNtCsbBf3qmLqCJ0_16wezterm_parallel11performance6memoryNtB5_13MemoryMonitor24get_current_memory_usage
FN:197,_RNvMs1_NtNtCsbBf3qmLqCJ0_16wezterm_parallel11performance6memoryNtB5_13MemoryMonitor3new
FNDA:0,_RNCNvMs1_NtNtCsezqlaDlZ1Zy_16wezterm_parallel11performance6memoryNtB7_13MemoryMonitor15perform_cleanup0Bb_
FNDA:0,_RNCNvMs1_NtNtCsezqlaDlZ1Zy_16wezterm_parallel11performance6memoryNtB7_13MemoryMonitor17emergency_cleanup0Bb_
FNDA:0,_RNCNvMs1_NtNtCsezqlaDlZ1Zy_16wezterm_parallel11performance6memoryNtB7_13MemoryMonitor18check_memory_usage0Bb_
FNDA:0,_RNCNvMs1_NtNtCsezqlaDlZ1Zy_16wezterm_parallel11performance6memoryNtB7_13MemoryMonitor21estimate_memory_usage0Bb_
FNDA:0,_RNCNvMs1_NtNtCsezqlaDlZ1Zy_16wezterm_parallel11performance6memoryNtB7_13MemoryMonitor22generate_memory_report0Bb_
FNDA:0,_RNCNvMs1_NtNtCsezqlaDlZ1Zy_16wezterm_parallel11performance6memoryNtB7_13MemoryMonitor22get_macos_memory_usage0Bb_
FNDA:0,_RNCNvMs1_NtNtCsezqlaDlZ1Zy_16wezterm_parallel11performance6memoryNtB7_13MemoryMonitor24get_current_memory_usage0Bb_
FNDA:0,_RNCNvMNtNtCsezqlaDlZ1Zy_16wezterm_parallel11performance6memoryNtB4_10MemoryPool7cleanup0B8_
FNDA:0,_RNCNvMNtNtCsezqlaDlZ1Zy_16wezterm_parallel11performance6memoryNtB4_10MemoryPool7cleanups_0B8_
FNDA:0,_RNCNvMNtNtCsezqlaDlZ1Zy_16wezterm_parallel11performance6memoryNtB4_10MemoryPool9get_stats0B8_
FNDA:0,_RNCNvMs0_NtNtCsezqlaDlZ1Zy_16wezterm_parallel11performance6memoryNtB7_14StringInterner7cleanup0Bb_
FNDA:0,_RNCNvMs1_NtNtCsezqlaDlZ1Zy_16wezterm_parallel11performance6memoryNtB7_13MemoryMonitor15perform_cleanup0CsjIgq8mvfQLP_16wezterm_parallel
FNDA:0,_RNCNvMs1_NtNtCsezqlaDlZ1Zy_16wezterm_parallel11performance6memoryNtB7_13MemoryMonitor17emergency_cleanup0CsjIgq8mvfQLP_16wezterm_parallel
FNDA:0,_RNCNvMs1_NtNtCsezqlaDlZ1Zy_16wezterm_parallel11performance6memoryNtB7_13MemoryMonitor18check_memory_usage0CsjIgq8mvfQLP_16wezterm_parallel
FNDA:0,_RNCNvMs1_NtNtCsezqlaDlZ1Zy_16wezterm_parallel11performance6memoryNtB7_13MemoryMonitor21estimate_memory_usage0CsjIgq8mvfQLP_16wezterm_parallel
FNDA:0,_RNCNvMs1_NtNtCsezqlaDlZ1Zy_16wezterm_parallel11performance6memoryNtB7_13MemoryMonitor22get_macos_memory_usage0CsjIgq8mvfQLP_16wezterm_parallel
FNDA:0,_RNCNvMs1_NtNtCsezqlaDlZ1Zy_16wezterm_parallel11performance6memoryNtB7_13MemoryMonitor24get_current_memory_usage0CsjIgq8mvfQLP_16wezterm_parallel
FNDA:0,_RNvMNtNtCsezqlaDlZ1Zy_16wezterm_parallel11performance6memoryNtB2_10MemoryPool10deallocate
FNDA:0,_RNvMNtNtCsezqlaDlZ1Zy_16wezterm_parallel11performance6memoryNtB2_10MemoryPool3new
FNDA:0,_RNvMNtNtCsezqlaDlZ1Zy_16wezterm_parallel11performance6memoryNtB2_10MemoryPool7cleanup
FNDA:0,_RNvMNtNtCsezqlaDlZ1Zy_16wezterm_parallel11performance6memoryNtB2_10MemoryPool8allocate
FNDA:0,_RNvMNtNtCsezqlaDlZ1Zy_16wezterm_parallel11performance6memoryNtB2_10MemoryPool9get_stats
FNDA:0,_RNvMs0_NtNtCsezqlaDlZ1Zy_16wezterm_parallel11performance6memoryNtB5_14StringInterner3new
FNDA:0,_RNvMs0_NtNtCsezqlaDlZ1Zy_16wezterm_parallel11performance6memoryNtB5_14StringInterner6intern
FNDA:0,_RNvMs0_NtNtCsezqlaDlZ1Zy_16wezterm_parallel11performance6memoryNtB5_14StringInterner7cleanup
FNDA:0,_RNvMs0_NtNtCsezqlaDlZ1Zy_16wezterm_parallel11performance6memoryNtB5_14StringInterner9get_stats
FNDA:0,_RNvMs1_NtNtCsezqlaDlZ1Zy_16wezterm_parallel11performance6memoryNtB5_13MemoryMonitor15get_memory_pool
FNDA:0,_RNvMs1_NtNtCsezqlaDlZ1Zy_16wezterm_parallel11performance6memoryNtB5_13MemoryMonitor15perform_cleanup
FNDA:0,_RNvMs1_NtNtCsezqlaDlZ1Zy_16wezterm_parallel11performance6memoryNtB5_13MemoryMonitor17emergency_cleanup
FNDA:0,_RNvMs1_NtNtCsezqlaDlZ1Zy_16wezterm_parallel11performance6memoryNtB5_13MemoryMonitor18check_memory_usage
FNDA:0,_RNvMs1_NtNtCsezqlaDlZ1Zy_16wezterm_parallel11performance6memoryNtB5_13MemoryMonitor19get_string_interner
FNDA:0,_RNvMs1_NtNtCsezqlaDlZ1Zy_16wezterm_parallel11performance6memoryNtB5_13MemoryMonitor21estimate_memory_usage
FNDA:0,_RNvMs1_NtNtCsezqlaDlZ1Zy_16wezterm_parallel11performance6memoryNtB5_13MemoryMonitor22generate_memory_report
FNDA:0,_RNvMs1_NtNtCsezqlaDlZ1Zy_16wezterm_parallel11performance6memoryNtB5_13MemoryMonitor22get_macos_memory_usage
FNDA:0,_RNvMs1_NtNtCsezqlaDlZ1Zy_16wezterm_parallel11performance6memoryNtB5_13MemoryMonitor24get_current_memory_usage
FNDA:0,_RNvMs1_NtNtCsezqlaDlZ1Zy_16wezterm_parallel11performance6memoryNtB5_13MemoryMonitor3new
FNDA:0,_RNvXs_NtNtCsezqlaDlZ1Zy_16wezterm_parallel11performance6memoryNtB4_14StringInternerNtNtCsd2KPTObkMr_4core7default7Default7default
FNDA:0,_RNCNvMNtNtCsbBf3qmLqCJ0_16wezterm_parallel11performance6memoryNtB4_10MemoryPool7cleanup0B8_
FNDA:0,_RNCNvMNtNtCsbBf3qmLqCJ0_16wezterm_parallel11performance6memoryNtB4_10MemoryPool7cleanups_0B8_
FNDA:2,_RNCNvMNtNtCsbBf3qmLqCJ0_16wezterm_parallel11performance6memoryNtB4_10MemoryPool9get_stats0B8_
FNDA:0,_RNCNvMs0_NtNtCsbBf3qmLqCJ0_16wezterm_parallel11performance6memoryNtB7_14StringInterner7cleanup0Bb_
FNDA:0,_RNCNvMs1_NtNtCsbBf3qmLqCJ0_16wezterm_parallel11performance6memoryNtB7_13MemoryMonitor15perform_cleanup0Bb_
FNDA:0,_RNCNvMs1_NtNtCsbBf3qmLqCJ0_16wezterm_parallel11performance6memoryNtB7_13MemoryMonitor17emergency_cleanup0Bb_
FNDA:1,_RNCNvMs1_NtNtCsbBf3qmLqCJ0_16wezterm_parallel11performance6memoryNtB7_13MemoryMonitor18check_memory_usage0Bb_
FNDA:0,_RNCNvMs1_NtNtCsbBf3qmLqCJ0_16wezterm_parallel11performance6memoryNtB7_13MemoryMonitor21estimate_memory_usage0Bb_
FNDA:1,_RNCNvMs1_NtNtCsbBf3qmLqCJ0_16wezterm_parallel11performance6memoryNtB7_13MemoryMonitor22generate_memory_report0Bb_
FNDA:0,_RNCNvMs1_NtNtCsbBf3qmLqCJ0_16wezterm_parallel11performance6memoryNtB7_13MemoryMonitor22get_macos_memory_usage0Bb_
FNDA:0,_RNCNvMs1_NtNtCsbBf3qmLqCJ0_16wezterm_parallel11performance6memoryNtB7_13MemoryMonitor24get_current_memory_usage0Bb_
FNDA:0,_RNvMs1_NtNtCsbBf3qmLqCJ0_16wezterm_parallel11performance6memoryNtB5_13MemoryMonitor15get_memory_pool
FNDA:0,_RNvMs1_NtNtCsbBf3qmLqCJ0_16wezterm_parallel11performance6memoryNtB5_13MemoryMonitor19get_string_interner
FNDA:0,_RNvXs_NtNtCsbBf3qmLqCJ0_16wezterm_parallel11performance6memoryNtB4_14StringInternerNtNtCsd2KPTObkMr_4core7default7Default7default
FNDA:1,_RNvNtNtNtCsbBf3qmLqCJ0_16wezterm_parallel11performance6memory5testss_16test_memory_pool
FNDA:1,_RNvNtNtNtCsbBf3qmLqCJ0_16wezterm_parallel11performance6memory5testss_18test_memory_report
FNDA:1,_RNvNtNtNtCsbBf3qmLqCJ0_16wezterm_parallel11performance6memory5testss_19test_memory_monitor
FNDA:1,_RNvNtNtNtCsbBf3qmLqCJ0_16wezterm_parallel11performance6memory5testss_20test_string_interner
FNDA:1,_RNCNvNtNtNtCsbBf3qmLqCJ0_16wezterm_parallel11performance6memory5testss_18test_memory_report0B9_
FNDA:1,_RNCNvNtNtNtCsbBf3qmLqCJ0_16wezterm_parallel11performance6memory5testss_19test_memory_monitor0B9_
FNDA:2,_RNvMNtNtCsbBf3qmLqCJ0_16wezterm_parallel11performance6memoryNtB2_10MemoryPool10deallocate
FNDA:3,_RNvMNtNtCsbBf3qmLqCJ0_16wezterm_parallel11performance6memoryNtB2_10MemoryPool3new
FNDA:0,_RNvMNtNtCsbBf3qmLqCJ0_16wezterm_parallel11performance6memoryNtB2_10MemoryPool7cleanup
FNDA:2,_RNvMNtNtCsbBf3qmLqCJ0_16wezterm_parallel11performance6memoryNtB2_10MemoryPool8allocate
FNDA:2,_RNvMNtNtCsbBf3qmLqCJ0_16wezterm_parallel11performance6memoryNtB2_10MemoryPool9get_stats
FNDA:3,_RNvMs0_NtNtCsbBf3qmLqCJ0_16wezterm_parallel11performance6memoryNtB5_14StringInterner3new
FNDA:3,_RNvMs0_NtNtCsbBf3qmLqCJ0_16wezterm_parallel11performance6memoryNtB5_14StringInterner6intern
FNDA:0,_RNvMs0_NtNtCsbBf3qmLqCJ0_16wezterm_parallel11performance6memoryNtB5_14StringInterner7cleanup
FNDA:2,_RNvMs0_NtNtCsbBf3qmLqCJ0_16wezterm_parallel11performance6memoryNtB5_14StringInterner9get_stats
FNDA:0,_RNvMs1_NtNtCsbBf3qmLqCJ0_16wezterm_parallel11performance6memoryNtB5_13MemoryMonitor15perform_cleanup
FNDA:0,_RNvMs1_NtNtCsbBf3qmLqCJ0_16wezterm_parallel11performance6memoryNtB5_13MemoryMonitor17emergency_cleanup
FNDA:1,_RNvMs1_NtNtCsbBf3qmLqCJ0_16wezterm_parallel11performance6memoryNtB5_13MemoryMonitor18check_memory_usage
FNDA:0,_RNvMs1_NtNtCsbBf3qmLqCJ0_16wezterm_parallel11performance6memoryNtB5_13MemoryMonitor21estimate_memory_usage
FNDA:1,_RNvMs1_NtNtCsbBf3qmLqCJ0_16wezterm_parallel11performance6memoryNtB5_13MemoryMonitor22generate_memory_report
FNDA:0,_RNvMs1_NtNtCsbBf3qmLqCJ0_16wezterm_parallel11performance6memoryNtB5_13MemoryMonitor22get_macos_memory_usage
FNDA:0,_RNvMs1_NtNtCsbBf3qmLqCJ0_16wezterm_parallel11performance6memoryNtB5_13MemoryMonitor24get_current_memory_usage
FNDA:2,_RNvMs1_NtNtCsbBf3qmLqCJ0_16wezterm_parallel11performance6memoryNtB5_13MemoryMonitor3new
FNF:37
FNH:19
DA:21,3
DA:22,3
DA:23,3
DA:24,3
DA:25,3
DA:26,3
DA:27,3
DA:28,3
DA:29,3
DA:32,2
DA:34,2
DA:36,2
DA:37,0
DA:38,0
DA:39,0
DA:40,0
DA:41,0
DA:42,0
DA:43,2
DA:46,2
DA:47,2
DA:49,2
DA:50,2
DA:51,2
DA:53,2
DA:54,2
DA:57,2
DA:58,2
DA:59,2
DA:62,2
DA:63,2
DA:64,2
DA:65,2
DA:67,2
DA:70,2
DA:72,2
DA:73,2
DA:74,2
DA:75,2
DA:76,2
DA:77,2
DA:79,2
DA:82,0
DA:83,0
DA:86,0
DA:87,0
DA:88,0
DA:90,0
DA:91,0
DA:92,0
DA:93,0
DA:94,0
DA:95,0
DA:96,0
DA:100,0
DA:122,0
DA:123,0
DA:124,0
DA:128,3
DA:129,3
DA:130,3
DA:131,3
DA:132,3
DA:133,3
DA:134,3
DA:137,3
DA:138,3
DA:139,1
DA:140,1
DA:142,2
DA:143,2
DA:144,2
DA:145,2
DA:147,3
DA:150,2
DA:151,2
DA:152,2
DA:153,1
DA:155,1
DA:157,2
DA:158,2
DA:159,2
DA:160,2
DA:161,2
DA:162,2
DA:163,2
DA:166,0
DA:167,0
DA:170,0
DA:171,0
DA:173,0
DA:174,0
DA:175,0
DA:176,0
DA:177,0
DA:178,0
DA:179,0
DA:183,0
DA:197,2
DA:198,2
DA:199,2
DA:200,2
DA:201,2
DA:202,2
DA:203,2
DA:204,2
DA:205,2
DA:206,2
DA:209,1
DA:210,1
DA:211,1
DA:212,1
DA:213,0
DA:214,0
DA:217,0
DA:218,0
DA:220,0
DA:221,0
DA:222,0
DA:223,0
DA:225,0
DA:226,0
DA:227,0
DA:229,0
DA:230,0
DA:231,0
DA:233,0
DA:234,0
DA:235,0
DA:236,0
DA:237,0
DA:238,0
DA:241,0
DA:242,0
DA:243,0
DA:244,0
DA:246,0
DA:247,0
DA:248,0
DA:249,0
DA:251,0
DA:252,0
DA:253,0
DA:254,0
DA:255,0
DA:256,0
DA:257,0
DA:259,0
DA:260,0
DA:261,0
DA:263,0
DA:264,0
DA:265,0
DA:266,0
DA:268,0
DA:269,0
DA:271,0
DA:273,1
DA:276,0
DA:284,0
DA:295,0
DA:312,0
DA:314,0
DA:315,0
DA:324,0
DA:326,0
DA:327,0
DA:328,0
DA:331,0
DA:332,0
DA:333,0
DA:337,0
DA:338,0
DA:341,0
DA:342,0
DA:343,0
DA:346,0
DA:347,0
DA:351,0
DA:352,0
DA:354,0
DA:357,0
DA:358,0
DA:359,0
DA:362,0
DA:364,0
DA:365,0
DA:366,0
DA:370,0
DA:372,0
DA:374,0
DA:377,0
DA:378,0
DA:379,0
DA:382,0
DA:383,0
DA:384,0
DA:387,1
DA:388,1
DA:389,1
DA:390,1
DA:393,1
DA:394,1
DA:395,1
DA:398,1
DA:399,1
DA:400,1
DA:401,1
DA:402,1
DA:403,1
DA:404,1
DA:405,1
DA:406,1
DA:407,1
DA:408,1
DA:409,1
DA:410,1
DA:411,1
DA:412,1
DA:413,1
DA:414,1
DA:415,1
DA:416,1
DA:424,1
DA:440,1
DA:441,1
DA:444,1
DA:445,1
DA:447,1
DA:448,1
DA:451,1
DA:452,1
DA:454,1
DA:455,1
DA:456,1
DA:459,1
DA:460,1
DA:462,1
DA:463,1
DA:464,1
DA:466,1
DA:467,1
DA:468,1
DA:471,1
DA:473,1
DA:474,1
DA:475,1
DA:476,1
DA:477,1
DA:478,1
DA:481,1
DA:482,1
DA:485,1
DA:486,1
DA:487,1
DA:488,1
DA:489,1
DA:490,1
DA:493,1
DA:494,1
DA:495,1
DA:497,1
DA:498,1
DA:499,1
DA:500,1
BRF:0
BRH:0
LF:281
LH:155
end_of_record
SF:/Users/aiq/work/wezterm-parallel/src/performance/metrics.rs
FN:275,_RNCNCNvMs_NtNtCsezqlaDlZ1Zy_16wezterm_parallel11performance7metricsNtB8_16MetricsCollector16generate_summary0s1_0Bc_
FN:276,_RNCNCNvMs_NtNtCsezqlaDlZ1Zy_16wezterm_parallel11performance7metricsNtB8_16MetricsCollector16generate_summary0s2_0Bc_
FN:283,_RNCNCNvMs_NtNtCsezqlaDlZ1Zy_16wezterm_parallel11performance7metricsNtB8_16MetricsCollector16generate_summary0s3_0Bc_
FN:170,_RNCNCNvMs_NtNtCsezqlaDlZ1Zy_16wezterm_parallel11performance7metricsNtB8_16MetricsCollector20record_response_time00Bc_
FN:180,_RNCNvMs_NtNtCsezqlaDlZ1Zy_16wezterm_parallel11performance7metricsNtB6_16MetricsCollector12record_error0Ba_
FN:206,_RNCNvMs_NtNtCsezqlaDlZ1Zy_16wezterm_parallel11performance7metricsNtB6_16MetricsCollector14update_gc_info0Ba_
FN:261,_RNCNvMs_NtNtCsezqlaDlZ1Zy_16wezterm_parallel11performance7metricsNtB6_16MetricsCollector16generate_summary0Ba_
FN:192,_RNCNvMs_NtNtCsezqlaDlZ1Zy_16wezterm_parallel11performance7metricsNtB6_16MetricsCollector16record_operation0Ba_
FN:129,_RNCNvMs_NtNtCsezqlaDlZ1Zy_16wezterm_parallel11performance7metricsNtB6_16MetricsCollector16update_cpu_usage0Ba_
FN:146,_RNCNvMs_NtNtCsezqlaDlZ1Zy_16wezterm_parallel11performance7metricsNtB6_16MetricsCollector17update_task_count0Ba_
FN:249,_RNCNvMs_NtNtCsezqlaDlZ1Zy_16wezterm_parallel11performance7metricsNtB6_16MetricsCollector19get_current_metrics0Ba_
FN:255,_RNCNvMs_NtNtCsezqlaDlZ1Zy_16wezterm_parallel11performance7metricsNtB6_16MetricsCollector19get_metrics_history0Ba_
FN:139,_RNCNvMs_NtNtCsezqlaDlZ1Zy_16wezterm_parallel11performance7metricsNtB6_16MetricsCollector19update_memory_usage0Ba_
FN:213,_RNCNvMs_NtNtCsezqlaDlZ1Zy_16wezterm_parallel11performance7metricsNtB6_16MetricsCollector20calculate_error_rate0Ba_
FN:235,_RNCNvMs_NtNtCsezqlaDlZ1Zy_16wezterm_parallel11performance7metricsNtB6_16MetricsCollector20calculate_throughput0Ba_
FN:152,_RNCNvMs_NtNtCsezqlaDlZ1Zy_16wezterm_parallel11performance7metricsNtB6_16MetricsCollector20record_response_time0Ba_
FN:298,_RNCNvMs_NtNtCsezqlaDlZ1Zy_16wezterm_parallel11performance7metricsNtB6_16MetricsCollector24check_performance_alerts0Ba_
FN:383,_RNCNvMs_NtNtCsezqlaDlZ1Zy_16wezterm_parallel11performance7metricsNtB6_16MetricsCollector24generate_detailed_report0Ba_
FN:180,_RNvMs_NtNtCsezqlaDlZ1Zy_16wezterm_parallel11performance7metricsNtB4_16MetricsCollector12record_error
FN:206,_RNvMs_NtNtCsezqlaDlZ1Zy_16wezterm_parallel11performance7metricsNtB4_16MetricsCollector14update_gc_info
FN:120,_RNvMs_NtNtCsezqlaDlZ1Zy_16wezterm_parallel11performance7metricsNtB4_16MetricsCollector15stop_collection
FN:261,_RNvMs_NtNtCsezqlaDlZ1Zy_16wezterm_parallel11performance7metricsNtB4_16MetricsCollector16generate_summary
FN:192,_RNvMs_NtNtCsezqlaDlZ1Zy_16wezterm_parallel11performance7metricsNtB4_16MetricsCollector16record_operation
FN:76,_RNvMs_NtNtCsezqlaDlZ1Zy_16wezterm_parallel11performance7metricsNtB4_16MetricsCollector16start_collection
FN:129,_RNvMs_NtNtCsezqlaDlZ1Zy_16wezterm_parallel11performance7metricsNtB4_16MetricsCollector16update_cpu_usage
FN:146,_RNvMs_NtNtCsezqlaDlZ1Zy_16wezterm_parallel11performance7metricsNtB4_16MetricsCollector17update_task_count
FN:249,_RNvMs_NtNtCsezqlaDlZ1Zy_16wezterm_parallel11performance7metricsNtB4_16MetricsCollector19get_current_metrics
FN:255,_RNvMs_NtNtCsezqlaDlZ1Zy_16wezterm_parallel11performance7metricsNtB4_16MetricsCollector19get_metrics_history
FN:139,_RNvMs_NtNtCsezqlaDlZ1Zy_16wezterm_parallel11performance7metricsNtB4_16MetricsCollector19update_memory_usage
FN:213,_RNvMs_NtNtCsezqlaDlZ1Zy_16wezterm_parallel11performance7metricsNtB4_16MetricsCollector20calculate_error_rate
FN:235,_RNvMs_NtNtCsezqlaDlZ1Zy_16wezterm_parallel11performance7metricsNtB4_16MetricsCollector20calculate_throughput
FN:152,_RNvMs_NtNtCsezqlaDlZ1Zy_16wezterm_parallel11performance7metricsNtB4_16MetricsCollector20record_response_time
FN:298,_RNvMs_NtNtCsezqlaDlZ1Zy_16wezterm_parallel11performance7metricsNtB4_16MetricsCollector24check_performance_alerts
FN:383,_RNvMs_NtNtCsezqlaDlZ1Zy_16wezterm_parallel11performance7metricsNtB4_16MetricsCollector24generate_detailed_report
FN:62,_RNvMs_NtNtCsezqlaDlZ1Zy_16wezterm_parallel11performance7metricsNtB4_16MetricsCollector3new
FN:28,_RNvXNtNtCsezqlaDlZ1Zy_16wezterm_parallel11performance7metricsNtB2_18PerformanceMetricsNtNtCsd2KPTObkMr_4core7default7Default7default
FN:82,_RNCNvMs_NtNtCsezqlaDlZ1Zy_16wezterm_parallel11performance7metricsNtB6_16MetricsCollector16start_collection0Ba_
FN:129,_RNCNvMs_NtNtCsezqlaDlZ1Zy_16wezterm_parallel11performance7metricsNtB6_16MetricsCollector16update_cpu_usage0CsjIgq8mvfQLP_16wezterm_parallel
FN:139,_RNCNvMs_NtNtCsezqlaDlZ1Zy_16wezterm_parallel11performance7metricsNtB6_16MetricsCollector19update_memory_usage0CsjIgq8mvfQLP_16wezterm_parallel
FN:275,_RNCNCNvMs_NtNtCsbBf3qmLqCJ0_16wezterm_parallel11performance7metricsNtB8_16MetricsCollector16generate_summary0s1_0Bc_
FN:276,_RNCNCNvMs_NtNtCsbBf3qmLqCJ0_16wezterm_parallel11performance7metricsNtB8_16MetricsCollector16generate_summary0s2_0Bc_
FN:283,_RNCNCNvMs_NtNtCsbBf3qmLqCJ0_16wezterm_parallel11performance7metricsNtB8_16MetricsCollector16generate_summary0s3_0Bc_
FN:206,_RNCNvMs_NtNtCsbBf3qmLqCJ0_16wezterm_parallel11performance7metricsNtB6_16MetricsCollector14update_gc_info0Ba_
FN:261,_RNCNvMs_NtNtCsbBf3qmLqCJ0_16wezterm_parallel11performance7metricsNtB6_16MetricsCollector16generate_summary0Ba_
FN:383,_RNCNvMs_NtNtCsbBf3qmLqCJ0_16wezterm_parallel11performance7metricsNtB6_16MetricsCollector24generate_detailed_report0Ba_
FN:206,_RNvMs_NtNtCsbBf3qmLqCJ0_16wezterm_parallel11performance7metricsNtB4_16MetricsCollector14update_gc_info
FN:261,_RNvMs_NtNtCsbBf3qmLqCJ0_16wezterm_parallel11performance7metricsNtB4_16MetricsCollector16generate_summary
FN:383,_RNvMs_NtNtCsbBf3qmLqCJ0_16wezterm_parallel11performance7metricsNtB4_16MetricsCollector24generate_detailed_report
FN:534,_RNvNtNtNtCsbBf3qmLqCJ0_16wezterm_parallel11performance7metrics5testss_20test_error_recording
FN:503,_RNvNtNtNtCsbBf3qmLqCJ0_16wezterm_parallel11performance7metrics5testss_22test_metrics_collector
FN:559,_RNvNtNtNtCsbBf3qmLqCJ0_16wezterm_parallel11performance7metrics5testss_23test_metrics_collection
FN:546,_RNvNtNtNtCsbBf3qmLqCJ0_16wezterm_parallel11performance7metrics5testss_23test_performance_alerts
FN:519,_RNvNtNtNtCsbBf3qmLqCJ0_16wezterm_parallel11performance7metrics5testss_28test_response_time_recording
FN:534,_RNCNvNtNtNtCsbBf3qmLqCJ0_16wezterm_parallel11performance7metrics5testss_20test_error_recording0B9_
FN:503,_RNCNvNtNtNtCsbBf3qmLqCJ0_16wezterm_parallel11performance7metrics5testss_22test_metrics_collector0B9_
FN:559,_RNCNvNtNtNtCsbBf3qmLqCJ0_16wezterm_parallel11performance7metrics5testss_23test_metrics_collection0B9_
FN:546,_RNCNvNtNtNtCsbBf3qmLqCJ0_16wezterm_parallel11performance7metrics5testss_23test_performance_alerts0B9_
FN:519,_RNCNvNtNtNtCsbBf3qmLqCJ0_16wezterm_parallel11performance7metrics5testss_28test_response_time_recording0B9_
FN:180,_RNvMs_NtNtCsbBf3qmLqCJ0_16wezterm_parallel11performance7metricsNtB4_16MetricsCollector12record_error
FN:120,_RNvMs_NtNtCsbBf3qmLqCJ0_16wezterm_parallel11performance7metricsNtB4_16MetricsCollector15stop_collection
FN:192,_RNvMs_NtNtCsbBf3qmLqCJ0_16wezterm_parallel11performance7metricsNtB4_16MetricsCollector16record_operation
FN:76,_RNvMs_NtNtCsbBf3qmLqCJ0_16wezterm_parallel11performance7metricsNtB4_16MetricsCollector16start_collection
FN:129,_RNvMs_NtNtCsbBf3qmLqCJ0_16wezterm_parallel11performance7metricsNtB4_16MetricsCollector16update_cpu_usage
FN:146,_RNvMs_NtNtCsbBf3qmLqCJ0_16wezterm_parallel11performance7metricsNtB4_16MetricsCollector17update_task_count
FN:249,_RNvMs_NtNtCsbBf3qmLqCJ0_16wezterm_parallel11performance7metricsNtB4_16MetricsCollector19get_current_metrics
FN:255,_RNvMs_NtNtCsbBf3qmLqCJ0_16wezterm_parallel11performance7metricsNtB4_16MetricsCollector19get_metrics_history
FN:139,_RNvMs_NtNtCsbBf3qmLqCJ0_16wezterm_parallel11performance7metricsNtB4_16MetricsCollector19update_memory_usage
FN:213,_RNvMs_NtNtCsbBf3qmLqCJ0_16wezterm_parallel11performance7metricsNtB4_16MetricsCollector20calculate_error_rate
FN:235,_RNvMs_NtNtCsbBf3qmLqCJ0_16wezterm_parallel11performance7metricsNtB4_16MetricsCollector20calculate_throughput
FN:152,_RNvMs_NtNtCsbBf3qmLqCJ0_16wezterm_parallel11performance7metricsNtB4_16MetricsCollector20record_response_time
FN:298,_RNvMs_NtNtCsbBf3qmLqCJ0_16wezterm_parallel11performance7metricsNtB4_16MetricsCollector24check_performance_alerts
FN:62,_RNvMs_NtNtCsbBf3qmLqCJ0_16wezterm_parallel11performance7metricsNtB4_16MetricsCollector3new
FN:28,_RNvXNtNtCsbBf3qmLqCJ0_16wezterm_parallel11performance7metricsNtB2_18PerformanceMetricsNtNtCsd2KPTObkMr_4core7default7Default7default
FN:170,_RNCNCNvMs_NtNtCsbBf3qmLqCJ0_16wezterm_parallel11performance7metricsNtB8_16MetricsCollector20record_response_time00Bc_
FN:180,_RNCNvMs_NtNtCsbBf3qmLqCJ0_16wezterm_parallel11performance7metricsNtB6_16MetricsCollector12record_error0Ba_
FN:192,_RNCNvMs_NtNtCsbBf3qmLqCJ0_16wezterm_parallel11performance7metricsNtB6_16MetricsCollector16record_operation0Ba_
FN:82,_RNCNvMs_NtNtCsbBf3qmLqCJ0_16wezterm_parallel11performance7metricsNtB6_16MetricsCollector16start_collection0Ba_
FN:129,_RNCNvMs_NtNtCsbBf3qmLqCJ0_16wezterm_parallel11performance7metricsNtB6_16MetricsCollector16update_cpu_usage0Ba_
FN:146,_RNCNvMs_NtNtCsbBf3qmLqCJ0_16wezterm_parallel11performance7metricsNtB6_16MetricsCollector17update_task_count0Ba_
FN:249,_RNCNvMs_NtNtCsbBf3qmLqCJ0_16wezterm_parallel11performance7metricsNtB6_16MetricsCollector19get_current_metrics0Ba_
FN:255,_RNCNvMs_NtNtCsbBf3qmLqCJ0_16wezterm_parallel11performance7metricsNtB6_16MetricsCollector19get_metrics_history0Ba_
FN:139,_RNCNvMs_NtNtCsbBf3qmLqCJ0_16wezterm_parallel11performance7metricsNtB6_16MetricsCollector19update_memory_usage0Ba_
FN:213,_RNCNvMs_NtNtCsbBf3qmLqCJ0_16wezterm_parallel11performance7metricsNtB6_16MetricsCollector20calculate_error_rate0Ba_
FN:235,_RNCNvMs_NtNtCsbBf3qmLqCJ0_16wezterm_parallel11performance7metricsNtB6_16MetricsCollector20calculate_throughput0Ba_
FN:152,_RNCNvMs_NtNtCsbBf3qmLqCJ0_16wezterm_parallel11performance7metricsNtB6_16MetricsCollector20record_response_time0Ba_
FN:298,_RNCNvMs_NtNtCsbBf3qmLqCJ0_16wezterm_parallel11performance7metricsNtB6_16MetricsCollector24check_performance_alerts0Ba_
FNDA:0,_RNCNCNvMs_NtNtCsezqlaDlZ1Zy_16wezterm_parallel11performance7metricsNtB8_16MetricsCollector16generate_summary0s1_0Bc_
FNDA:0,_RNCNCNvMs_NtNtCsezqlaDlZ1Zy_16wezterm_parallel11performance7metricsNtB8_16MetricsCollector16generate_summary0s2_0Bc_
FNDA:0,_RNCNCNvMs_NtNtCsezqlaDlZ1Zy_16wezterm_parallel11performance7metricsNtB8_16MetricsCollector16generate_summary0s3_0Bc_
FNDA:0,_RNCNCNvMs_NtNtCsezqlaDlZ1Zy_16wezterm_parallel11performance7metricsNtB8_16MetricsCollector20record_response_time00Bc_
FNDA:0,_RNCNvMs_NtNtCsezqlaDlZ1Zy_16wezterm_parallel11performance7metricsNtB6_16MetricsCollector12record_error0Ba_
FNDA:0,_RNCNvMs_NtNtCsezqlaDlZ1Zy_16wezterm_parallel11performance7metricsNtB6_16MetricsCollector14update_gc_info0Ba_
FNDA:0,_RNCNvMs_NtNtCsezqlaDlZ1Zy_16wezterm_parallel11performance7metricsNtB6_16MetricsCollector16generate_summary0Ba_
FNDA:0,_RNCNvMs_NtNtCsezqlaDlZ1Zy_16wezterm_parallel11performance7metricsNtB6_16MetricsCollector16record_operation0Ba_
FNDA:0,_RNCNvMs_NtNtCsezqlaDlZ1Zy_16wezterm_parallel11performance7metricsNtB6_16MetricsCollector16update_cpu_usage0Ba_
FNDA:0,_RNCNvMs_NtNtCsezqlaDlZ1Zy_16wezterm_parallel11performance7metricsNtB6_16MetricsCollector17update_task_count0Ba_
FNDA:0,_RNCNvMs_NtNtCsezqlaDlZ1Zy_16wezterm_parallel11performance7metricsNtB6_16MetricsCollector19get_current_metrics0Ba_
FNDA:0,_RNCNvMs_NtNtCsezqlaDlZ1Zy_16wezterm_parallel11performance7metricsNtB6_16MetricsCollector19get_metrics_history0Ba_
FNDA:0,_RNCNvMs_NtNtCsezqlaDlZ1Zy_16wezterm_parallel11performance7metricsNtB6_16MetricsCollector19update_memory_usage0Ba_
FNDA:0,_RNCNvMs_NtNtCsezqlaDlZ1Zy_16wezterm_parallel11performance7metricsNtB6_16MetricsCollector20calculate_error_rate0Ba_
FNDA:0,_RNCNvMs_NtNtCsezqlaDlZ1Zy_16wezterm_parallel11performance7metricsNtB6_16MetricsCollector20calculate_throughput0Ba_
FNDA:0,_RNCNvMs_NtNtCsezqlaDlZ1Zy_16wezterm_parallel11performance7metricsNtB6_16MetricsCollector20record_response_time0Ba_
FNDA:0,_RNCNvMs_NtNtCsezqlaDlZ1Zy_16wezterm_parallel11performance7metricsNtB6_16MetricsCollector24check_performance_alerts0Ba_
FNDA:0,_RNCNvMs_NtNtCsezqlaDlZ1Zy_16wezterm_parallel11performance7metricsNtB6_16MetricsCollector24generate_detailed_report0Ba_
FNDA:0,_RNvMs_NtNtCsezqlaDlZ1Zy_16wezterm_parallel11performance7metricsNtB4_16MetricsCollector12record_error
FNDA:0,_RNvMs_NtNtCsezqlaDlZ1Zy_16wezterm_parallel11performance7metricsNtB4_16MetricsCollector14update_gc_info
FNDA:0,_RNvMs_NtNtCsezqlaDlZ1Zy_16wezterm_parallel11performance7metricsNtB4_16MetricsCollector15stop_collection
FNDA:0,_RNvMs_NtNtCsezqlaDlZ1Zy_16wezterm_parallel11performance7metricsNtB4_16MetricsCollector16generate_summary
FNDA:0,_RNvMs_NtNtCsezqlaDlZ1Zy_16wezterm_parallel11performance7metricsNtB4_16MetricsCollector16record_operation
FNDA:0,_RNvMs_NtNtCsezqlaDlZ1Zy_16wezterm_parallel11performance7metricsNtB4_16MetricsCollector16start_collection
FNDA:0,_RNvMs_NtNtCsezqlaDlZ1Zy_16wezterm_parallel11performance7metricsNtB4_16MetricsCollector16update_cpu_usage
FNDA:0,_RNvMs_NtNtCsezqlaDlZ1Zy_16wezterm_parallel11performance7metricsNtB4_16MetricsCollector17update_task_count
FNDA:0,_RNvMs_NtNtCsezqlaDlZ1Zy_16wezterm_parallel11performance7metricsNtB4_16MetricsCollector19get_current_metrics
FNDA:0,_RNvMs_NtNtCsezqlaDlZ1Zy_16wezterm_parallel11performance7metricsNtB4_16MetricsCollector19get_metrics_history
FNDA:0,_RNvMs_NtNtCsezqlaDlZ1Zy_16wezterm_parallel11performance7metricsNtB4_16MetricsCollector19update_memory_usage
FNDA:0,_RNvMs_NtNtCsezqlaDlZ1Zy_16wezterm_parallel11performance7metricsNtB4_16MetricsCollector20calculate_error_rate
FNDA:0,_RNvMs_NtNtCsezqlaDlZ1Zy_16wezterm_parallel11performance7metricsNtB4_16MetricsCollector20calculate_throughput
FNDA:0,_RNvMs_NtNtCsezqlaDlZ1Zy_16wezterm_parallel11performance7metricsNtB4_16MetricsCollector20record_response_time
FNDA:0,_RNvMs_NtNtCsezqlaDlZ1Zy_16wezterm_parallel11performance7metricsNtB4_16MetricsCollector24check_performance_alerts
FNDA:0,_RNvMs_NtNtCsezqlaDlZ1Zy_16wezterm_parallel11performance7metricsNtB4_16MetricsCollector24generate_detailed_report
FNDA:0,_RNvMs_NtNtCsezqlaDlZ1Zy_16wezterm_parallel11performance7metricsNtB4_16MetricsCollector3new
FNDA:0,_RNvXNtNtCsezqlaDlZ1Zy_16wezterm_parallel11performance7metricsNtB2_18PerformanceMetricsNtNtCsd2KPTObkMr_4core7default7Default7default
FNDA:0,_RNCNvMs_NtNtCsezqlaDlZ1Zy_16wezterm_parallel11performance7metricsNtB6_16MetricsCollector16start_collection0Ba_
FNDA:0,_RNCNvMs_NtNtCsezqlaDlZ1Zy_16wezterm_parallel11performance7metricsNtB6_16MetricsCollector16update_cpu_usage0CsjIgq8mvfQLP_16wezterm_parallel
FNDA:0,_RNCNvMs_NtNtCsezqlaDlZ1Zy_16wezterm_parallel11performance7metricsNtB6_16MetricsCollector19update_memory_usage0CsjIgq8mvfQLP_16wezterm_parallel
FNDA:0,_RNCNCNvMs_NtNtCsbBf3qmLqCJ0_16wezterm_parallel11performance7metricsNtB8_16MetricsCollector16generate_summary0s1_0Bc_
FNDA:0,_RNCNCNvMs_NtNtCsbBf3qmLqCJ0_16wezterm_parallel11performance7metricsNtB8_16MetricsCollector16generate_summary0s2_0Bc_
FNDA:0,_RNCNCNvMs_NtNtCsbBf3qmLqCJ0_16wezterm_parallel11performance7metricsNtB8_16MetricsCollector16generate_summary0s3_0Bc_
FNDA:0,_RNCNvMs_NtNtCsbBf3qmLqCJ0_16wezterm_parallel11performance7metricsNtB6_16MetricsCollector14update_gc_info0Ba_
FNDA:0,_RNCNvMs_NtNtCsbBf3qmLqCJ0_16wezterm_parallel11performance7metricsNtB6_16MetricsCollector16generate_summary0Ba_
FNDA:0,_RNCNvMs_NtNtCsbBf3qmLqCJ0_16wezterm_parallel11performance7metricsNtB6_16MetricsCollector24generate_detailed_report0Ba_
FNDA:0,_RNvMs_NtNtCsbBf3qmLqCJ0_16wezterm_parallel11performance7metricsNtB4_16MetricsCollector14update_gc_info
FNDA:0,_RNvMs_NtNtCsbBf3qmLqCJ0_16wezterm_parallel11performance7metricsNtB4_16MetricsCollector16generate_summary
FNDA:0,_RNvMs_NtNtCsbBf3qmLqCJ0_16wezterm_parallel11performance7metricsNtB4_16MetricsCollector24generate_detailed_report
FNDA:1,_RNvNtNtNtCsbBf3qmLqCJ0_16wezterm_parallel11performance7metrics5testss_20test_error_recording
FNDA:1,_RNvNtNtNtCsbBf3qmLqCJ0_16wezterm_parallel11performance7metrics5testss_22test_metrics_collector
FNDA:1,_RNvNtNtNtCsbBf3qmLqCJ0_16wezterm_parallel11performance7metrics5testss_23test_metrics_collection
FNDA:1,_RNvNtNtNtCsbBf3qmLqCJ0_16wezterm_parallel11performance7metrics5testss_23test_performance_alerts
FNDA:1,_RNvNtNtNtCsbBf3qmLqCJ0_16wezterm_parallel11performance7metrics5testss_28test_response_time_recording
FNDA:1,_RNCNvNtNtNtCsbBf3qmLqCJ0_16wezterm_parallel11performance7metrics5testss_20test_error_recording0B9_
FNDA:1,_RNCNvNtNtNtCsbBf3qmLqCJ0_16wezterm_parallel11performance7metrics5testss_22test_metrics_collector0B9_
FNDA:1,_RNCNvNtNtNtCsbBf3qmLqCJ0_16wezterm_parallel11performance7metrics5testss_23test_metrics_collection0B9_
FNDA:1,_RNCNvNtNtNtCsbBf3qmLqCJ0_16wezterm_parallel11performance7metrics5testss_23test_performance_alerts0B9_
FNDA:1,_RNCNvNtNtNtCsbBf3qmLqCJ0_16wezterm_parallel11performance7metrics5testss_28test_response_time_recording0B9_
FNDA:1,_RNvMs_NtNtCsbBf3qmLqCJ0_16wezterm_parallel11performance7metricsNtB4_16MetricsCollector12record_error
FNDA:1,_RNvMs_NtNtCsbBf3qmLqCJ0_16wezterm_parallel11performance7metricsNtB4_16MetricsCollector15stop_collection
FNDA:2,_RNvMs_NtNtCsbBf3qmLqCJ0_16wezterm_parallel11performance7metricsNtB4_16MetricsCollector16record_operation
FNDA:1,_RNvMs_NtNtCsbBf3qmLqCJ0_16wezterm_parallel11performance7metricsNtB4_16MetricsCollector16start_collection
FNDA:2,_RNvMs_NtNtCsbBf3qmLqCJ0_16wezterm_parallel11performance7metricsNtB4_16MetricsCollector16update_cpu_usage
FNDA:1,_RNvMs_NtNtCsbBf3qmLqCJ0_16wezterm_parallel11performance7metricsNtB4_16MetricsCollector17update_task_count
FNDA:3,_RNvMs_NtNtCsbBf3qmLqCJ0_16wezterm_parallel11performance7metricsNtB4_16MetricsCollector19get_current_metrics
FNDA:1,_RNvMs_NtNtCsbBf3qmLqCJ0_16wezterm_parallel11performance7metricsNtB4_16MetricsCollector19get_metrics_history
FNDA:1,_RNvMs_NtNtCsbBf3qmLqCJ0_16wezterm_parallel11performance7metricsNtB4_16MetricsCollector19update_memory_usage
FNDA:1,_RNvMs_NtNtCsbBf3qmLqCJ0_16wezterm_parallel11performance7metricsNtB4_16MetricsCollector20calculate_error_rate
FNDA:2,_RNvMs_NtNtCsbBf3qmLqCJ0_16wezterm_parallel11performance7metricsNtB4_16MetricsCollector20calculate_throughput
FNDA:2,_RNvMs_NtNtCsbBf3qmLqCJ0_16wezterm_parallel11performance7metricsNtB4_16MetricsCollector20record_response_time
FNDA:1,_RNvMs_NtNtCsbBf3qmLqCJ0_16wezterm_parallel11performance7metricsNtB4_16MetricsCollector24check_performance_alerts
FNDA:5,_RNvMs_NtNtCsbBf3qmLqCJ0_16wezterm_parallel11performance7metricsNtB4_16MetricsCollector3new
FNDA:5,_RNvXNtNtCsbBf3qmLqCJ0_16wezterm_parallel11performance7metricsNtB2_18PerformanceMetricsNtNtCsd2KPTObkMr_4core7default7Default7default
FNDA:3,_RNCNCNvMs_NtNtCsbBf3qmLqCJ0_16wezterm_parallel11performance7metricsNtB8_16MetricsCollector20record_response_time00Bc_
FNDA:1,_RNCNvMs_NtNtCsbBf3qmLqCJ0_16wezterm_parallel11performance7metricsNtB6_16MetricsCollector12record_error0Ba_
FNDA:2,_RNCNvMs_NtNtCsbBf3qmLqCJ0_16wezterm_parallel11performance7metricsNtB6_16MetricsCollector16record_operation0Ba_
FNDA:1,_RNCNvMs_NtNtCsbBf3qmLqCJ0_16wezterm_parallel11performance7metricsNtB6_16MetricsCollector16start_collection0Ba_
FNDA:2,_RNCNvMs_NtNtCsbBf3qmLqCJ0_16wezterm_parallel11performance7metricsNtB6_16MetricsCollector16update_cpu_usage0Ba_
FNDA:1,_RNCNvMs_NtNtCsbBf3qmLqCJ0_16wezterm_parallel11performance7metricsNtB6_16MetricsCollector17update_task_count0Ba_
FNDA:3,_RNCNvMs_NtNtCsbBf3qmLqCJ0_16wezterm_parallel11performance7metricsNtB6_16MetricsCollector19get_current_metrics0Ba_
FNDA:1,_RNCNvMs_NtNtCsbBf3qmLqCJ0_16wezterm_parallel11performance7metricsNtB6_16MetricsCollector19get_metrics_history0Ba_
FNDA:1,_RNCNvMs_NtNtCsbBf3qmLqCJ0_16wezterm_parallel11performance7metricsNtB6_16MetricsCollector19update_memory_usage0Ba_
FNDA:1,_RNCNvMs_NtNtCsbBf3qmLqCJ0_16wezterm_parallel11performance7metricsNtB6_16MetricsCollector20calculate_error_rate0Ba_
FNDA:2,_RNCNvMs_NtNtCsbBf3qmLqCJ0_16wezterm_parallel11performance7metricsNtB6_16MetricsCollector20calculate_throughput0Ba_
FNDA:2,_RNCNvMs_NtNtCsbBf3qmLqCJ0_16wezterm_parallel11performance7metricsNtB6_16MetricsCollector20record_response_time0Ba_
FNDA:1,_RNCNvMs_NtNtCsbBf3qmLqCJ0_16wezterm_parallel11performance7metricsNtB6_16MetricsCollector24check_performance_alerts0Ba_
FNF:47
FNH:38
DA:28,5
DA:29,5
DA:30,5
DA:31,5
DA:32,5
DA:33,5
DA:34,5
DA:35,5
DA:36,5
DA:37,5
DA:38,5
DA:39,5
DA:40,5
DA:41,5
DA:42,5
DA:43,5
DA:44,5
DA:62,5
DA:63,5
DA:64,5
DA:65,5
DA:66,5
DA:67,5
DA:68,5
DA:69,5
DA:70,5
DA:71,5
DA:72,5
DA:73,5
DA:76,1
DA:77,1
DA:78,1
DA:79,1
DA:80,1
DA:82,1
DA:83,1
DA:86,6
DA:88,5
DA:89,5
DA:90,5
DA:94,5
DA:95,5
DA:98,7
DA:99,2
DA:100,2
DA:103,5
DA:104,5
DA:108,1
DA:109,1
DA:110,1
DA:112,1
DA:113,1
DA:114,1
DA:117,1
DA:120,1
DA:121,1
DA:122,1
DA:123,1
DA:124,1
DA:125,1
DA:126,1
DA:129,2
DA:130,2
DA:131,2
DA:132,2
DA:133,2
DA:134,2
DA:135,2
DA:136,2
DA:139,1
DA:140,1
DA:141,1
DA:142,1
DA:143,1
DA:146,1
DA:147,1
DA:148,1
DA:149,1
DA:152,2
DA:155,2
DA:156,2
DA:159,2
DA:160,0
DA:161,0
DA:165,2
DA:166,2
DA:167,2
DA:168,0
DA:170,3
DA:171,2
DA:175,2
DA:176,2
DA:177,2
DA:180,1
DA:183,1
DA:184,1
DA:188,1
DA:189,1
DA:192,2
DA:195,2
DA:196,2
DA:197,2
DA:198,2
DA:202,2
DA:203,2
DA:206,0
DA:207,0
DA:208,0
DA:209,0
DA:210,0
DA:213,1
DA:214,1
DA:215,1
DA:216,1
DA:218,1
DA:219,1
DA:221,1
DA:224,1
DA:225,1
DA:227,0
DA:230,1
DA:231,1
DA:232,1
DA:235,2
DA:236,2
DA:237,2
DA:238,2
DA:242,2
DA:244,2
DA:245,2
DA:246,2
DA:249,3
DA:250,3
DA:251,3
DA:252,3
DA:255,1
DA:256,1
DA:257,1
DA:258,1
DA:261,0
DA:262,0
DA:264,0
DA:265,0
DA:266,0
DA:268,0
DA:269,0
DA:270,0
DA:273,0
DA:274,0
DA:275,0
DA:276,0
DA:277,0
DA:278,0
DA:279,0
DA:280,0
DA:281,0
DA:282,0
DA:283,0
DA:284,0
DA:285,0
DA:287,0
DA:288,0
DA:289,0
DA:290,0
DA:291,0
DA:292,0
DA:293,0
DA:295,0
DA:298,1
DA:299,1
DA:300,1
DA:303,1
DA:304,1
DA:305,1
DA:306,1
DA:307,1
DA:308,1
DA:309,1
DA:310,1
DA:311,1
DA:312,0
DA:313,0
DA:314,0
DA:315,0
DA:316,0
DA:317,0
DA:318,0
DA:319,0
DA:322,1
DA:323,1
DA:324,0
DA:325,0
DA:326,0
DA:327,0
DA:328,0
DA:329,0
DA:330,0
DA:331,1
DA:332,0
DA:333,0
DA:334,0
DA:335,0
DA:336,0
DA:337,0
DA:338,0
DA:339,1
DA:342,1
DA:343,0
DA:344,0
DA:345,0
DA:346,0
DA:347,0
DA:348,0
DA:349,0
DA:350,1
DA:351,0
DA:352,0
DA:353,0
DA:354,0
DA:355,0
DA:356,0
DA:357,0
DA:358,1
DA:361,1
DA:362,0
DA:363,0
DA:364,0
DA:365,0
DA:366,0
DA:367,0
DA:368,0
DA:369,1
DA:370,0
DA:371,0
DA:372,0
DA:373,0
DA:374,0
DA:375,0
DA:376,0
DA:377,1
DA:379,1
DA:380,1
DA:383,0
DA:384,0
DA:385,0
DA:386,0
DA:388,0
DA:389,0
DA:392,0
DA:393,0
DA:394,0
DA:395,0
DA:396,0
DA:397,0
DA:398,0
DA:399,0
DA:400,0
DA:401,0
DA:402,0
DA:403,0
DA:404,0
DA:405,0
DA:406,0
DA:407,0
DA:408,0
DA:409,0
DA:412,0
DA:413,0
DA:414,0
DA:415,0
DA:416,0
DA:417,0
DA:418,0
DA:419,0
DA:420,0
DA:421,0
DA:422,0
DA:423,0
DA:424,0
DA:425,0
DA:426,0
DA:427,0
DA:428,0
DA:429,0
DA:430,0
DA:431,0
DA:432,0
DA:435,0
DA:436,0
DA:437,0
DA:438,0
DA:439,0
DA:440,0
DA:441,0
DA:443,0
DA:445,0
DA:446,0
DA:447,0
DA:449,0
DA:450,0
DA:503,1
DA:504,1
DA:506,1
DA:507,1
DA:508,1
DA:509,1
DA:510,1
DA:512,1
DA:513,1
DA:514,1
DA:515,1
DA:516,1
DA:519,1
DA:520,1
DA:522,1
DA:523,1
DA:524,1
DA:525,1
DA:526,1
DA:527,1
DA:529,1
DA:530,1
DA:531,1
DA:534,1
DA:535,1
DA:537,1
DA:538,1
DA:539,1
DA:541,1
DA:542,1
DA:543,1
DA:546,1
DA:547,1
DA:550,1
DA:552,1
DA:553,1
DA:554,1
DA:555,1
DA:556,1
DA:559,1
DA:560,1
DA:562,1
DA:563,1
DA:564,1
DA:566,1
DA:567,1
DA:568,1
BRF:0
BRH:0
LF:376
LH:224
end_of_record
SF:/Users/aiq/work/wezterm-parallel/src/performance/mod.rs
FN:159,_RNCNvMs0_NtCsezqlaDlZ1Zy_16wezterm_parallel11performanceNtB7_18PerformanceManager10trigger_gc0B9_
FN:268,_RNCNvMs0_NtCsezqlaDlZ1Zy_16wezterm_parallel11performanceNtB7_18PerformanceManager15generate_report0B9_
FN:197,_RNvMs0_NtCsezqlaDlZ1Zy_16wezterm_parallel11performanceNtB5_18PerformanceManager10cache_data
FN:210,_RNvMs0_NtCsezqlaDlZ1Zy_16wezterm_parallel11performanceNtB5_18PerformanceManager10get_buffer
FN:186,_RNvMs0_NtCsezqlaDlZ1Zy_16wezterm_parallel11performanceNtB5_18PerformanceManager10get_cached
FN:148,_RNvMs0_NtCsezqlaDlZ1Zy_16wezterm_parallel11performanceNtB5_18PerformanceManager10trigger_gc
FN:240,_RNvMs0_NtCsezqlaDlZ1Zy_16wezterm_parallel11performanceNtB5_18PerformanceManager11get_metrics
FN:178,_RNvMs0_NtCsezqlaDlZ1Zy_16wezterm_parallel11performanceNtB5_18PerformanceManager11periodic_gc
FN:223,_RNvMs0_NtCsezqlaDlZ1Zy_16wezterm_parallel11performanceNtB5_18PerformanceManager13return_buffer
FN:245,_RNvMs0_NtCsezqlaDlZ1Zy_16wezterm_parallel11performanceNtB5_18PerformanceManager15generate_report
FN:131,_RNvMs0_NtCsezqlaDlZ1Zy_16wezterm_parallel11performanceNtB5_18PerformanceManager16update_cpu_usage
FN:143,_RNvMs0_NtCsezqlaDlZ1Zy_16wezterm_parallel11performanceNtB5_18PerformanceManager19update_active_tasks
FN:112,_RNvMs0_NtCsezqlaDlZ1Zy_16wezterm_parallel11performanceNtB5_18PerformanceManager19update_memory_usage
FN:106,_RNvMs0_NtCsezqlaDlZ1Zy_16wezterm_parallel11performanceNtB5_18PerformanceManager23record_startup_complete
FN:85,_RNvMs0_NtCsezqlaDlZ1Zy_16wezterm_parallel11performanceNtB5_18PerformanceManager3new
FN:33,_RNvXNtCsezqlaDlZ1Zy_16wezterm_parallel11performanceNtB2_17PerformanceConfigNtNtCsd2KPTObkMr_4core7default7Default7default
FN:60,_RNvXs_NtCsezqlaDlZ1Zy_16wezterm_parallel11performanceNtB4_18PerformanceMetricsNtNtCsd2KPTObkMr_4core7default7Default7default
FN:159,_RNCNvMs0_NtCsbBf3qmLqCJ0_16wezterm_parallel11performanceNtB7_18PerformanceManager10trigger_gc0B9_
FN:197,_RNvMs0_NtCsbBf3qmLqCJ0_16wezterm_parallel11performanceNtB5_18PerformanceManager10cache_data
FN:210,_RNvMs0_NtCsbBf3qmLqCJ0_16wezterm_parallel11performanceNtB5_18PerformanceManager10get_buffer
FN:186,_RNvMs0_NtCsbBf3qmLqCJ0_16wezterm_parallel11performanceNtB5_18PerformanceManager10get_cached
FN:148,_RNvMs0_NtCsbBf3qmLqCJ0_16wezterm_parallel11performanceNtB5_18PerformanceManager10trigger_gc
FN:223,_RNvMs0_NtCsbBf3qmLqCJ0_16wezterm_parallel11performanceNtB5_18PerformanceManager13return_buffer
FN:131,_RNvMs0_NtCsbBf3qmLqCJ0_16wezterm_parallel11performanceNtB5_18PerformanceManager16update_cpu_usage
FN:143,_RNvMs0_NtCsbBf3qmLqCJ0_16wezterm_parallel11performanceNtB5_18PerformanceManager19update_active_tasks
FN:112,_RNvMs0_NtCsbBf3qmLqCJ0_16wezterm_parallel11performanceNtB5_18PerformanceManager19update_memory_usage
FN:85,_RNvMs0_NtCsbBf3qmLqCJ0_16wezterm_parallel11performanceNtB5_18PerformanceManager3new
FN:33,_RNvXNtCsbBf3qmLqCJ0_16wezterm_parallel11performanceNtB2_17PerformanceConfigNtNtCsd2KPTObkMr_4core7default7Default7default
FN:60,_RNvXs_NtCsbBf3qmLqCJ0_16wezterm_parallel11performanceNtB4_18PerformanceMetricsNtNtCsd2KPTObkMr_4core7default7Default7default
FN:268,_RNCNvMs0_NtCsbBf3qmLqCJ0_16wezterm_parallel11performanceNtB7_18PerformanceManager15generate_report0B9_
FN:240,_RNvMs0_NtCsbBf3qmLqCJ0_16wezterm_parallel11performanceNtB5_18PerformanceManager11get_metrics
FN:178,_RNvMs0_NtCsbBf3qmLqCJ0_16wezterm_parallel11performanceNtB5_18PerformanceManager11periodic_gc
FN:245,_RNvMs0_NtCsbBf3qmLqCJ0_16wezterm_parallel11performanceNtB5_18PerformanceManager15generate_report
FN:106,_RNvMs0_NtCsbBf3qmLqCJ0_16wezterm_parallel11performanceNtB5_18PerformanceManager23record_startup_complete
FN:288,_RNvNtNtCsbBf3qmLqCJ0_16wezterm_parallel11performance5testss_16test_memory_pool
FN:318,_RNvNtNtCsbBf3qmLqCJ0_16wezterm_parallel11performance5testss_19test_metrics_update
FN:299,_RNvNtNtCsbBf3qmLqCJ0_16wezterm_parallel11performance5testss_21test_cache_operations
FN:279,_RNvNtNtCsbBf3qmLqCJ0_16wezterm_parallel11performance5testss_33test_performance_manager_creation
FNDA:0,_RNCNvMs0_NtCsezqlaDlZ1Zy_16wezterm_parallel11performanceNtB7_18PerformanceManager10trigger_gc0B9_
FNDA:0,_RNCNvMs0_NtCsezqlaDlZ1Zy_16wezterm_parallel11performanceNtB7_18PerformanceManager15generate_report0B9_
FNDA:0,_RNvMs0_NtCsezqlaDlZ1Zy_16wezterm_parallel11performanceNtB5_18PerformanceManager10cache_data
FNDA:0,_RNvMs0_NtCsezqlaDlZ1Zy_16wezterm_parallel11performanceNtB5_18PerformanceManager10get_buffer
FNDA:0,_RNvMs0_NtCsezqlaDlZ1Zy_16wezterm_parallel11performanceNtB5_18PerformanceManager10get_cached
FNDA:0,_RNvMs0_NtCsezqlaDlZ1Zy_16wezterm_parallel11performanceNtB5_18PerformanceManager10trigger_gc
FNDA:0,_RNvMs0_NtCsezqlaDlZ1Zy_16wezterm_parallel11performanceNtB5_18PerformanceManager11get_metrics
FNDA:0,_RNvMs0_NtCsezqlaDlZ1Zy_16wezterm_parallel11performanceNtB5_18PerformanceManager11periodic_gc
FNDA:0,_RNvMs0_NtCsezqlaDlZ1Zy_16wezterm_parallel11performanceNtB5_18PerformanceManager13return_buffer
FNDA:0,_RNvMs0_NtCsezqlaDlZ1Zy_16wezterm_parallel11performanceNtB5_18PerformanceManager15generate_report
FNDA:0,_RNvMs0_NtCsezqlaDlZ1Zy_16wezterm_parallel11performanceNtB5_18PerformanceManager16update_cpu_usage
FNDA:0,_RNvMs0_NtCsezqlaDlZ1Zy_16wezterm_parallel11performanceNtB5_18PerformanceManager19update_active_tasks
FNDA:0,_RNvMs0_NtCsezqlaDlZ1Zy_16wezterm_parallel11performanceNtB5_18PerformanceManager19update_memory_usage
FNDA:0,_RNvMs0_NtCsezqlaDlZ1Zy_16wezterm_parallel11performanceNtB5_18PerformanceManager23record_startup_complete
FNDA:0,_RNvMs0_NtCsezqlaDlZ1Zy_16wezterm_parallel11performanceNtB5_18PerformanceManager3new
FNDA:0,_RNvXNtCsezqlaDlZ1Zy_16wezterm_parallel11performanceNtB2_17PerformanceConfigNtNtCsd2KPTObkMr_4core7default7Default7default
FNDA:0,_RNvXs_NtCsezqlaDlZ1Zy_16wezterm_parallel11performanceNtB4_18PerformanceMetricsNtNtCsd2KPTObkMr_4core7default7Default7default
FNDA:0,_RNCNvMs0_NtCsbBf3qmLqCJ0_16wezterm_parallel11performanceNtB7_18PerformanceManager10trigger_gc0B9_
FNDA:1,_RNvMs0_NtCsbBf3qmLqCJ0_16wezterm_parallel11performanceNtB5_18PerformanceManager10cache_data
FNDA:1,_RNvMs0_NtCsbBf3qmLqCJ0_16wezterm_parallel11performanceNtB5_18PerformanceManager10get_buffer
FNDA:2,_RNvMs0_NtCsbBf3qmLqCJ0_16wezterm_parallel11performanceNtB5_18PerformanceManager10get_cached
FNDA:0,_RNvMs0_NtCsbBf3qmLqCJ0_16wezterm_parallel11performanceNtB5_18PerformanceManager10trigger_gc
FNDA:1,_RNvMs0_NtCsbBf3qmLqCJ0_16wezterm_parallel11performanceNtB5_18PerformanceManager13return_buffer
FNDA:1,_RNvMs0_NtCsbBf3qmLqCJ0_16wezterm_parallel11performanceNtB5_18PerformanceManager16update_cpu_usage
FNDA:1,_RNvMs0_NtCsbBf3qmLqCJ0_16wezterm_parallel11performanceNtB5_18PerformanceManager19update_active_tasks
FNDA:1,_RNvMs0_NtCsbBf3qmLqCJ0_16wezterm_parallel11performanceNtB5_18PerformanceManager19update_memory_usage
FNDA:9,_RNvMs0_NtCsbBf3qmLqCJ0_16wezterm_parallel11performanceNtB5_18PerformanceManager3new
FNDA:9,_RNvXNtCsbBf3qmLqCJ0_16wezterm_parallel11performanceNtB2_17PerformanceConfigNtNtCsd2KPTObkMr_4core7default7Default7default
FNDA:9,_RNvXs_NtCsbBf3qmLqCJ0_16wezterm_parallel11performanceNtB4_18PerformanceMetricsNtNtCsd2KPTObkMr_4core7default7Default7default
FNDA:0,_RNCNvMs0_NtCsbBf3qmLqCJ0_16wezterm_parallel11performanceNtB7_18PerformanceManager15generate_report0B9_
FNDA:0,_RNvMs0_NtCsbBf3qmLqCJ0_16wezterm_parallel11performanceNtB5_18PerformanceManager11get_metrics
FNDA:0,_RNvMs0_NtCsbBf3qmLqCJ0_16wezterm_parallel11performanceNtB5_18PerformanceManager11periodic_gc
FNDA:0,_RNvMs0_NtCsbBf3qmLqCJ0_16wezterm_parallel11performanceNtB5_18PerformanceManager15generate_report
FNDA:0,_RNvMs0_NtCsbBf3qmLqCJ0_16wezterm_parallel11performanceNtB5_18PerformanceManager23record_startup_complete
FNDA:1,_RNvNtNtCsbBf3qmLqCJ0_16wezterm_parallel11performance5testss_16test_memory_pool
FNDA:1,_RNvNtNtCsbBf3qmLqCJ0_16wezterm_parallel11performance5testss_19test_metrics_update
FNDA:1,_RNvNtNtCsbBf3qmLqCJ0_16wezterm_parallel11performance5testss_21test_cache_operations
FNDA:1,_RNvNtNtCsbBf3qmLqCJ0_16wezterm_parallel11performance5testss_33test_performance_manager_creation
FNF:21
FNH:14
DA:33,9
DA:34,9
DA:35,9
DA:36,9
DA:37,9
DA:38,9
DA:39,9
DA:40,9
DA:41,9
DA:42,9
DA:43,9
DA:60,9
DA:61,9
DA:62,9
DA:63,9
DA:64,9
DA:65,9
DA:66,9
DA:67,9
DA:68,9
DA:69,9
DA:70,9
DA:71,9
DA:85,9
DA:86,9
DA:87,9
DA:90,9
DA:91,81
DA:92,72
DA:93,72
DA:95,9
DA:96,9
DA:97,9
DA:98,9
DA:99,9
DA:100,9
DA:101,9
DA:102,9
DA:103,9
DA:106,0
DA:107,0
DA:108,0
DA:109,0
DA:112,1
DA:113,1
DA:114,1
DA:115,1
DA:116,1
DA:119,1
DA:120,1
DA:121,0
DA:122,0
DA:123,0
DA:126,0
DA:127,1
DA:128,1
DA:131,1
DA:132,1
DA:134,1
DA:135,0
DA:136,0
DA:139,1
DA:140,1
DA:143,1
DA:144,1
DA:145,1
DA:148,0
DA:149,0
DA:150,0
DA:152,0
DA:153,0
DA:155,0
DA:158,0
DA:159,0
DA:160,0
DA:163,0
DA:164,0
DA:165,0
DA:166,0
DA:168,0
DA:169,0
DA:171,0
DA:172,0
DA:175,0
DA:178,0
DA:179,0
DA:180,0
DA:181,0
DA:182,0
DA:183,0
DA:186,2
DA:187,2
DA:188,1
DA:189,1
DA:191,1
DA:192,1
DA:194,2
DA:197,1
DA:199,1
DA:201,0
DA:202,0
DA:203,0
DA:204,1
DA:206,1
DA:207,1
DA:210,1
DA:211,1
DA:212,1
DA:213,1
DA:214,1
DA:215,0
DA:219,0
DA:220,1
DA:223,1
DA:224,1
DA:226,1
DA:227,1
DA:228,1
DA:229,1
DA:230,1
DA:231,0
DA:233,0
DA:236,0
DA:237,1
DA:240,0
DA:241,0
DA:242,0
DA:245,0
DA:246,0
DA:247,0
DA:248,0
DA:249,0
DA:250,0
DA:251,0
DA:252,0
DA:253,0
DA:254,0
DA:256,0
DA:257,0
DA:261,0
DA:262,0
DA:263,0
DA:264,0
DA:266,0
DA:268,0
DA:269,0
DA:271,0
DA:279,1
DA:280,1
DA:281,1
DA:283,1
DA:284,1
DA:285,1
DA:288,1
DA:289,1
DA:290,1
DA:292,1
DA:293,1
DA:295,1
DA:296,1
DA:299,1
DA:300,1
DA:301,1
DA:304,1
DA:305,1
DA:308,1
DA:311,1
DA:312,1
DA:313,1
DA:314,1
DA:315,1
DA:318,1
DA:319,1
DA:320,1
DA:322,1
DA:323,1
DA:324,1
DA:326,1
DA:327,1
DA:328,1
DA:329,1
BRF:0
BRH:0
LF:183
LH:116
end_of_record
SF:/Users/aiq/work/wezterm-parallel/src/performance/startup.rs
FN:154,_RNCNvMNtNtCsezqlaDlZ1Zy_16wezterm_parallel11performance7startupNtB4_16StartupOptimizer16init_sync_system0B8_
FN:147,_RNCNvMNtNtCsezqlaDlZ1Zy_16wezterm_parallel11performance7startupNtB4_16StartupOptimizer21init_dashboard_system0B8_
FN:140,_RNCNvMNtNtCsezqlaDlZ1Zy_16wezterm_parallel11performance7startupNtB4_16StartupOptimizer22init_monitoring_system0B8_
FN:59,_RNCNvMNtNtCsezqlaDlZ1Zy_16wezterm_parallel11performance7startupNtB4_16StartupOptimizer28schedule_lazy_initialization0B8_
FN:71,_RNCNvMNtNtCsezqlaDlZ1Zy_16wezterm_parallel11performance7startupNtB4_16StartupOptimizer28schedule_lazy_initializations0_0B8_
FN:65,_RNCNvMNtNtCsezqlaDlZ1Zy_16wezterm_parallel11performance7startupNtB4_16StartupOptimizer28schedule_lazy_initializations_0B8_
FN:81,_RNvMNtNtCsezqlaDlZ1Zy_16wezterm_parallel11performance7startupNtB2_16StartupOptimizer16complete_startup
FN:154,_RNvMNtNtCsezqlaDlZ1Zy_16wezterm_parallel11performance7startupNtB2_16StartupOptimizer16init_sync_system
FN:119,_RNvMNtNtCsezqlaDlZ1Zy_16wezterm_parallel11performance7startupNtB2_16StartupOptimizer17init_error_system
FN:133,_RNvMNtNtCsezqlaDlZ1Zy_16wezterm_parallel11performance7startupNtB2_16StartupOptimizer18init_config_system
FN:101,_RNvMNtNtCsezqlaDlZ1Zy_16wezterm_parallel11performance7startupNtB2_16StartupOptimizer18wait_for_lazy_init
FN:126,_RNvMNtNtCsezqlaDlZ1Zy_16wezterm_parallel11performance7startupNtB2_16StartupOptimizer19init_logging_system
FN:147,_RNvMNtNtCsezqlaDlZ1Zy_16wezterm_parallel11performance7startupNtB2_16StartupOptimizer21init_dashboard_system
FN:222,_RNvMNtNtCsezqlaDlZ1Zy_16wezterm_parallel11performance7startupNtB2_16StartupOptimizer21optimize_cpu_affinity
FN:32,_RNvMNtNtCsezqlaDlZ1Zy_16wezterm_parallel11performance7startupNtB2_16StartupOptimizer22fast_init_core_modules
FN:140,_RNvMNtNtCsezqlaDlZ1Zy_16wezterm_parallel11performance7startupNtB2_16StartupOptimizer22init_monitoring_system
FN:211,_RNvMNtNtCsezqlaDlZ1Zy_16wezterm_parallel11performance7startupNtB2_16StartupOptimizer22optimize_memory_layout
FN:248,_RNvMNtNtCsezqlaDlZ1Zy_16wezterm_parallel11performance7startupNtB2_16StartupOptimizer23get_performance_manager
FN:161,_RNvMNtNtCsezqlaDlZ1Zy_16wezterm_parallel11performance7startupNtB2_16StartupOptimizer26preload_critical_resources
FN:55,_RNvMNtNtCsezqlaDlZ1Zy_16wezterm_parallel11performance7startupNtB2_16StartupOptimizer28schedule_lazy_initialization
FN:18,_RNvMNtNtCsezqlaDlZ1Zy_16wezterm_parallel11performance7startupNtB2_16StartupOptimizer3new
FN:193,_RINvMNtNtCsezqlaDlZ1Zy_16wezterm_parallel11performance7startupNtB3_16StartupOptimizer21measure_startup_phaseppEB7_
FN:165,_RNCNCNvMNtNtCsezqlaDlZ1Zy_16wezterm_parallel11performance7startupNtB6_16StartupOptimizer26preload_critical_resources00Ba_
FN:179,_RNCNCNvMNtNtCsezqlaDlZ1Zy_16wezterm_parallel11performance7startupNtB6_16StartupOptimizer26preload_critical_resources0s0_0Ba_
FN:172,_RNCNCNvMNtNtCsezqlaDlZ1Zy_16wezterm_parallel11performance7startupNtB6_16StartupOptimizer26preload_critical_resources0s_0Ba_
FN:81,_RNCNvMNtNtCsezqlaDlZ1Zy_16wezterm_parallel11performance7startupNtB4_16StartupOptimizer16complete_startup0B8_
FN:119,_RNCNvMNtNtCsezqlaDlZ1Zy_16wezterm_parallel11performance7startupNtB4_16StartupOptimizer17init_error_system0B8_
FN:133,_RNCNvMNtNtCsezqlaDlZ1Zy_16wezterm_parallel11performance7startupNtB4_16StartupOptimizer18init_config_system0B8_
FN:101,_RNCNvMNtNtCsezqlaDlZ1Zy_16wezterm_parallel11performance7startupNtB4_16StartupOptimizer18wait_for_lazy_init0B8_
FN:126,_RNCNvMNtNtCsezqlaDlZ1Zy_16wezterm_parallel11performance7startupNtB4_16StartupOptimizer19init_logging_system0B8_
FN:32,_RNCNvMNtNtCsezqlaDlZ1Zy_16wezterm_parallel11performance7startupNtB4_16StartupOptimizer22fast_init_core_modules0B8_
FN:161,_RNCNvMNtNtCsezqlaDlZ1Zy_16wezterm_parallel11performance7startupNtB4_16StartupOptimizer26preload_critical_resources0B8_
FN:165,_RNCNCNvMNtNtCsezqlaDlZ1Zy_16wezterm_parallel11performance7startupNtB6_16StartupOptimizer26preload_critical_resources00CsjIgq8mvfQLP_16wezterm_parallel
FN:179,_RNCNCNvMNtNtCsezqlaDlZ1Zy_16wezterm_parallel11performance7startupNtB6_16StartupOptimizer26preload_critical_resources0s0_0CsjIgq8mvfQLP_16wezterm_parallel
FN:172,_RNCNCNvMNtNtCsezqlaDlZ1Zy_16wezterm_parallel11performance7startupNtB6_16StartupOptimizer26preload_critical_resources0s_0CsjIgq8mvfQLP_16wezterm_parallel
FN:81,_RNCNvMNtNtCsezqlaDlZ1Zy_16wezterm_parallel11performance7startupNtB4_16StartupOptimizer16complete_startup0CsjIgq8mvfQLP_16wezterm_parallel
FN:119,_RNCNvMNtNtCsezqlaDlZ1Zy_16wezterm_parallel11performance7startupNtB4_16StartupOptimizer17init_error_system0CsjIgq8mvfQLP_16wezterm_parallel
FN:133,_RNCNvMNtNtCsezqlaDlZ1Zy_16wezterm_parallel11performance7startupNtB4_16StartupOptimizer18init_config_system0CsjIgq8mvfQLP_16wezterm_parallel
FN:126,_RNCNvMNtNtCsezqlaDlZ1Zy_16wezterm_parallel11performance7startupNtB4_16StartupOptimizer19init_logging_system0CsjIgq8mvfQLP_16wezterm_parallel
FN:32,_RNCNvMNtNtCsezqlaDlZ1Zy_16wezterm_parallel11performance7startupNtB4_16StartupOptimizer22fast_init_core_modules0CsjIgq8mvfQLP_16wezterm_parallel
FN:161,_RNCNvMNtNtCsezqlaDlZ1Zy_16wezterm_parallel11performance7startupNtB4_16StartupOptimizer26preload_critical_resources0CsjIgq8mvfQLP_16wezterm_parallel
FN:81,_RNCNvMNtNtCsbBf3qmLqCJ0_16wezterm_parallel11performance7startupNtB4_16StartupOptimizer16complete_startup0B8_
FN:81,_RNvMNtNtCsbBf3qmLqCJ0_16wezterm_parallel11performance7startupNtB2_16StartupOptimizer16complete_startup
FN:222,_RNvMNtNtCsbBf3qmLqCJ0_16wezterm_parallel11performance7startupNtB2_16StartupOptimizer21optimize_cpu_affinity
FN:211,_RNvMNtNtCsbBf3qmLqCJ0_16wezterm_parallel11performance7startupNtB2_16StartupOptimizer22optimize_memory_layout
FN:248,_RNvMNtNtCsbBf3qmLqCJ0_16wezterm_parallel11performance7startupNtB2_16StartupOptimizer23get_performance_manager
FN:193,_RINvMNtNtCsbBf3qmLqCJ0_16wezterm_parallel11performance7startupNtB3_16StartupOptimizer21measure_startup_phaseNCNvNtB3_5testss_26test_measure_startup_phase0lEB7_
FN:165,_RNCNCNvMNtNtCsbBf3qmLqCJ0_16wezterm_parallel11performance7startupNtB6_16StartupOptimizer26preload_critical_resources00Ba_
FN:179,_RNCNCNvMNtNtCsbBf3qmLqCJ0_16wezterm_parallel11performance7startupNtB6_16StartupOptimizer26preload_critical_resources0s0_0Ba_
FN:172,_RNCNCNvMNtNtCsbBf3qmLqCJ0_16wezterm_parallel11performance7startupNtB6_16StartupOptimizer26preload_critical_resources0s_0Ba_
FN:154,_RNCNvMNtNtCsbBf3qmLqCJ0_16wezterm_parallel11performance7startupNtB4_16StartupOptimizer16init_sync_system0B8_
FN:119,_RNCNvMNtNtCsbBf3qmLqCJ0_16wezterm_parallel11performance7startupNtB4_16StartupOptimizer17init_error_system0B8_
FN:133,_RNCNvMNtNtCsbBf3qmLqCJ0_16wezterm_parallel11performance7startupNtB4_16StartupOptimizer18init_config_system0B8_
FN:101,_RNCNvMNtNtCsbBf3qmLqCJ0_16wezterm_parallel11performance7startupNtB4_16StartupOptimizer18wait_for_lazy_init0B8_
FN:126,_RNCNvMNtNtCsbBf3qmLqCJ0_16wezterm_parallel11performance7startupNtB4_16StartupOptimizer19init_logging_system0B8_
FN:147,_RNCNvMNtNtCsbBf3qmLqCJ0_16wezterm_parallel11performance7startupNtB4_16StartupOptimizer21init_dashboard_system0B8_
FN:32,_RNCNvMNtNtCsbBf3qmLqCJ0_16wezterm_parallel11performance7startupNtB4_16StartupOptimizer22fast_init_core_modules0B8_
FN:140,_RNCNvMNtNtCsbBf3qmLqCJ0_16wezterm_parallel11performance7startupNtB4_16StartupOptimizer22init_monitoring_system0B8_
FN:161,_RNCNvMNtNtCsbBf3qmLqCJ0_16wezterm_parallel11performance7startupNtB4_16StartupOptimizer26preload_critical_resources0B8_
FN:59,_RNCNvMNtNtCsbBf3qmLqCJ0_16wezterm_parallel11performance7startupNtB4_16StartupOptimizer28schedule_lazy_initialization0B8_
FN:71,_RNCNvMNtNtCsbBf3qmLqCJ0_16wezterm_parallel11performance7startupNtB4_16StartupOptimizer28schedule_lazy_initializations0_0B8_
FN:65,_RNCNvMNtNtCsbBf3qmLqCJ0_16wezterm_parallel11performance7startupNtB4_16StartupOptimizer28schedule_lazy_initializations_0B8_
FN:300,_RNCNvNtNtNtCsbBf3qmLqCJ0_16wezterm_parallel11performance7startup5testss_22test_preload_resources0B9_
FN:288,_RNCNvNtNtNtCsbBf3qmLqCJ0_16wezterm_parallel11performance7startup5testss_24test_lazy_initialization0B9_
FN:313,_RNCNvNtNtNtCsbBf3qmLqCJ0_16wezterm_parallel11performance7startup5testss_26test_measure_startup_phase0B9_
FN:279,_RNCNvNtNtNtCsbBf3qmLqCJ0_16wezterm_parallel11performance7startup5testss_27test_fast_init_core_modules0B9_
FN:271,_RNCNvNtNtNtCsbBf3qmLqCJ0_16wezterm_parallel11performance7startup5testss_31test_startup_optimizer_creation0B9_
FN:300,_RNvNtNtNtCsbBf3qmLqCJ0_16wezterm_parallel11performance7startup5testss_22test_preload_resources
FN:288,_RNvNtNtNtCsbBf3qmLqCJ0_16wezterm_parallel11performance7startup5testss_24test_lazy_initialization
FN:309,_RNvNtNtNtCsbBf3qmLqCJ0_16wezterm_parallel11performance7startup5testss_26test_measure_startup_phase
FN:279,_RNvNtNtNtCsbBf3qmLqCJ0_16wezterm_parallel11performance7startup5testss_27test_fast_init_core_modules
FN:271,_RNvNtNtNtCsbBf3qmLqCJ0_16wezterm_parallel11performance7startup5testss_31test_startup_optimizer_creation
FN:154,_RNvMNtNtCsbBf3qmLqCJ0_16wezterm_parallel11performance7startupNtB2_16StartupOptimizer16init_sync_system
FN:119,_RNvMNtNtCsbBf3qmLqCJ0_16wezterm_parallel11performance7startupNtB2_16StartupOptimizer17init_error_system
FN:133,_RNvMNtNtCsbBf3qmLqCJ0_16wezterm_parallel11performance7startupNtB2_16StartupOptimizer18init_config_system
FN:101,_RNvMNtNtCsbBf3qmLqCJ0_16wezterm_parallel11performance7startupNtB2_16StartupOptimizer18wait_for_lazy_init
FN:126,_RNvMNtNtCsbBf3qmLqCJ0_16wezterm_parallel11performance7startupNtB2_16StartupOptimizer19init_logging_system
FN:147,_RNvMNtNtCsbBf3qmLqCJ0_16wezterm_parallel11performance7startupNtB2_16StartupOptimizer21init_dashboard_system
FN:32,_RNvMNtNtCsbBf3qmLqCJ0_16wezterm_parallel11performance7startupNtB2_16StartupOptimizer22fast_init_core_modules
FN:140,_RNvMNtNtCsbBf3qmLqCJ0_16wezterm_parallel11performance7startupNtB2_16StartupOptimizer22init_monitoring_system
FN:161,_RNvMNtNtCsbBf3qmLqCJ0_16wezterm_parallel11performance7startupNtB2_16StartupOptimizer26preload_critical_resources
FN:55,_RNvMNtNtCsbBf3qmLqCJ0_16wezterm_parallel11performance7startupNtB2_16StartupOptimizer28schedule_lazy_initialization
FN:18,_RNvMNtNtCsbBf3qmLqCJ0_16wezterm_parallel11performance7startupNtB2_16StartupOptimizer3new
FNDA:0,_RNCNvMNtNtCsezqlaDlZ1Zy_16wezterm_parallel11performance7startupNtB4_16StartupOptimizer16init_sync_system0B8_
FNDA:0,_RNCNvMNtNtCsezqlaDlZ1Zy_16wezterm_parallel11performance7startupNtB4_16StartupOptimizer21init_dashboard_system0B8_
FNDA:0,_RNCNvMNtNtCsezqlaDlZ1Zy_16wezterm_parallel11performance7startupNtB4_16StartupOptimizer22init_monitoring_system0B8_
FNDA:0,_RNCNvMNtNtCsezqlaDlZ1Zy_16wezterm_parallel11performance7startupNtB4_16StartupOptimizer28schedule_lazy_initialization0B8_
FNDA:0,_RNCNvMNtNtCsezqlaDlZ1Zy_16wezterm_parallel11performance7startupNtB4_16StartupOptimizer28schedule_lazy_initializations0_0B8_
FNDA:0,_RNCNvMNtNtCsezqlaDlZ1Zy_16wezterm_parallel11performance7startupNtB4_16StartupOptimizer28schedule_lazy_initializations_0B8_
FNDA:0,_RNvMNtNtCsezqlaDlZ1Zy_16wezterm_parallel11performance7startupNtB2_16StartupOptimizer16complete_startup
FNDA:0,_RNvMNtNtCsezqlaDlZ1Zy_16wezterm_parallel11performance7startupNtB2_16StartupOptimizer16init_sync_system
FNDA:0,_RNvMNtNtCsezqlaDlZ1Zy_16wezterm_parallel11performance7startupNtB2_16StartupOptimizer17init_error_system
FNDA:0,_RNvMNtNtCsezqlaDlZ1Zy_16wezterm_parallel11performance7startupNtB2_16StartupOptimizer18init_config_system
FNDA:0,_RNvMNtNtCsezqlaDlZ1Zy_16wezterm_parallel11performance7startupNtB2_16StartupOptimizer18wait_for_lazy_init
FNDA:0,_RNvMNtNtCsezqlaDlZ1Zy_16wezterm_parallel11performance7startupNtB2_16StartupOptimizer19init_logging_system
FNDA:0,_RNvMNtNtCsezqlaDlZ1Zy_16wezterm_parallel11performance7startupNtB2_16StartupOptimizer21init_dashboard_system
FNDA:0,_RNvMNtNtCsezqlaDlZ1Zy_16wezterm_parallel11performance7startupNtB2_16StartupOptimizer21optimize_cpu_affinity
FNDA:0,_RNvMNtNtCsezqlaDlZ1Zy_16wezterm_parallel11performance7startupNtB2_16StartupOptimizer22fast_init_core_modules
FNDA:0,_RNvMNtNtCsezqlaDlZ1Zy_16wezterm_parallel11performance7startupNtB2_16StartupOptimizer22init_monitoring_system
FNDA:0,_RNvMNtNtCsezqlaDlZ1Zy_16wezterm_parallel11performance7startupNtB2_16StartupOptimizer22optimize_memory_layout
FNDA:0,_RNvMNtNtCsezqlaDlZ1Zy_16wezterm_parallel11performance7startupNtB2_16StartupOptimizer23get_performance_manager
FNDA:0,_RNvMNtNtCsezqlaDlZ1Zy_16wezterm_parallel11performance7startupNtB2_16StartupOptimizer26preload_critical_resources
FNDA:0,_RNvMNtNtCsezqlaDlZ1Zy_16wezterm_parallel11performance7startupNtB2_16StartupOptimizer28schedule_lazy_initialization
FNDA:0,_RNvMNtNtCsezqlaDlZ1Zy_16wezterm_parallel11performance7startupNtB2_16StartupOptimizer3new
FNDA:0,_RINvMNtNtCsezqlaDlZ1Zy_16wezterm_parallel11performance7startupNtB3_16StartupOptimizer21measure_startup_phaseppEB7_
FNDA:0,_RNCNCNvMNtNtCsezqlaDlZ1Zy_16wezterm_parallel11performance7startupNtB6_16StartupOptimizer26preload_critical_resources00Ba_
FNDA:0,_RNCNCNvMNtNtCsezqlaDlZ1Zy_16wezterm_parallel11performance7startupNtB6_16StartupOptimizer26preload_critical_resources0s0_0Ba_
FNDA:0,_RNCNCNvMNtNtCsezqlaDlZ1Zy_16wezterm_parallel11performance7startupNtB6_16StartupOptimizer26preload_critical_resources0s_0Ba_
FNDA:0,_RNCNvMNtNtCsezqlaDlZ1Zy_16wezterm_parallel11performance7startupNtB4_16StartupOptimizer16complete_startup0B8_
FNDA:0,_RNCNvMNtNtCsezqlaDlZ1Zy_16wezterm_parallel11performance7startupNtB4_16StartupOptimizer17init_error_system0B8_
FNDA:0,_RNCNvMNtNtCsezqlaDlZ1Zy_16wezterm_parallel11performance7startupNtB4_16StartupOptimizer18init_config_system0B8_
FNDA:0,_RNCNvMNtNtCsezqlaDlZ1Zy_16wezterm_parallel11performance7startupNtB4_16StartupOptimizer18wait_for_lazy_init0B8_
FNDA:0,_RNCNvMNtNtCsezqlaDlZ1Zy_16wezterm_parallel11performance7startupNtB4_16StartupOptimizer19init_logging_system0B8_
FNDA:0,_RNCNvMNtNtCsezqlaDlZ1Zy_16wezterm_parallel11performance7startupNtB4_16StartupOptimizer22fast_init_core_modules0B8_
FNDA:0,_RNCNvMNtNtCsezqlaDlZ1Zy_16wezterm_parallel11performance7startupNtB4_16StartupOptimizer26preload_critical_resources0B8_
FNDA:0,_RNCNCNvMNtNtCsezqlaDlZ1Zy_16wezterm_parallel11performance7startupNtB6_16StartupOptimizer26preload_critical_resources00CsjIgq8mvfQLP_16wezterm_parallel
FNDA:0,_RNCNCNvMNtNtCsezqlaDlZ1Zy_16wezterm_parallel11performance7startupNtB6_16StartupOptimizer26preload_critical_resources0s0_0CsjIgq8mvfQLP_16wezterm_parallel
FNDA:0,_RNCNCNvMNtNtCsezqlaDlZ1Zy_16wezterm_parallel11performance7startupNtB6_16StartupOptimizer26preload_critical_resources0s_0CsjIgq8mvfQLP_16wezterm_parallel
FNDA:0,_RNCNvMNtNtCsezqlaDlZ1Zy_16wezterm_parallel11performance7startupNtB4_16StartupOptimizer16complete_startup0CsjIgq8mvfQLP_16wezterm_parallel
FNDA:0,_RNCNvMNtNtCsezqlaDlZ1Zy_16wezterm_parallel11performance7startupNtB4_16StartupOptimizer17init_error_system0CsjIgq8mvfQLP_16wezterm_parallel
FNDA:0,_RNCNvMNtNtCsezqlaDlZ1Zy_16wezterm_parallel11performance7startupNtB4_16StartupOptimizer18init_config_system0CsjIgq8mvfQLP_16wezterm_parallel
FNDA:0,_RNCNvMNtNtCsezqlaDlZ1Zy_16wezterm_parallel11performance7startupNtB4_16StartupOptimizer19init_logging_system0CsjIgq8mvfQLP_16wezterm_parallel
FNDA:0,_RNCNvMNtNtCsezqlaDlZ1Zy_16wezterm_parallel11performance7startupNtB4_16StartupOptimizer22fast_init_core_modules0CsjIgq8mvfQLP_16wezterm_parallel
FNDA:0,_RNCNvMNtNtCsezqlaDlZ1Zy_16wezterm_parallel11performance7startupNtB4_16StartupOptimizer26preload_critical_resources0CsjIgq8mvfQLP_16wezterm_parallel
FNDA:0,_RNCNvMNtNtCsbBf3qmLqCJ0_16wezterm_parallel11performance7startupNtB4_16StartupOptimizer16complete_startup0B8_
FNDA:0,_RNvMNtNtCsbBf3qmLqCJ0_16wezterm_parallel11performance7startupNtB2_16StartupOptimizer16complete_startup
FNDA:0,_RNvMNtNtCsbBf3qmLqCJ0_16wezterm_parallel11performance7startupNtB2_16StartupOptimizer21optimize_cpu_affinity
FNDA:0,_RNvMNtNtCsbBf3qmLqCJ0_16wezterm_parallel11performance7startupNtB2_16StartupOptimizer22optimize_memory_layout
FNDA:0,_RNvMNtNtCsbBf3qmLqCJ0_16wezterm_parallel11performance7startupNtB2_16StartupOptimizer23get_performance_manager
FNDA:1,_RINvMNtNtCsbBf3qmLqCJ0_16wezterm_parallel11performance7startupNtB3_16StartupOptimizer21measure_startup_phaseNCNvNtB3_5testss_26test_measure_startup_phase0lEB7_
FNDA:1,_RNCNCNvMNtNtCsbBf3qmLqCJ0_16wezterm_parallel11performance7startupNtB6_16StartupOptimizer26preload_critical_resources00Ba_
FNDA:1,_RNCNCNvMNtNtCsbBf3qmLqCJ0_16wezterm_parallel11performance7startupNtB6_16StartupOptimizer26preload_critical_resources0s0_0Ba_
FNDA:1,_RNCNCNvMNtNtCsbBf3qmLqCJ0_16wezterm_parallel11performance7startupNtB6_16StartupOptimizer26preload_critical_resources0s_0Ba_
FNDA:1,_RNCNvMNtNtCsbBf3qmLqCJ0_16wezterm_parallel11performance7startupNtB4_16StartupOptimizer16init_sync_system0B8_
FNDA:1,_RNCNvMNtNtCsbBf3qmLqCJ0_16wezterm_parallel11performance7startupNtB4_16StartupOptimizer17init_error_system0B8_
FNDA:1,_RNCNvMNtNtCsbBf3qmLqCJ0_16wezterm_parallel11performance7startupNtB4_16StartupOptimizer18init_config_system0B8_
FNDA:1,_RNCNvMNtNtCsbBf3qmLqCJ0_16wezterm_parallel11performance7startupNtB4_16StartupOptimizer18wait_for_lazy_init0B8_
FNDA:1,_RNCNvMNtNtCsbBf3qmLqCJ0_16wezterm_parallel11performance7startupNtB4_16StartupOptimizer19init_logging_system0B8_
FNDA:1,_RNCNvMNtNtCsbBf3qmLqCJ0_16wezterm_parallel11performance7startupNtB4_16StartupOptimizer21init_dashboard_system0B8_
FNDA:1,_RNCNvMNtNtCsbBf3qmLqCJ0_16wezterm_parallel11performance7startupNtB4_16StartupOptimizer22fast_init_core_modules0B8_
FNDA:1,_RNCNvMNtNtCsbBf3qmLqCJ0_16wezterm_parallel11performance7startupNtB4_16StartupOptimizer22init_monitoring_system0B8_
FNDA:1,_RNCNvMNtNtCsbBf3qmLqCJ0_16wezterm_parallel11performance7startupNtB4_16StartupOptimizer26preload_critical_resources0B8_
FNDA:1,_RNCNvMNtNtCsbBf3qmLqCJ0_16wezterm_parallel11performance7startupNtB4_16StartupOptimizer28schedule_lazy_initialization0B8_
FNDA:1,_RNCNvMNtNtCsbBf3qmLqCJ0_16wezterm_parallel11performance7startupNtB4_16StartupOptimizer28schedule_lazy_initializations0_0B8_
FNDA:1,_RNCNvMNtNtCsbBf3qmLqCJ0_16wezterm_parallel11performance7startupNtB4_16StartupOptimizer28schedule_lazy_initializations_0B8_
FNDA:1,_RNCNvNtNtNtCsbBf3qmLqCJ0_16wezterm_parallel11performance7startup5testss_22test_preload_resources0B9_
FNDA:1,_RNCNvNtNtNtCsbBf3qmLqCJ0_16wezterm_parallel11performance7startup5testss_24test_lazy_initialization0B9_
FNDA:1,_RNCNvNtNtNtCsbBf3qmLqCJ0_16wezterm_parallel11performance7startup5testss_26test_measure_startup_phase0B9_
FNDA:1,_RNCNvNtNtNtCsbBf3qmLqCJ0_16wezterm_parallel11performance7startup5testss_27test_fast_init_core_modules0B9_
FNDA:1,_RNCNvNtNtNtCsbBf3qmLqCJ0_16wezterm_parallel11performance7startup5testss_31test_startup_optimizer_creation0B9_
FNDA:1,_RNvNtNtNtCsbBf3qmLqCJ0_16wezterm_parallel11performance7startup5testss_22test_preload_resources
FNDA:1,_RNvNtNtNtCsbBf3qmLqCJ0_16wezterm_parallel11performance7startup5testss_24test_lazy_initialization
FNDA:1,_RNvNtNtNtCsbBf3qmLqCJ0_16wezterm_parallel11performance7startup5testss_26test_measure_startup_phase
FNDA:1,_RNvNtNtNtCsbBf3qmLqCJ0_16wezterm_parallel11performance7startup5testss_27test_fast_init_core_modules
FNDA:1,_RNvNtNtNtCsbBf3qmLqCJ0_16wezterm_parallel11performance7startup5testss_31test_startup_optimizer_creation
FNDA:1,_RNvMNtNtCsbBf3qmLqCJ0_16wezterm_parallel11performance7startupNtB2_16StartupOptimizer16init_sync_system
FNDA:1,_RNvMNtNtCsbBf3qmLqCJ0_16wezterm_parallel11performance7startupNtB2_16StartupOptimizer17init_error_system
FNDA:1,_RNvMNtNtCsbBf3qmLqCJ0_16wezterm_parallel11performance7startupNtB2_16StartupOptimizer18init_config_system
FNDA:1,_RNvMNtNtCsbBf3qmLqCJ0_16wezterm_parallel11performance7startupNtB2_16StartupOptimizer18wait_for_lazy_init
FNDA:1,_RNvMNtNtCsbBf3qmLqCJ0_16wezterm_parallel11performance7startupNtB2_16StartupOptimizer19init_logging_system
FNDA:1,_RNvMNtNtCsbBf3qmLqCJ0_16wezterm_parallel11performance7startupNtB2_16StartupOptimizer21init_dashboard_system
FNDA:1,_RNvMNtNtCsbBf3qmLqCJ0_16wezterm_parallel11performance7startupNtB2_16StartupOptimizer22fast_init_core_modules
FNDA:1,_RNvMNtNtCsbBf3qmLqCJ0_16wezterm_parallel11performance7startupNtB2_16StartupOptimizer22init_monitoring_system
FNDA:1,_RNvMNtNtCsbBf3qmLqCJ0_16wezterm_parallel11performance7startupNtB2_16StartupOptimizer26preload_critical_resources
FNDA:1,_RNvMNtNtCsbBf3qmLqCJ0_16wezterm_parallel11performance7startupNtB2_16StartupOptimizer28schedule_lazy_initialization
FNDA:5,_RNvMNtNtCsbBf3qmLqCJ0_16wezterm_parallel11performance7startupNtB2_16StartupOptimizer3new
FNF:42
FNH:37
DA:18,5
DA:19,5
DA:20,5
DA:22,5
DA:24,5
DA:25,5
DA:26,5
DA:27,5
DA:28,5
DA:29,5
DA:32,1
DA:33,1
DA:36,1
DA:37,1
DA:38,1
DA:39,1
DA:43,4
DA:44,3
DA:47,1
DA:48,0
DA:49,0
DA:51,1
DA:52,1
DA:55,1
DA:56,1
DA:59,1
DA:60,1
DA:61,1
DA:62,1
DA:63,1
DA:65,1
DA:66,1
DA:67,1
DA:68,1
DA:69,1
DA:71,1
DA:72,1
DA:73,1
DA:74,1
DA:75,1
DA:77,1
DA:78,1
DA:81,0
DA:82,0
DA:83,0
DA:86,0
DA:87,0
DA:88,0
DA:91,0
DA:92,0
DA:93,0
DA:94,0
DA:97,0
DA:98,0
DA:101,1
DA:102,1
DA:104,1
DA:105,1
DA:107,3
DA:108,3
DA:109,0
DA:110,3
DA:111,3
DA:112,3
DA:115,1
DA:116,1
DA:119,1
DA:120,1
DA:122,1
DA:123,1
DA:126,1
DA:127,1
DA:129,1
DA:130,1
DA:133,1
DA:134,1
DA:136,1
DA:137,1
DA:140,1
DA:141,1
DA:143,1
DA:144,1
DA:147,1
DA:148,1
DA:150,1
DA:151,1
DA:154,1
DA:155,1
DA:157,1
DA:158,1
DA:161,1
DA:162,1
DA:165,1
DA:166,1
DA:168,1
DA:169,1
DA:172,1
DA:173,1
DA:175,1
DA:176,1
DA:179,1
DA:180,1
DA:182,1
DA:183,1
DA:186,1
DA:188,1
DA:189,1
DA:190,1
DA:193,1
DA:194,1
DA:195,1
DA:197,1
DA:198,1
DA:199,1
DA:201,1
DA:202,0
DA:204,1
DA:207,1
DA:208,1
DA:211,0
DA:212,0
DA:218,0
DA:219,0
DA:222,0
DA:223,0
DA:235,0
DA:244,0
DA:245,0
DA:248,0
DA:249,0
DA:250,0
DA:271,1
DA:272,1
DA:273,1
DA:275,1
DA:276,1
DA:279,1
DA:280,1
DA:281,1
DA:283,1
DA:284,1
DA:285,1
DA:288,1
DA:289,1
DA:290,1
DA:292,1
DA:293,1
DA:295,1
DA:296,1
DA:297,1
DA:300,1
DA:301,1
DA:302,1
DA:304,1
DA:305,1
DA:306,1
DA:309,1
DA:310,1
DA:311,1
DA:313,1
DA:314,1
DA:315,1
DA:316,1
DA:318,1
DA:319,1
BRF:0
BRH:0
LF:190
LH:161
end_of_record
SF:/Users/aiq/work/wezterm-parallel/src/process/claude_config.rs
FN:247,_RINvMs_NtNtCsezqlaDlZ1Zy_16wezterm_parallel7process13claude_configNtB5_23ClaudeCodeConfigBuilder11environmentReB1J_ECs3bHImzPinI2_36claude_code_auto_startup_integration
FN:272,_RINvMs_NtNtCsezqlaDlZ1Zy_16wezterm_parallel7process13claude_configNtB5_23ClaudeCodeConfigBuilder12project_rootNtNtCs9QY0sRQ9KnX_3std4path7PathBufECs3bHImzPinI2_36claude_code_auto_startup_integration
FN:241,_RINvMs_NtNtCsezqlaDlZ1Zy_16wezterm_parallel7process13claude_configNtB5_23ClaudeCodeConfigBuilder17working_directoryRNtNtCs9QY0sRQ9KnX_3std4path4PathECs3bHImzPinI2_36claude_code_auto_startup_integration
FN:241,_RINvMs_NtNtCsezqlaDlZ1Zy_16wezterm_parallel7process13claude_configNtB5_23ClaudeCodeConfigBuilder17working_directoryReECs3bHImzPinI2_36claude_code_auto_startup_integration
FN:254,_RINvMs_NtNtCsezqlaDlZ1Zy_16wezterm_parallel7process13claude_configNtB5_23ClaudeCodeConfigBuilder8argumentReECs3bHImzPinI2_36claude_code_auto_startup_integration
FN:114,_RNvMNtNtCsezqlaDlZ1Zy_16wezterm_parallel7process13claude_configNtB2_16ClaudeCodeConfig12add_argument
FN:87,_RNvMNtNtCsezqlaDlZ1Zy_16wezterm_parallel7process13claude_configNtB2_16ClaudeCodeConfig13for_workspace
FN:134,_RNvMNtNtCsezqlaDlZ1Zy_16wezterm_parallel7process13claude_configNtB2_16ClaudeCodeConfig13set_cpu_limit
FN:129,_RNvMNtNtCsezqlaDlZ1Zy_16wezterm_parallel7process13claude_configNtB2_16ClaudeCodeConfig16set_memory_limit
FN:208,_RNvMNtNtCsezqlaDlZ1Zy_16wezterm_parallel7process13claude_configNtB2_16ClaudeCodeConfig17to_command_string
FN:139,_RNvMNtNtCsezqlaDlZ1Zy_16wezterm_parallel7process13claude_configNtB2_16ClaudeCodeConfig20set_process_priority
FN:124,_RNvMNtNtCsezqlaDlZ1Zy_16wezterm_parallel7process13claude_configNtB2_16ClaudeCodeConfig22add_workspace_argument
FN:164,_RNvMNtNtCsezqlaDlZ1Zy_16wezterm_parallel7process13claude_configNtB2_16ClaudeCodeConfig22get_complete_arguments
FN:109,_RNvMNtNtCsezqlaDlZ1Zy_16wezterm_parallel7process13claude_configNtB2_16ClaudeCodeConfig24add_environment_variable
FN:144,_RNvMNtNtCsezqlaDlZ1Zy_16wezterm_parallel7process13claude_configNtB2_16ClaudeCodeConfig24get_complete_environment
FN:119,_RNvMNtNtCsezqlaDlZ1Zy_16wezterm_parallel7process13claude_configNtB2_16ClaudeCodeConfig25add_workspace_environment
FN:57,_RNvMNtNtCsezqlaDlZ1Zy_16wezterm_parallel7process13claude_configNtB2_16ClaudeCodeConfig3new
FN:174,_RNvMNtNtCsezqlaDlZ1Zy_16wezterm_parallel7process13claude_configNtB2_16ClaudeCodeConfig8validate
FN:260,_RNvMs_NtNtCsezqlaDlZ1Zy_16wezterm_parallel7process13claude_configNtB4_23ClaudeCodeConfigBuilder12memory_limit
FN:280,_RNvMs_NtNtCsezqlaDlZ1Zy_16wezterm_parallel7process13claude_configNtB4_23ClaudeCodeConfigBuilder16process_priority
FN:234,_RNvMs_NtNtCsezqlaDlZ1Zy_16wezterm_parallel7process13claude_configNtB4_23ClaudeCodeConfigBuilder3new
FN:286,_RNvMs_NtNtCsezqlaDlZ1Zy_16wezterm_parallel7process13claude_configNtB4_23ClaudeCodeConfigBuilder5build
FN:266,_RNvMs_NtNtCsezqlaDlZ1Zy_16wezterm_parallel7process13claude_configNtB4_23ClaudeCodeConfigBuilder9cpu_limit
FN:247,_RINvMs_NtNtCsezqlaDlZ1Zy_16wezterm_parallel7process13claude_configNtB5_23ClaudeCodeConfigBuilder11environmentppEB9_
FN:272,_RINvMs_NtNtCsezqlaDlZ1Zy_16wezterm_parallel7process13claude_configNtB5_23ClaudeCodeConfigBuilder12project_rootpEB9_
FN:241,_RINvMs_NtNtCsezqlaDlZ1Zy_16wezterm_parallel7process13claude_configNtB5_23ClaudeCodeConfigBuilder17working_directorypEB9_
FN:254,_RINvMs_NtNtCsezqlaDlZ1Zy_16wezterm_parallel7process13claude_configNtB5_23ClaudeCodeConfigBuilder8argumentpEB9_
FN:212,_RNCNvMNtNtCsezqlaDlZ1Zy_16wezterm_parallel7process13claude_configNtB4_16ClaudeCodeConfig17to_command_string0B8_
FN:72,_RNCNvMNtNtCsezqlaDlZ1Zy_16wezterm_parallel7process13claude_configNtB4_16ClaudeCodeConfig3new0B8_
FN:247,_RINvMs_NtNtCsezqlaDlZ1Zy_16wezterm_parallel7process13claude_configNtB5_23ClaudeCodeConfigBuilder11environmentReB1J_ECspnWSjikcw4_22end_to_end_integration
FN:272,_RINvMs_NtNtCsezqlaDlZ1Zy_16wezterm_parallel7process13claude_configNtB5_23ClaudeCodeConfigBuilder12project_rootNtNtCs9QY0sRQ9KnX_3std4path7PathBufECspnWSjikcw4_22end_to_end_integration
FN:254,_RINvMs_NtNtCsezqlaDlZ1Zy_16wezterm_parallel7process13claude_configNtB5_23ClaudeCodeConfigBuilder8argumentReECspnWSjikcw4_22end_to_end_integration
FN:247,_RINvMs_NtNtCsezqlaDlZ1Zy_16wezterm_parallel7process13claude_configNtB5_23ClaudeCodeConfigBuilder11environmentReB1J_ECsjIgq8mvfQLP_16wezterm_parallel
FN:272,_RINvMs_NtNtCsezqlaDlZ1Zy_16wezterm_parallel7process13claude_configNtB5_23ClaudeCodeConfigBuilder12project_rootNtNtCs9QY0sRQ9KnX_3std4path7PathBufECsjIgq8mvfQLP_16wezterm_parallel
FN:254,_RINvMs_NtNtCsezqlaDlZ1Zy_16wezterm_parallel7process13claude_configNtB5_23ClaudeCodeConfigBuilder8argumentReECsjIgq8mvfQLP_16wezterm_parallel
FN:368,_RNvNtNtNtCsbBf3qmLqCJ0_16wezterm_parallel7process13claude_config5testss_11test_limits
FN:354,_RNvNtNtNtCsbBf3qmLqCJ0_16wezterm_parallel7process13claude_config5testss_14test_arguments
FN:299,_RNvNtNtNtCsbBf3qmLqCJ0_16wezterm_parallel7process13claude_config5testss_15test_new_config
FN:402,_RNvNtNtNtCsbBf3qmLqCJ0_16wezterm_parallel7process13claude_config5testss_15test_validation
FN:316,_RNvNtNtNtCsbBf3qmLqCJ0_16wezterm_parallel7process13claude_config5testss_18test_for_workspace
FN:382,_RNvNtNtNtCsbBf3qmLqCJ0_16wezterm_parallel7process13claude_config5testss_19test_limit_clamping
FN:428,_RNvNtNtNtCsbBf3qmLqCJ0_16wezterm_parallel7process13claude_config5testss_20test_builder_pattern
FN:337,_RNvNtNtNtCsbBf3qmLqCJ0_16wezterm_parallel7process13claude_config5testss_26test_environment_variables
FN:453,_RNvNtNtNtCsbBf3qmLqCJ0_16wezterm_parallel7process13claude_config5testss_30test_command_string_generation
FN:247,_RINvMs_NtNtCsbBf3qmLqCJ0_16wezterm_parallel7process13claude_configNtB5_23ClaudeCodeConfigBuilder11environmentReB1J_EB9_
FN:272,_RINvMs_NtNtCsbBf3qmLqCJ0_16wezterm_parallel7process13claude_configNtB5_23ClaudeCodeConfigBuilder12project_rootNtNtCs9QY0sRQ9KnX_3std4path7PathBufEB9_
FN:241,_RINvMs_NtNtCsbBf3qmLqCJ0_16wezterm_parallel7process13claude_configNtB5_23ClaudeCodeConfigBuilder17working_directoryRNtNtCs9QY0sRQ9KnX_3std4path4PathEB9_
FN:254,_RINvMs_NtNtCsbBf3qmLqCJ0_16wezterm_parallel7process13claude_configNtB5_23ClaudeCodeConfigBuilder8argumentReEB9_
FN:212,_RNCNvMNtNtCsbBf3qmLqCJ0_16wezterm_parallel7process13claude_configNtB4_16ClaudeCodeConfig17to_command_string0B8_
FN:72,_RNCNvMNtNtCsbBf3qmLqCJ0_16wezterm_parallel7process13claude_configNtB4_16ClaudeCodeConfig3new0B8_
FN:114,_RNvMNtNtCsbBf3qmLqCJ0_16wezterm_parallel7process13claude_configNtB2_16ClaudeCodeConfig12add_argument
FN:87,_RNvMNtNtCsbBf3qmLqCJ0_16wezterm_parallel7process13claude_configNtB2_16ClaudeCodeConfig13for_workspace
FN:134,_RNvMNtNtCsbBf3qmLqCJ0_16wezterm_parallel7process13claude_configNtB2_16ClaudeCodeConfig13set_cpu_limit
FN:129,_RNvMNtNtCsbBf3qmLqCJ0_16wezterm_parallel7process13claude_configNtB2_16ClaudeCodeConfig16set_memory_limit
FN:208,_RNvMNtNtCsbBf3qmLqCJ0_16wezterm_parallel7process13claude_configNtB2_16ClaudeCodeConfig17to_command_string
FN:139,_RNvMNtNtCsbBf3qmLqCJ0_16wezterm_parallel7process13claude_configNtB2_16ClaudeCodeConfig20set_process_priority
FN:124,_RNvMNtNtCsbBf3qmLqCJ0_16wezterm_parallel7process13claude_configNtB2_16ClaudeCodeConfig22add_workspace_argument
FN:164,_RNvMNtNtCsbBf3qmLqCJ0_16wezterm_parallel7process13claude_configNtB2_16ClaudeCodeConfig22get_complete_arguments
FN:109,_RNvMNtNtCsbBf3qmLqCJ0_16wezterm_parallel7process13claude_configNtB2_16ClaudeCodeConfig24add_environment_variable
FN:144,_RNvMNtNtCsbBf3qmLqCJ0_16wezterm_parallel7process13claude_configNtB2_16ClaudeCodeConfig24get_complete_environment
FN:119,_RNvMNtNtCsbBf3qmLqCJ0_16wezterm_parallel7process13claude_configNtB2_16ClaudeCodeConfig25add_workspace_environment
FN:57,_RNvMNtNtCsbBf3qmLqCJ0_16wezterm_parallel7process13claude_configNtB2_16ClaudeCodeConfig3new
FN:174,_RNvMNtNtCsbBf3qmLqCJ0_16wezterm_parallel7process13claude_configNtB2_16ClaudeCodeConfig8validate
FN:260,_RNvMs_NtNtCsbBf3qmLqCJ0_16wezterm_parallel7process13claude_configNtB4_23ClaudeCodeConfigBuilder12memory_limit
FN:280,_RNvMs_NtNtCsbBf3qmLqCJ0_16wezterm_parallel7process13claude_configNtB4_23ClaudeCodeConfigBuilder16process_priority
FN:234,_RNvMs_NtNtCsbBf3qmLqCJ0_16wezterm_parallel7process13claude_configNtB4_23ClaudeCodeConfigBuilder3new
FN:286,_RNvMs_NtNtCsbBf3qmLqCJ0_16wezterm_parallel7process13claude_configNtB4_23ClaudeCodeConfigBuilder5build
FN:266,_RNvMs_NtNtCsbBf3qmLqCJ0_16wezterm_parallel7process13claude_configNtB4_23ClaudeCodeConfigBuilder9cpu_limit
FN:247,_RINvMs_NtNtCsezqlaDlZ1Zy_16wezterm_parallel7process13claude_configNtB5_23ClaudeCodeConfigBuilder11environmentReB1J_ECsdY0mWPwqffX_29workspace_process_integration
FN:272,_RINvMs_NtNtCsezqlaDlZ1Zy_16wezterm_parallel7process13claude_configNtB5_23ClaudeCodeConfigBuilder12project_rootNtNtCs9QY0sRQ9KnX_3std4path7PathBufECsdY0mWPwqffX_29workspace_process_integration
FN:254,_RINvMs_NtNtCsezqlaDlZ1Zy_16wezterm_parallel7process13claude_configNtB5_23ClaudeCodeConfigBuilder8argumentReECsdY0mWPwqffX_29workspace_process_integration
FNDA:8,_RINvMs_NtNtCsezqlaDlZ1Zy_16wezterm_parallel7process13claude_configNtB5_23ClaudeCodeConfigBuilder11environmentReB1J_ECs3bHImzPinI2_36claude_code_auto_startup_integration
FNDA:7,_RINvMs_NtNtCsezqlaDlZ1Zy_16wezterm_parallel7process13claude_configNtB5_23ClaudeCodeConfigBuilder12project_rootNtNtCs9QY0sRQ9KnX_3std4path7PathBufECs3bHImzPinI2_36claude_code_auto_startup_integration
FNDA:1,_RINvMs_NtNtCsezqlaDlZ1Zy_16wezterm_parallel7process13claude_configNtB5_23ClaudeCodeConfigBuilder17working_directoryRNtNtCs9QY0sRQ9KnX_3std4path4PathECs3bHImzPinI2_36claude_code_auto_startup_integration
FNDA:1,_RINvMs_NtNtCsezqlaDlZ1Zy_16wezterm_parallel7process13claude_configNtB5_23ClaudeCodeConfigBuilder17working_directoryReECs3bHImzPinI2_36claude_code_auto_startup_integration
FNDA:15,_RINvMs_NtNtCsezqlaDlZ1Zy_16wezterm_parallel7process13claude_configNtB5_23ClaudeCodeConfigBuilder8argumentReECs3bHImzPinI2_36claude_code_auto_startup_integration
FNDA:57,_RNvMNtNtCsezqlaDlZ1Zy_16wezterm_parallel7process13claude_configNtB2_16ClaudeCodeConfig12add_argument
FNDA:0,_RNvMNtNtCsezqlaDlZ1Zy_16wezterm_parallel7process13claude_configNtB2_16ClaudeCodeConfig13for_workspace
FNDA:29,_RNvMNtNtCsezqlaDlZ1Zy_16wezterm_parallel7process13claude_configNtB2_16ClaudeCodeConfig13set_cpu_limit
FNDA:29,_RNvMNtNtCsezqlaDlZ1Zy_16wezterm_parallel7process13claude_configNtB2_16ClaudeCodeConfig16set_memory_limit
FNDA:1,_RNvMNtNtCsezqlaDlZ1Zy_16wezterm_parallel7process13claude_configNtB2_16ClaudeCodeConfig17to_command_string
FNDA:0,_RNvMNtNtCsezqlaDlZ1Zy_16wezterm_parallel7process13claude_configNtB2_16ClaudeCodeConfig20set_process_priority
FNDA:0,_RNvMNtNtCsezqlaDlZ1Zy_16wezterm_parallel7process13claude_configNtB2_16ClaudeCodeConfig22add_workspace_argument
FNDA:9,_RNvMNtNtCsezqlaDlZ1Zy_16wezterm_parallel7process13claude_configNtB2_16ClaudeCodeConfig22get_complete_arguments
FNDA:29,_RNvMNtNtCsezqlaDlZ1Zy_16wezterm_parallel7process13claude_configNtB2_16ClaudeCodeConfig24add_environment_variable
FNDA:2,_RNvMNtNtCsezqlaDlZ1Zy_16wezterm_parallel7process13claude_configNtB2_16ClaudeCodeConfig24get_complete_environment
FNDA:0,_RNvMNtNtCsezqlaDlZ1Zy_16wezterm_parallel7process13claude_configNtB2_16ClaudeCodeConfig25add_workspace_environment
FNDA:30,_RNvMNtNtCsezqlaDlZ1Zy_16wezterm_parallel7process13claude_configNtB2_16ClaudeCodeConfig3new
FNDA:30,_RNvMNtNtCsezqlaDlZ1Zy_16wezterm_parallel7process13claude_configNtB2_16ClaudeCodeConfig8validate
FNDA:29,_RNvMs_NtNtCsezqlaDlZ1Zy_16wezterm_parallel7process13claude_configNtB4_23ClaudeCodeConfigBuilder12memory_limit
FNDA:0,_RNvMs_NtNtCsezqlaDlZ1Zy_16wezterm_parallel7process13claude_configNtB4_23ClaudeCodeConfigBuilder16process_priority
FNDA:30,_RNvMs_NtNtCsezqlaDlZ1Zy_16wezterm_parallel7process13claude_configNtB4_23ClaudeCodeConfigBuilder3new
FNDA:30,_RNvMs_NtNtCsezqlaDlZ1Zy_16wezterm_parallel7process13claude_configNtB4_23ClaudeCodeConfigBuilder5build
FNDA:29,_RNvMs_NtNtCsezqlaDlZ1Zy_16wezterm_parallel7process13claude_configNtB4_23ClaudeCodeConfigBuilder9cpu_limit
FNDA:0,_RINvMs_NtNtCsezqlaDlZ1Zy_16wezterm_parallel7process13claude_configNtB5_23ClaudeCodeConfigBuilder11environmentppEB9_
FNDA:0,_RINvMs_NtNtCsezqlaDlZ1Zy_16wezterm_parallel7process13claude_configNtB5_23ClaudeCodeConfigBuilder12project_rootpEB9_
FNDA:0,_RINvMs_NtNtCsezqlaDlZ1Zy_16wezterm_parallel7process13claude_configNtB5_23ClaudeCodeConfigBuilder17working_directorypEB9_
FNDA:0,_RINvMs_NtNtCsezqlaDlZ1Zy_16wezterm_parallel7process13claude_configNtB5_23ClaudeCodeConfigBuilder8argumentpEB9_
FNDA:5,_RNCNvMNtNtCsezqlaDlZ1Zy_16wezterm_parallel7process13claude_configNtB4_16ClaudeCodeConfig17to_command_string0B8_
FNDA:0,_RNCNvMNtNtCsezqlaDlZ1Zy_16wezterm_parallel7process13claude_configNtB4_16ClaudeCodeConfig3new0B8_
FNDA:15,_RINvMs_NtNtCsezqlaDlZ1Zy_16wezterm_parallel7process13claude_configNtB5_23ClaudeCodeConfigBuilder11environmentReB1J_ECspnWSjikcw4_22end_to_end_integration
FNDA:15,_RINvMs_NtNtCsezqlaDlZ1Zy_16wezterm_parallel7process13claude_configNtB5_23ClaudeCodeConfigBuilder12project_rootNtNtCs9QY0sRQ9KnX_3std4path7PathBufECspnWSjikcw4_22end_to_end_integration
FNDA:30,_RINvMs_NtNtCsezqlaDlZ1Zy_16wezterm_parallel7process13claude_configNtB5_23ClaudeCodeConfigBuilder8argumentReECspnWSjikcw4_22end_to_end_integration
FNDA:0,_RINvMs_NtNtCsezqlaDlZ1Zy_16wezterm_parallel7process13claude_configNtB5_23ClaudeCodeConfigBuilder11environmentReB1J_ECsjIgq8mvfQLP_16wezterm_parallel
FNDA:0,_RINvMs_NtNtCsezqlaDlZ1Zy_16wezterm_parallel7process13claude_configNtB5_23ClaudeCodeConfigBuilder12project_rootNtNtCs9QY0sRQ9KnX_3std4path7PathBufECsjIgq8mvfQLP_16wezterm_parallel
FNDA:0,_RINvMs_NtNtCsezqlaDlZ1Zy_16wezterm_parallel7process13claude_configNtB5_23ClaudeCodeConfigBuilder8argumentReECsjIgq8mvfQLP_16wezterm_parallel
FNDA:1,_RNvNtNtNtCsbBf3qmLqCJ0_16wezterm_parallel7process13claude_config5testss_11test_limits
FNDA:1,_RNvNtNtNtCsbBf3qmLqCJ0_16wezterm_parallel7process13claude_config5testss_14test_arguments
FNDA:1,_RNvNtNtNtCsbBf3qmLqCJ0_16wezterm_parallel7process13claude_config5testss_15test_new_config
FNDA:1,_RNvNtNtNtCsbBf3qmLqCJ0_16wezterm_parallel7process13claude_config5testss_15test_validation
FNDA:1,_RNvNtNtNtCsbBf3qmLqCJ0_16wezterm_parallel7process13claude_config5testss_18test_for_workspace
FNDA:1,_RNvNtNtNtCsbBf3qmLqCJ0_16wezterm_parallel7process13claude_config5testss_19test_limit_clamping
FNDA:1,_RNvNtNtNtCsbBf3qmLqCJ0_16wezterm_parallel7process13claude_config5testss_20test_builder_pattern
FNDA:1,_RNvNtNtNtCsbBf3qmLqCJ0_16wezterm_parallel7process13claude_config5testss_26test_environment_variables
FNDA:1,_RNvNtNtNtCsbBf3qmLqCJ0_16wezterm_parallel7process13claude_config5testss_30test_command_string_generation
FNDA:10,_RINvMs_NtNtCsbBf3qmLqCJ0_16wezterm_parallel7process13claude_configNtB5_23ClaudeCodeConfigBuilder11environmentReB1J_EB9_
FNDA:9,_RINvMs_NtNtCsbBf3qmLqCJ0_16wezterm_parallel7process13claude_configNtB5_23ClaudeCodeConfigBuilder12project_rootNtNtCs9QY0sRQ9KnX_3std4path7PathBufEB9_
FNDA:1,_RINvMs_NtNtCsbBf3qmLqCJ0_16wezterm_parallel7process13claude_configNtB5_23ClaudeCodeConfigBuilder17working_directoryRNtNtCs9QY0sRQ9KnX_3std4path4PathEB9_
FNDA:19,_RINvMs_NtNtCsbBf3qmLqCJ0_16wezterm_parallel7process13claude_configNtB5_23ClaudeCodeConfigBuilder8argumentReEB9_
FNDA:4,_RNCNvMNtNtCsbBf3qmLqCJ0_16wezterm_parallel7process13claude_configNtB4_16ClaudeCodeConfig17to_command_string0B8_
FNDA:0,_RNCNvMNtNtCsbBf3qmLqCJ0_16wezterm_parallel7process13claude_configNtB4_16ClaudeCodeConfig3new0B8_
FNDA:20,_RNvMNtNtCsbBf3qmLqCJ0_16wezterm_parallel7process13claude_configNtB2_16ClaudeCodeConfig12add_argument
FNDA:1,_RNvMNtNtCsbBf3qmLqCJ0_16wezterm_parallel7process13claude_configNtB2_16ClaudeCodeConfig13for_workspace
FNDA:13,_RNvMNtNtCsbBf3qmLqCJ0_16wezterm_parallel7process13claude_configNtB2_16ClaudeCodeConfig13set_cpu_limit
FNDA:11,_RNvMNtNtCsbBf3qmLqCJ0_16wezterm_parallel7process13claude_configNtB2_16ClaudeCodeConfig16set_memory_limit
FNDA:1,_RNvMNtNtCsbBf3qmLqCJ0_16wezterm_parallel7process13claude_configNtB2_16ClaudeCodeConfig17to_command_string
FNDA:4,_RNvMNtNtCsbBf3qmLqCJ0_16wezterm_parallel7process13claude_configNtB2_16ClaudeCodeConfig20set_process_priority
FNDA:1,_RNvMNtNtCsbBf3qmLqCJ0_16wezterm_parallel7process13claude_configNtB2_16ClaudeCodeConfig22add_workspace_argument
FNDA:2,_RNvMNtNtCsbBf3qmLqCJ0_16wezterm_parallel7process13claude_configNtB2_16ClaudeCodeConfig22get_complete_arguments
FNDA:11,_RNvMNtNtCsbBf3qmLqCJ0_16wezterm_parallel7process13claude_configNtB2_16ClaudeCodeConfig24add_environment_variable
FNDA:2,_RNvMNtNtCsbBf3qmLqCJ0_16wezterm_parallel7process13claude_configNtB2_16ClaudeCodeConfig24get_complete_environment
FNDA:1,_RNvMNtNtCsbBf3qmLqCJ0_16wezterm_parallel7process13claude_configNtB2_16ClaudeCodeConfig25add_workspace_environment
FNDA:18,_RNvMNtNtCsbBf3qmLqCJ0_16wezterm_parallel7process13claude_configNtB2_16ClaudeCodeConfig3new
FNDA:13,_RNvMNtNtCsbBf3qmLqCJ0_16wezterm_parallel7process13claude_configNtB2_16ClaudeCodeConfig8validate
FNDA:10,_RNvMs_NtNtCsbBf3qmLqCJ0_16wezterm_parallel7process13claude_configNtB4_23ClaudeCodeConfigBuilder12memory_limit
FNDA:1,_RNvMs_NtNtCsbBf3qmLqCJ0_16wezterm_parallel7process13claude_configNtB4_23ClaudeCodeConfigBuilder16process_priority
FNDA:10,_RNvMs_NtNtCsbBf3qmLqCJ0_16wezterm_parallel7process13claude_configNtB4_23ClaudeCodeConfigBuilder3new
FNDA:10,_RNvMs_NtNtCsbBf3qmLqCJ0_16wezterm_parallel7process13claude_configNtB4_23ClaudeCodeConfigBuilder5build
FNDA:10,_RNvMs_NtNtCsbBf3qmLqCJ0_16wezterm_parallel7process13claude_configNtB4_23ClaudeCodeConfigBuilder9cpu_limit
FNDA:6,_RINvMs_NtNtCsezqlaDlZ1Zy_16wezterm_parallel7process13claude_configNtB5_23ClaudeCodeConfigBuilder11environmentReB1J_ECsdY0mWPwqffX_29workspace_process_integration
FNDA:6,_RINvMs_NtNtCsezqlaDlZ1Zy_16wezterm_parallel7process13claude_configNtB5_23ClaudeCodeConfigBuilder12project_rootNtNtCs9QY0sRQ9KnX_3std4path7PathBufECsdY0mWPwqffX_29workspace_process_integration
FNDA:12,_RINvMs_NtNtCsezqlaDlZ1Zy_16wezterm_parallel7process13claude_configNtB5_23ClaudeCodeConfigBuilder8argumentReECsdY0mWPwqffX_29workspace_process_integration
FNF:33
FNH:32
DA:57,48
DA:58,48
DA:61,48
DA:62,48
DA:63,48
DA:64,48
DA:68,48
DA:69,48
DA:72,48
DA:74,48
DA:75,48
DA:76,48
DA:77,48
DA:78,48
DA:79,48
DA:80,48
DA:81,48
DA:82,48
DA:83,48
DA:84,48
DA:87,1
DA:88,1
DA:89,1
DA:90,1
DA:91,1
DA:92,1
DA:95,1
DA:96,1
DA:97,1
DA:98,1
DA:100,1
DA:103,1
DA:105,1
DA:106,1
DA:109,40
DA:110,40
DA:111,40
DA:114,77
DA:115,77
DA:116,77
DA:119,1
DA:120,1
DA:121,1
DA:124,1
DA:125,1
DA:126,1
DA:129,40
DA:130,40
DA:131,40
DA:134,42
DA:135,42
DA:136,42
DA:139,4
DA:140,4
DA:141,4
DA:144,4
DA:145,4
DA:148,5
DA:149,1
DA:150,1
DA:153,4
DA:154,0
DA:155,0
DA:156,0
DA:157,0
DA:158,4
DA:160,4
DA:161,4
DA:164,11
DA:165,11
DA:168,11
DA:170,11
DA:171,11
DA:174,43
DA:176,43
DA:177,1
DA:178,42
DA:181,42
DA:182,1
DA:183,1
DA:184,1
DA:185,41
DA:188,41
DA:189,41
DA:190,1
DA:191,40
DA:192,40
DA:193,0
DA:194,40
DA:195,0
DA:198,40
DA:199,40
DA:200,1
DA:201,39
DA:202,0
DA:204,39
DA:205,43
DA:208,2
DA:209,2
DA:210,2
DA:211,2
DA:212,9
DA:213,2
DA:215,2
DA:217,2
DA:218,2
DA:220,2
DA:221,2
DA:224,2
DA:234,40
DA:235,40
DA:236,40
DA:237,40
DA:238,40
DA:241,3
DA:242,3
DA:243,3
DA:244,3
DA:247,39
DA:248,39
DA:249,39
DA:250,39
DA:251,39
DA:254,76
DA:255,76
DA:256,76
DA:257,76
DA:260,39
DA:261,39
DA:262,39
DA:263,39
DA:266,39
DA:267,39
DA:268,39
DA:269,39
DA:272,37
DA:273,37
DA:274,37
DA:275,37
DA:276,37
DA:277,37
DA:280,1
DA:281,1
DA:282,1
DA:283,1
DA:286,40
DA:287,40
DA:288,39
DA:289,40
DA:299,1
DA:300,1
DA:301,1
DA:303,1
DA:304,1
DA:305,1
DA:308,1
DA:309,1
DA:310,1
DA:311,1
DA:312,1
DA:313,1
DA:316,1
DA:317,1
DA:318,1
DA:319,1
DA:320,1
DA:321,1
DA:322,1
DA:325,1
DA:326,1
DA:327,1
DA:329,1
DA:331,1
DA:332,1
DA:333,1
DA:334,1
DA:337,1
DA:338,1
DA:339,1
DA:341,1
DA:342,1
DA:343,1
DA:345,1
DA:346,1
DA:347,1
DA:348,1
DA:351,1
DA:354,1
DA:355,1
DA:356,1
DA:358,1
DA:359,1
DA:361,1
DA:362,1
DA:363,1
DA:364,1
DA:365,1
DA:368,1
DA:369,1
DA:370,1
DA:372,1
DA:373,1
DA:374,1
DA:376,1
DA:377,1
DA:378,1
DA:379,1
DA:382,1
DA:383,1
DA:384,1
DA:387,1
DA:388,1
DA:390,1
DA:391,1
DA:394,1
DA:395,1
DA:397,1
DA:398,1
DA:399,1
DA:402,1
DA:403,1
DA:404,1
DA:405,1
DA:407,1
DA:410,1
DA:411,1
DA:412,1
DA:415,1
DA:416,1
DA:417,1
DA:420,1
DA:421,1
DA:422,1
DA:424,1
DA:425,1
DA:428,1
DA:429,1
DA:430,1
DA:431,1
DA:433,1
DA:434,1
DA:435,1
DA:436,1
DA:437,1
DA:438,1
DA:439,1
DA:440,1
DA:442,1
DA:443,1
DA:444,1
DA:445,1
DA:446,1
DA:447,1
DA:449,1
DA:450,1
DA:453,1
DA:454,1
DA:455,1
DA:457,1
DA:458,1
DA:459,1
DA:460,1
DA:461,1
BRF:0
BRH:0
LF:265
LH:256
end_of_record
SF:/Users/aiq/work/wezterm-parallel/src/process/claude_health.rs
FN:194,_RNCNCNvMs_NtNtCsezqlaDlZ1Zy_16wezterm_parallel7process13claude_healthNtB8_19ClaudeHealthMonitor21spawn_monitoring_task00Cs3bHImzPinI2_36claude_code_auto_startup_integration
FN:342,_RNCNvMs_NtNtCsezqlaDlZ1Zy_16wezterm_parallel7process13claude_healthNtB6_19ClaudeHealthMonitor13get_cpu_usage0Cs3bHImzPinI2_36claude_code_auto_startup_integration
FN:143,_RNCNvMs_NtNtCsezqlaDlZ1Zy_16wezterm_parallel7process13claude_healthNtB6_19ClaudeHealthMonitor15stop_monitoring0Cs3bHImzPinI2_36claude_code_auto_startup_integration
FN:323,_RNCNvMs_NtNtCsezqlaDlZ1Zy_16wezterm_parallel7process13claude_healthNtB6_19ClaudeHealthMonitor16get_memory_usage0Cs3bHImzPinI2_36claude_code_auto_startup_integration
FN:106,_RNCNvMs_NtNtCsezqlaDlZ1Zy_16wezterm_parallel7process13claude_healthNtB6_19ClaudeHealthMonitor16start_monitoring0Cs3bHImzPinI2_36claude_code_auto_startup_integration
FN:425,_RNCNvMs_NtNtCsezqlaDlZ1Zy_16wezterm_parallel7process13claude_healthNtB6_19ClaudeHealthMonitor19update_health_state0Cs3bHImzPinI2_36claude_code_auto_startup_integration
FN:284,_RNCNvMs_NtNtCsezqlaDlZ1Zy_16wezterm_parallel7process13claude_healthNtB6_19ClaudeHealthMonitor20check_process_exists0Cs3bHImzPinI2_36claude_code_auto_startup_integration
FN:215,_RNCNvMs_NtNtCsezqlaDlZ1Zy_16wezterm_parallel7process13claude_healthNtB6_19ClaudeHealthMonitor20perform_health_check0Cs3bHImzPinI2_36claude_code_auto_startup_integration
FN:163,_RNCNvMs_NtNtCsezqlaDlZ1Zy_16wezterm_parallel7process13claude_healthNtB6_19ClaudeHealthMonitor21get_all_health_states0Cs3bHImzPinI2_36claude_code_auto_startup_integration
FN:190,_RNCNvMs_NtNtCsezqlaDlZ1Zy_16wezterm_parallel7process13claude_healthNtB6_19ClaudeHealthMonitor21spawn_monitoring_task0Cs3bHImzPinI2_36claude_code_auto_startup_integration
FN:295,_RNCNvMs_NtNtCsezqlaDlZ1Zy_16wezterm_parallel7process13claude_healthNtB6_19ClaudeHealthMonitor27check_claude_responsiveness0Cs3bHImzPinI2_36claude_code_auto_startup_integration
FN:342,_RNvMs_NtNtCsezqlaDlZ1Zy_16wezterm_parallel7process13claude_healthNtB4_19ClaudeHealthMonitor13get_cpu_usage
FN:206,_RNvMs_NtNtCsezqlaDlZ1Zy_16wezterm_parallel7process13claude_healthNtB4_19ClaudeHealthMonitor14clone_for_task
FN:143,_RNvMs_NtNtCsezqlaDlZ1Zy_16wezterm_parallel7process13claude_healthNtB4_19ClaudeHealthMonitor15stop_monitoring
FN:169,_RNvMs_NtNtCsezqlaDlZ1Zy_16wezterm_parallel7process13claude_healthNtB4_19ClaudeHealthMonitor16get_health_state
FN:323,_RNvMs_NtNtCsezqlaDlZ1Zy_16wezterm_parallel7process13claude_healthNtB4_19ClaudeHealthMonitor16get_memory_usage
FN:101,_RNvMs_NtNtCsezqlaDlZ1Zy_16wezterm_parallel7process13claude_healthNtB4_19ClaudeHealthMonitor16start_monitoring
FN:425,_RNvMs_NtNtCsezqlaDlZ1Zy_16wezterm_parallel7process13claude_healthNtB4_19ClaudeHealthMonitor19update_health_state
FN:284,_RNvMs_NtNtCsezqlaDlZ1Zy_16wezterm_parallel7process13claude_healthNtB4_19ClaudeHealthMonitor20check_process_exists
FN:215,_RNvMs_NtNtCsezqlaDlZ1Zy_16wezterm_parallel7process13claude_healthNtB4_19ClaudeHealthMonitor20perform_health_check
FN:163,_RNvMs_NtNtCsezqlaDlZ1Zy_16wezterm_parallel7process13claude_healthNtB4_19ClaudeHealthMonitor21get_all_health_states
FN:190,_RNvMs_NtNtCsezqlaDlZ1Zy_16wezterm_parallel7process13claude_healthNtB4_19ClaudeHealthMonitor21spawn_monitoring_task
FN:377,_RNvMs_NtNtCsezqlaDlZ1Zy_16wezterm_parallel7process13claude_healthNtB4_19ClaudeHealthMonitor22evaluate_health_status
FN:175,_RNvMs_NtNtCsezqlaDlZ1Zy_16wezterm_parallel7process13claude_healthNtB4_19ClaudeHealthMonitor23get_unhealthy_processes
FN:361,_RNvMs_NtNtCsezqlaDlZ1Zy_16wezterm_parallel7process13claude_healthNtB4_19ClaudeHealthMonitor27calculate_avg_response_time
FN:295,_RNvMs_NtNtCsezqlaDlZ1Zy_16wezterm_parallel7process13claude_healthNtB4_19ClaudeHealthMonitor27check_claude_responsiveness
FN:92,_RNvMs_NtNtCsezqlaDlZ1Zy_16wezterm_parallel7process13claude_healthNtB4_19ClaudeHealthMonitor3new
FN:75,_RNvXNtNtCsezqlaDlZ1Zy_16wezterm_parallel7process13claude_healthNtB2_12HealthConfigNtNtCsd2KPTObkMr_4core7default7Default7default
FN:194,_RNCNCNvMs_NtNtCsezqlaDlZ1Zy_16wezterm_parallel7process13claude_healthNtB8_19ClaudeHealthMonitor21spawn_monitoring_task00Bc_
FN:179,_RNCNCNvMs_NtNtCsezqlaDlZ1Zy_16wezterm_parallel7process13claude_healthNtB8_19ClaudeHealthMonitor23get_unhealthy_processes00Bc_
FN:342,_RNCNvMs_NtNtCsezqlaDlZ1Zy_16wezterm_parallel7process13claude_healthNtB6_19ClaudeHealthMonitor13get_cpu_usage0Ba_
FN:143,_RNCNvMs_NtNtCsezqlaDlZ1Zy_16wezterm_parallel7process13claude_healthNtB6_19ClaudeHealthMonitor15stop_monitoring0Ba_
FN:169,_RNCNvMs_NtNtCsezqlaDlZ1Zy_16wezterm_parallel7process13claude_healthNtB6_19ClaudeHealthMonitor16get_health_state0Ba_
FN:323,_RNCNvMs_NtNtCsezqlaDlZ1Zy_16wezterm_parallel7process13claude_healthNtB6_19ClaudeHealthMonitor16get_memory_usage0Ba_
FN:106,_RNCNvMs_NtNtCsezqlaDlZ1Zy_16wezterm_parallel7process13claude_healthNtB6_19ClaudeHealthMonitor16start_monitoring0Ba_
FN:425,_RNCNvMs_NtNtCsezqlaDlZ1Zy_16wezterm_parallel7process13claude_healthNtB6_19ClaudeHealthMonitor19update_health_state0Ba_
FN:284,_RNCNvMs_NtNtCsezqlaDlZ1Zy_16wezterm_parallel7process13claude_healthNtB6_19ClaudeHealthMonitor20check_process_exists0Ba_
FN:215,_RNCNvMs_NtNtCsezqlaDlZ1Zy_16wezterm_parallel7process13claude_healthNtB6_19ClaudeHealthMonitor20perform_health_check0Ba_
FN:163,_RNCNvMs_NtNtCsezqlaDlZ1Zy_16wezterm_parallel7process13claude_healthNtB6_19ClaudeHealthMonitor21get_all_health_states0Ba_
FN:190,_RNCNvMs_NtNtCsezqlaDlZ1Zy_16wezterm_parallel7process13claude_healthNtB6_19ClaudeHealthMonitor21spawn_monitoring_task0Ba_
FN:175,_RNCNvMs_NtNtCsezqlaDlZ1Zy_16wezterm_parallel7process13claude_healthNtB6_19ClaudeHealthMonitor23get_unhealthy_processes0Ba_
FN:295,_RNCNvMs_NtNtCsezqlaDlZ1Zy_16wezterm_parallel7process13claude_healthNtB6_19ClaudeHealthMonitor27check_claude_responsiveness0Ba_
FN:476,_RNCNvNtNtNtCsbBf3qmLqCJ0_16wezterm_parallel7process13claude_health5testss_20test_stop_monitoring0B9_
FN:454,_RNCNvNtNtNtCsbBf3qmLqCJ0_16wezterm_parallel7process13claude_health5testss_21test_start_monitoring0B9_
FN:496,_RNCNvNtNtNtCsbBf3qmLqCJ0_16wezterm_parallel7process13claude_health5testss_27test_evaluate_health_status0B9_
FN:445,_RNCNvNtNtNtCsbBf3qmLqCJ0_16wezterm_parallel7process13claude_health5testss_27test_health_config_defaults0B9_
FN:438,_RNCNvNtNtNtCsbBf3qmLqCJ0_16wezterm_parallel7process13claude_health5testss_28test_health_monitor_creation0B9_
FN:530,_RNCNvNtNtNtCsbBf3qmLqCJ0_16wezterm_parallel7process13claude_health5testss_32test_calculate_avg_response_time0B9_
FN:179,_RNCNCNvMs_NtNtCsbBf3qmLqCJ0_16wezterm_parallel7process13claude_healthNtB8_19ClaudeHealthMonitor23get_unhealthy_processes00Bc_
FN:169,_RNCNvMs_NtNtCsbBf3qmLqCJ0_16wezterm_parallel7process13claude_healthNtB6_19ClaudeHealthMonitor16get_health_state0Ba_
FN:175,_RNCNvMs_NtNtCsbBf3qmLqCJ0_16wezterm_parallel7process13claude_healthNtB6_19ClaudeHealthMonitor23get_unhealthy_processes0Ba_
FN:169,_RNvMs_NtNtCsbBf3qmLqCJ0_16wezterm_parallel7process13claude_healthNtB4_19ClaudeHealthMonitor16get_health_state
FN:175,_RNvMs_NtNtCsbBf3qmLqCJ0_16wezterm_parallel7process13claude_healthNtB4_19ClaudeHealthMonitor23get_unhealthy_processes
FN:342,_RNvMs_NtNtCsbBf3qmLqCJ0_16wezterm_parallel7process13claude_healthNtB4_19ClaudeHealthMonitor13get_cpu_usage
FN:206,_RNvMs_NtNtCsbBf3qmLqCJ0_16wezterm_parallel7process13claude_healthNtB4_19ClaudeHealthMonitor14clone_for_task
FN:143,_RNvMs_NtNtCsbBf3qmLqCJ0_16wezterm_parallel7process13claude_healthNtB4_19ClaudeHealthMonitor15stop_monitoring
FN:323,_RNvMs_NtNtCsbBf3qmLqCJ0_16wezterm_parallel7process13claude_healthNtB4_19ClaudeHealthMonitor16get_memory_usage
FN:101,_RNvMs_NtNtCsbBf3qmLqCJ0_16wezterm_parallel7process13claude_healthNtB4_19ClaudeHealthMonitor16start_monitoring
FN:425,_RNvMs_NtNtCsbBf3qmLqCJ0_16wezterm_parallel7process13claude_healthNtB4_19ClaudeHealthMonitor19update_health_state
FN:284,_RNvMs_NtNtCsbBf3qmLqCJ0_16wezterm_parallel7process13claude_healthNtB4_19ClaudeHealthMonitor20check_process_exists
FN:215,_RNvMs_NtNtCsbBf3qmLqCJ0_16wezterm_parallel7process13claude_healthNtB4_19ClaudeHealthMonitor20perform_health_check
FN:163,_RNvMs_NtNtCsbBf3qmLqCJ0_16wezterm_parallel7process13claude_healthNtB4_19ClaudeHealthMonitor21get_all_health_states
FN:190,_RNvMs_NtNtCsbBf3qmLqCJ0_16wezterm_parallel7process13claude_healthNtB4_19ClaudeHealthMonitor21spawn_monitoring_task
FN:377,_RNvMs_NtNtCsbBf3qmLqCJ0_16wezterm_parallel7process13claude_healthNtB4_19ClaudeHealthMonitor22evaluate_health_status
FN:361,_RNvMs_NtNtCsbBf3qmLqCJ0_16wezterm_parallel7process13claude_healthNtB4_19ClaudeHealthMonitor27calculate_avg_response_time
FN:295,_RNvMs_NtNtCsbBf3qmLqCJ0_16wezterm_parallel7process13claude_healthNtB4_19ClaudeHealthMonitor27check_claude_responsiveness
FN:92,_RNvMs_NtNtCsbBf3qmLqCJ0_16wezterm_parallel7process13claude_healthNtB4_19ClaudeHealthMonitor3new
FN:75,_RNvXNtNtCsbBf3qmLqCJ0_16wezterm_parallel7process13claude_healthNtB2_12HealthConfigNtNtCsd2KPTObkMr_4core7default7Default7default
FN:476,_RNvNtNtNtCsbBf3qmLqCJ0_16wezterm_parallel7process13claude_health5testss_20test_stop_monitoring
FN:454,_RNvNtNtNtCsbBf3qmLqCJ0_16wezterm_parallel7process13claude_health5testss_21test_start_monitoring
FN:496,_RNvNtNtNtCsbBf3qmLqCJ0_16wezterm_parallel7process13claude_health5testss_27test_evaluate_health_status
FN:445,_RNvNtNtNtCsbBf3qmLqCJ0_16wezterm_parallel7process13claude_health5testss_27test_health_config_defaults
FN:438,_RNvNtNtNtCsbBf3qmLqCJ0_16wezterm_parallel7process13claude_health5testss_28test_health_monitor_creation
FN:530,_RNvNtNtNtCsbBf3qmLqCJ0_16wezterm_parallel7process13claude_health5testss_32test_calculate_avg_response_time
FN:194,_RNCNCNvMs_NtNtCsbBf3qmLqCJ0_16wezterm_parallel7process13claude_healthNtB8_19ClaudeHealthMonitor21spawn_monitoring_task00Bc_
FN:342,_RNCNvMs_NtNtCsbBf3qmLqCJ0_16wezterm_parallel7process13claude_healthNtB6_19ClaudeHealthMonitor13get_cpu_usage0Ba_
FN:143,_RNCNvMs_NtNtCsbBf3qmLqCJ0_16wezterm_parallel7process13claude_healthNtB6_19ClaudeHealthMonitor15stop_monitoring0Ba_
FN:323,_RNCNvMs_NtNtCsbBf3qmLqCJ0_16wezterm_parallel7process13claude_healthNtB6_19ClaudeHealthMonitor16get_memory_usage0Ba_
FN:106,_RNCNvMs_NtNtCsbBf3qmLqCJ0_16wezterm_parallel7process13claude_healthNtB6_19ClaudeHealthMonitor16start_monitoring0Ba_
FN:425,_RNCNvMs_NtNtCsbBf3qmLqCJ0_16wezterm_parallel7process13claude_healthNtB6_19ClaudeHealthMonitor19update_health_state0Ba_
FN:284,_RNCNvMs_NtNtCsbBf3qmLqCJ0_16wezterm_parallel7process13claude_healthNtB6_19ClaudeHealthMonitor20check_process_exists0Ba_
FN:215,_RNCNvMs_NtNtCsbBf3qmLqCJ0_16wezterm_parallel7process13claude_healthNtB6_19ClaudeHealthMonitor20perform_health_check0Ba_
FN:163,_RNCNvMs_NtNtCsbBf3qmLqCJ0_16wezterm_parallel7process13claude_healthNtB6_19ClaudeHealthMonitor21get_all_health_states0Ba_
FN:190,_RNCNvMs_NtNtCsbBf3qmLqCJ0_16wezterm_parallel7process13claude_healthNtB6_19ClaudeHealthMonitor21spawn_monitoring_task0Ba_
FN:295,_RNCNvMs_NtNtCsbBf3qmLqCJ0_16wezterm_parallel7process13claude_healthNtB6_19ClaudeHealthMonitor27check_claude_responsiveness0Ba_
FNDA:0,_RNCNCNvMs_NtNtCsezqlaDlZ1Zy_16wezterm_parallel7process13claude_healthNtB8_19ClaudeHealthMonitor21spawn_monitoring_task00Cs3bHImzPinI2_36claude_code_auto_startup_integration
FNDA:0,_RNCNvMs_NtNtCsezqlaDlZ1Zy_16wezterm_parallel7process13claude_healthNtB6_19ClaudeHealthMonitor13get_cpu_usage0Cs3bHImzPinI2_36claude_code_auto_startup_integration
FNDA:8,_RNCNvMs_NtNtCsezqlaDlZ1Zy_16wezterm_parallel7process13claude_healthNtB6_19ClaudeHealthMonitor15stop_monitoring0Cs3bHImzPinI2_36claude_code_auto_startup_integration
FNDA:0,_RNCNvMs_NtNtCsezqlaDlZ1Zy_16wezterm_parallel7process13claude_healthNtB6_19ClaudeHealthMonitor16get_memory_usage0Cs3bHImzPinI2_36claude_code_auto_startup_integration
FNDA:7,_RNCNvMs_NtNtCsezqlaDlZ1Zy_16wezterm_parallel7process13claude_healthNtB6_19ClaudeHealthMonitor16start_monitoring0Cs3bHImzPinI2_36claude_code_auto_startup_integration
FNDA:0,_RNCNvMs_NtNtCsezqlaDlZ1Zy_16wezterm_parallel7process13claude_healthNtB6_19ClaudeHealthMonitor19update_health_state0Cs3bHImzPinI2_36claude_code_auto_startup_integration
FNDA:0,_RNCNvMs_NtNtCsezqlaDlZ1Zy_16wezterm_parallel7process13claude_healthNtB6_19ClaudeHealthMonitor20check_process_exists0Cs3bHImzPinI2_36claude_code_auto_startup_integration
FNDA:0,_RNCNvMs_NtNtCsezqlaDlZ1Zy_16wezterm_parallel7process13claude_healthNtB6_19ClaudeHealthMonitor20perform_health_check0Cs3bHImzPinI2_36claude_code_auto_startup_integration
FNDA:4,_RNCNvMs_NtNtCsezqlaDlZ1Zy_16wezterm_parallel7process13claude_healthNtB6_19ClaudeHealthMonitor21get_all_health_states0Cs3bHImzPinI2_36claude_code_auto_startup_integration
FNDA:7,_RNCNvMs_NtNtCsezqlaDlZ1Zy_16wezterm_parallel7process13claude_healthNtB6_19ClaudeHealthMonitor21spawn_monitoring_task0Cs3bHImzPinI2_36claude_code_auto_startup_integration
FNDA:0,_RNCNvMs_NtNtCsezqlaDlZ1Zy_16wezterm_parallel7process13claude_healthNtB6_19ClaudeHealthMonitor27check_claude_responsiveness0Cs3bHImzPinI2_36claude_code_auto_startup_integration
FNDA:0,_RNvMs_NtNtCsezqlaDlZ1Zy_16wezterm_parallel7process13claude_healthNtB4_19ClaudeHealthMonitor13get_cpu_usage
FNDA:7,_RNvMs_NtNtCsezqlaDlZ1Zy_16wezterm_parallel7process13claude_healthNtB4_19ClaudeHealthMonitor14clone_for_task
FNDA:8,_RNvMs_NtNtCsezqlaDlZ1Zy_16wezterm_parallel7process13claude_healthNtB4_19ClaudeHealthMonitor15stop_monitoring
FNDA:0,_RNvMs_NtNtCsezqlaDlZ1Zy_16wezterm_parallel7process13claude_healthNtB4_19ClaudeHealthMonitor16get_health_state
FNDA:0,_RNvMs_NtNtCsezqlaDlZ1Zy_16wezterm_parallel7process13claude_healthNtB4_19ClaudeHealthMonitor16get_memory_usage
FNDA:7,_RNvMs_NtNtCsezqlaDlZ1Zy_16wezterm_parallel7process13claude_healthNtB4_19ClaudeHealthMonitor16start_monitoring
FNDA:0,_RNvMs_NtNtCsezqlaDlZ1Zy_16wezterm_parallel7process13claude_healthNtB4_19ClaudeHealthMonitor19update_health_state
FNDA:0,_RNvMs_NtNtCsezqlaDlZ1Zy_16wezterm_parallel7process13claude_healthNtB4_19ClaudeHealthMonitor20check_process_exists
FNDA:0,_RNvMs_NtNtCsezqlaDlZ1Zy_16wezterm_parallel7process13claude_healthNtB4_19ClaudeHealthMonitor20perform_health_check
FNDA:4,_RNvMs_NtNtCsezqlaDlZ1Zy_16wezterm_parallel7process13claude_healthNtB4_19ClaudeHealthMonitor21get_all_health_states
FNDA:7,_RNvMs_NtNtCsezqlaDlZ1Zy_16wezterm_parallel7process13claude_healthNtB4_19ClaudeHealthMonitor21spawn_monitoring_task
FNDA:0,_RNvMs_NtNtCsezqlaDlZ1Zy_16wezterm_parallel7process13claude_healthNtB4_19ClaudeHealthMonitor22evaluate_health_status
FNDA:0,_RNvMs_NtNtCsezqlaDlZ1Zy_16wezterm_parallel7process13claude_healthNtB4_19ClaudeHealthMonitor23get_unhealthy_processes
FNDA:0,_RNvMs_NtNtCsezqlaDlZ1Zy_16wezterm_parallel7process13claude_healthNtB4_19ClaudeHealthMonitor27calculate_avg_response_time
FNDA:0,_RNvMs_NtNtCsezqlaDlZ1Zy_16wezterm_parallel7process13claude_healthNtB4_19ClaudeHealthMonitor27check_claude_responsiveness
FNDA:6,_RNvMs_NtNtCsezqlaDlZ1Zy_16wezterm_parallel7process13claude_healthNtB4_19ClaudeHealthMonitor3new
FNDA:6,_RNvXNtNtCsezqlaDlZ1Zy_16wezterm_parallel7process13claude_healthNtB2_12HealthConfigNtNtCsd2KPTObkMr_4core7default7Default7default
FNDA:0,_RNCNCNvMs_NtNtCsezqlaDlZ1Zy_16wezterm_parallel7process13claude_healthNtB8_19ClaudeHealthMonitor21spawn_monitoring_task00Bc_
FNDA:0,_RNCNCNvMs_NtNtCsezqlaDlZ1Zy_16wezterm_parallel7process13claude_healthNtB8_19ClaudeHealthMonitor23get_unhealthy_processes00Bc_
FNDA:0,_RNCNvMs_NtNtCsezqlaDlZ1Zy_16wezterm_parallel7process13claude_healthNtB6_19ClaudeHealthMonitor13get_cpu_usage0Ba_
FNDA:0,_RNCNvMs_NtNtCsezqlaDlZ1Zy_16wezterm_parallel7process13claude_healthNtB6_19ClaudeHealthMonitor15stop_monitoring0Ba_
FNDA:0,_RNCNvMs_NtNtCsezqlaDlZ1Zy_16wezterm_parallel7process13claude_healthNtB6_19ClaudeHealthMonitor16get_health_state0Ba_
FNDA:0,_RNCNvMs_NtNtCsezqlaDlZ1Zy_16wezterm_parallel7process13claude_healthNtB6_19ClaudeHealthMonitor16get_memory_usage0Ba_
FNDA:0,_RNCNvMs_NtNtCsezqlaDlZ1Zy_16wezterm_parallel7process13claude_healthNtB6_19ClaudeHealthMonitor16start_monitoring0Ba_
FNDA:0,_RNCNvMs_NtNtCsezqlaDlZ1Zy_16wezterm_parallel7process13claude_healthNtB6_19ClaudeHealthMonitor19update_health_state0Ba_
FNDA:0,_RNCNvMs_NtNtCsezqlaDlZ1Zy_16wezterm_parallel7process13claude_healthNtB6_19ClaudeHealthMonitor20check_process_exists0Ba_
FNDA:0,_RNCNvMs_NtNtCsezqlaDlZ1Zy_16wezterm_parallel7process13claude_healthNtB6_19ClaudeHealthMonitor20perform_health_check0Ba_
FNDA:0,_RNCNvMs_NtNtCsezqlaDlZ1Zy_16wezterm_parallel7process13claude_healthNtB6_19ClaudeHealthMonitor21get_all_health_states0Ba_
FNDA:0,_RNCNvMs_NtNtCsezqlaDlZ1Zy_16wezterm_parallel7process13claude_healthNtB6_19ClaudeHealthMonitor21spawn_monitoring_task0Ba_
FNDA:0,_RNCNvMs_NtNtCsezqlaDlZ1Zy_16wezterm_parallel7process13claude_healthNtB6_19ClaudeHealthMonitor23get_unhealthy_processes0Ba_
FNDA:0,_RNCNvMs_NtNtCsezqlaDlZ1Zy_16wezterm_parallel7process13claude_healthNtB6_19ClaudeHealthMonitor27check_claude_responsiveness0Ba_
FNDA:1,_RNCNvNtNtNtCsbBf3qmLqCJ0_16wezterm_parallel7process13claude_health5testss_20test_stop_monitoring0B9_
FNDA:1,_RNCNvNtNtNtCsbBf3qmLqCJ0_16wezterm_parallel7process13claude_health5testss_21test_start_monitoring0B9_
FNDA:1,_RNCNvNtNtNtCsbBf3qmLqCJ0_16wezterm_parallel7process13claude_health5testss_27test_evaluate_health_status0B9_
FNDA:1,_RNCNvNtNtNtCsbBf3qmLqCJ0_16wezterm_parallel7process13claude_health5testss_27test_health_config_defaults0B9_
FNDA:1,_RNCNvNtNtNtCsbBf3qmLqCJ0_16wezterm_parallel7process13claude_health5testss_28test_health_monitor_creation0B9_
FNDA:1,_RNCNvNtNtNtCsbBf3qmLqCJ0_16wezterm_parallel7process13claude_health5testss_32test_calculate_avg_response_time0B9_
FNDA:0,_RNCNCNvMs_NtNtCsbBf3qmLqCJ0_16wezterm_parallel7process13claude_healthNtB8_19ClaudeHealthMonitor23get_unhealthy_processes00Bc_
FNDA:0,_RNCNvMs_NtNtCsbBf3qmLqCJ0_16wezterm_parallel7process13claude_healthNtB6_19ClaudeHealthMonitor16get_health_state0Ba_
FNDA:0,_RNCNvMs_NtNtCsbBf3qmLqCJ0_16wezterm_parallel7process13claude_healthNtB6_19ClaudeHealthMonitor23get_unhealthy_processes0Ba_
FNDA:0,_RNvMs_NtNtCsbBf3qmLqCJ0_16wezterm_parallel7process13claude_healthNtB4_19ClaudeHealthMonitor16get_health_state
FNDA:0,_RNvMs_NtNtCsbBf3qmLqCJ0_16wezterm_parallel7process13claude_healthNtB4_19ClaudeHealthMonitor23get_unhealthy_processes
FNDA:0,_RNvMs_NtNtCsbBf3qmLqCJ0_16wezterm_parallel7process13claude_healthNtB4_19ClaudeHealthMonitor13get_cpu_usage
FNDA:2,_RNvMs_NtNtCsbBf3qmLqCJ0_16wezterm_parallel7process13claude_healthNtB4_19ClaudeHealthMonitor14clone_for_task
FNDA:1,_RNvMs_NtNtCsbBf3qmLqCJ0_16wezterm_parallel7process13claude_healthNtB4_19ClaudeHealthMonitor15stop_monitoring
FNDA:0,_RNvMs_NtNtCsbBf3qmLqCJ0_16wezterm_parallel7process13claude_healthNtB4_19ClaudeHealthMonitor16get_memory_usage
FNDA:2,_RNvMs_NtNtCsbBf3qmLqCJ0_16wezterm_parallel7process13claude_healthNtB4_19ClaudeHealthMonitor16start_monitoring
FNDA:0,_RNvMs_NtNtCsbBf3qmLqCJ0_16wezterm_parallel7process13claude_healthNtB4_19ClaudeHealthMonitor19update_health_state
FNDA:0,_RNvMs_NtNtCsbBf3qmLqCJ0_16wezterm_parallel7process13claude_healthNtB4_19ClaudeHealthMonitor20check_process_exists
FNDA:0,_RNvMs_NtNtCsbBf3qmLqCJ0_16wezterm_parallel7process13claude_healthNtB4_19ClaudeHealthMonitor20perform_health_check
FNDA:3,_RNvMs_NtNtCsbBf3qmLqCJ0_16wezterm_parallel7process13claude_healthNtB4_19ClaudeHealthMonitor21get_all_health_states
FNDA:2,_RNvMs_NtNtCsbBf3qmLqCJ0_16wezterm_parallel7process13claude_healthNtB4_19ClaudeHealthMonitor21spawn_monitoring_task
FNDA:3,_RNvMs_NtNtCsbBf3qmLqCJ0_16wezterm_parallel7process13claude_healthNtB4_19ClaudeHealthMonitor22evaluate_health_status
FNDA:2,_RNvMs_NtNtCsbBf3qmLqCJ0_16wezterm_parallel7process13claude_healthNtB4_19ClaudeHealthMonitor27calculate_avg_response_time
FNDA:0,_RNvMs_NtNtCsbBf3qmLqCJ0_16wezterm_parallel7process13claude_healthNtB4_19ClaudeHealthMonitor27check_claude_responsiveness
FNDA:5,_RNvMs_NtNtCsbBf3qmLqCJ0_16wezterm_parallel7process13claude_healthNtB4_19ClaudeHealthMonitor3new
FNDA:6,_RNvXNtNtCsbBf3qmLqCJ0_16wezterm_parallel7process13claude_healthNtB2_12HealthConfigNtNtCsd2KPTObkMr_4core7default7Default7default
FNDA:1,_RNvNtNtNtCsbBf3qmLqCJ0_16wezterm_parallel7process13claude_health5testss_20test_stop_monitoring
FNDA:1,_RNvNtNtNtCsbBf3qmLqCJ0_16wezterm_parallel7process13claude_health5testss_21test_start_monitoring
FNDA:1,_RNvNtNtNtCsbBf3qmLqCJ0_16wezterm_parallel7process13claude_health5testss_27test_evaluate_health_status
FNDA:1,_RNvNtNtNtCsbBf3qmLqCJ0_16wezterm_parallel7process13claude_health5testss_27test_health_config_defaults
FNDA:1,_RNvNtNtNtCsbBf3qmLqCJ0_16wezterm_parallel7process13claude_health5testss_28test_health_monitor_creation
FNDA:1,_RNvNtNtNtCsbBf3qmLqCJ0_16wezterm_parallel7process13claude_health5testss_32test_calculate_avg_response_time
FNDA:0,_RNCNCNvMs_NtNtCsbBf3qmLqCJ0_16wezterm_parallel7process13claude_healthNtB8_19ClaudeHealthMonitor21spawn_monitoring_task00Bc_
FNDA:0,_RNCNvMs_NtNtCsbBf3qmLqCJ0_16wezterm_parallel7process13claude_healthNtB6_19ClaudeHealthMonitor13get_cpu_usage0Ba_
FNDA:1,_RNCNvMs_NtNtCsbBf3qmLqCJ0_16wezterm_parallel7process13claude_healthNtB6_19ClaudeHealthMonitor15stop_monitoring0Ba_
FNDA:0,_RNCNvMs_NtNtCsbBf3qmLqCJ0_16wezterm_parallel7process13claude_healthNtB6_19ClaudeHealthMonitor16get_memory_usage0Ba_
FNDA:2,_RNCNvMs_NtNtCsbBf3qmLqCJ0_16wezterm_parallel7process13claude_healthNtB6_19ClaudeHealthMonitor16start_monitoring0Ba_
FNDA:0,_RNCNvMs_NtNtCsbBf3qmLqCJ0_16wezterm_parallel7process13claude_healthNtB6_19ClaudeHealthMonitor19update_health_state0Ba_
FNDA:0,_RNCNvMs_NtNtCsbBf3qmLqCJ0_16wezterm_parallel7process13claude_healthNtB6_19ClaudeHealthMonitor20check_process_exists0Ba_
FNDA:0,_RNCNvMs_NtNtCsbBf3qmLqCJ0_16wezterm_parallel7process13claude_healthNtB6_19ClaudeHealthMonitor20perform_health_check0Ba_
FNDA:3,_RNCNvMs_NtNtCsbBf3qmLqCJ0_16wezterm_parallel7process13claude_healthNtB6_19ClaudeHealthMonitor21get_all_health_states0Ba_
FNDA:2,_RNCNvMs_NtNtCsbBf3qmLqCJ0_16wezterm_parallel7process13claude_healthNtB6_19ClaudeHealthMonitor21spawn_monitoring_task0Ba_
FNDA:0,_RNCNvMs_NtNtCsbBf3qmLqCJ0_16wezterm_parallel7process13claude_healthNtB6_19ClaudeHealthMonitor27check_claude_responsiveness0Ba_
FNF:43
FNH:25
DA:75,12
DA:76,12
DA:77,12
DA:78,12
DA:79,12
DA:80,12
DA:81,12
DA:82,12
DA:83,12
DA:84,12
DA:85,12
DA:86,12
DA:87,12
DA:92,11
DA:93,11
DA:94,11
DA:95,11
DA:96,11
DA:97,11
DA:98,11
DA:101,9
DA:102,9
DA:103,9
DA:104,9
DA:105,9
DA:106,9
DA:107,9
DA:108,9
DA:109,9
DA:110,9
DA:111,9
DA:112,9
DA:113,9
DA:114,9
DA:115,9
DA:116,9
DA:117,9
DA:118,9
DA:119,9
DA:120,9
DA:121,9
DA:122,9
DA:126,9
DA:127,9
DA:131,9
DA:134,9
DA:135,9
DA:138,9
DA:139,9
DA:140,9
DA:143,9
DA:146,9
DA:147,9
DA:148,8
DA:149,8
DA:154,9
DA:155,9
DA:158,9
DA:159,9
DA:160,9
DA:163,7
DA:164,7
DA:165,7
DA:166,7
DA:169,0
DA:170,0
DA:171,0
DA:172,0
DA:175,0
DA:176,0
DA:177,0
DA:178,0
DA:179,0
DA:180,0
DA:181,0
DA:184,0
DA:185,0
DA:186,0
DA:187,0
DA:190,9
DA:191,9
DA:192,9
DA:194,9
DA:196,0
DA:197,0
DA:198,0
DA:200,0
DA:203,9
DA:206,9
DA:207,9
DA:208,9
DA:209,9
DA:210,9
DA:211,9
DA:212,9
DA:215,0
DA:216,0
DA:219,0
DA:220,0
DA:221,0
DA:222,0
DA:223,0
DA:227,0
DA:228,0
DA:231,0
DA:232,0
DA:234,0
DA:237,0
DA:238,0
DA:239,0
DA:240,0
DA:241,0
DA:242,0
DA:243,0
DA:246,0
DA:249,0
DA:250,0
DA:251,0
DA:252,0
DA:255,0
DA:256,0
DA:257,0
DA:258,0
DA:259,0
DA:260,0
DA:263,0
DA:264,0
DA:267,0
DA:268,0
DA:269,0
DA:270,0
DA:271,0
DA:272,0
DA:273,0
DA:276,0
DA:277,0
DA:279,0
DA:280,0
DA:281,0
DA:284,0
DA:285,0
DA:286,0
DA:287,0
DA:288,0
DA:289,0
DA:291,0
DA:292,0
DA:295,0
DA:300,0
DA:302,0
DA:303,0
DA:304,0
DA:305,0
DA:306,0
DA:307,0
DA:308,0
DA:310,0
DA:311,0
DA:312,0
DA:314,0
DA:315,0
DA:316,0
DA:317,0
DA:319,0
DA:320,0
DA:323,0
DA:324,0
DA:325,0
DA:326,0
DA:327,0
DA:328,0
DA:329,0
DA:330,0
DA:332,0
DA:333,0
DA:334,0
DA:335,0
DA:337,0
DA:339,0
DA:342,0
DA:343,0
DA:344,0
DA:345,0
DA:346,0
DA:347,0
DA:348,0
DA:349,0
DA:351,0
DA:352,0
DA:353,0
DA:354,0
DA:356,0
DA:358,0
DA:361,2
DA:362,2
DA:363,2
DA:364,2
DA:365,2
DA:366,2
DA:367,2
DA:368,1
DA:370,1
DA:371,1
DA:372,1
DA:374,2
DA:377,3
DA:378,3
DA:379,3
DA:380,3
DA:381,3
DA:382,3
DA:384,3
DA:385,1
DA:386,2
DA:389,2
DA:390,2
DA:391,0
DA:392,2
DA:393,2
DA:394,1
DA:395,1
DA:396,0
DA:399,1
DA:400,1
DA:401,0
DA:402,1
DA:403,1
DA:404,0
DA:405,1
DA:406,0
DA:409,1
DA:410,0
DA:411,1
DA:412,1
DA:413,0
DA:414,1
DA:417,1
DA:418,0
DA:419,1
DA:421,1
DA:422,3
DA:425,0
DA:426,0
DA:427,0
DA:428,0
DA:429,0
DA:438,1
DA:439,1
DA:440,1
DA:441,1
DA:442,1
DA:445,1
DA:446,1
DA:447,1
DA:448,1
DA:449,1
DA:450,1
DA:451,1
DA:454,1
DA:455,1
DA:456,1
DA:457,1
DA:458,1
DA:459,1
DA:460,1
DA:461,1
DA:462,1
DA:464,1
DA:466,1
DA:467,1
DA:469,1
DA:470,1
DA:471,1
DA:472,1
DA:473,1
DA:476,1
DA:477,1
DA:479,1
DA:480,1
DA:481,1
DA:482,1
DA:483,1
DA:484,1
DA:485,1
DA:486,1
DA:488,1
DA:489,1
DA:491,1
DA:492,1
DA:493,1
DA:496,1
DA:497,1
DA:498,1
DA:499,1
DA:500,1
DA:501,1
DA:502,1
DA:503,1
DA:504,1
DA:505,1
DA:506,1
DA:507,1
DA:508,1
DA:509,1
DA:510,1
DA:511,1
DA:512,1
DA:513,1
DA:516,1
DA:517,1
DA:520,1
DA:521,1
DA:522,1
DA:525,1
DA:526,1
DA:527,1
DA:530,1
DA:531,1
DA:534,1
DA:535,1
DA:536,1
DA:539,1
DA:542,1
DA:543,1
DA:544,1
DA:547,1
DA:548,1
BRF:0
BRH:0
LF:353
LH:213
end_of_record
SF:/Users/aiq/work/wezterm-parallel/src/process/claude_logger.rs
FN:530,_RNCNCNvMs_NtNtCsezqlaDlZ1Zy_16wezterm_parallel7process13claude_loggerNtB8_12ClaudeLogger17cleanup_old_files00Cs3bHImzPinI2_36claude_code_auto_startup_integration
FN:560,_RNCNCNvMs_NtNtCsezqlaDlZ1Zy_16wezterm_parallel7process13claude_loggerNtB8_12ClaudeLogger18get_log_statistics00Cs3bHImzPinI2_36claude_code_auto_startup_integration
FN:175,_RNCNCNvMs_NtNtCsezqlaDlZ1Zy_16wezterm_parallel7process13claude_loggerNtB8_12ClaudeLogger5start00Cs3bHImzPinI2_36claude_code_auto_startup_integration
FN:184,_RNCNCNvMs_NtNtCsezqlaDlZ1Zy_16wezterm_parallel7process13claude_loggerNtB8_12ClaudeLogger5start0s_0Cs3bHImzPinI2_36claude_code_auto_startup_integration
FN:497,_RNCNvMs_NtNtCsezqlaDlZ1Zy_16wezterm_parallel7process13claude_loggerNtB6_12ClaudeLogger11rotate_logs0Cs3bHImzPinI2_36claude_code_auto_startup_integration
FN:465,_RNCNvMs_NtNtCsezqlaDlZ1Zy_16wezterm_parallel7process13claude_loggerNtB6_12ClaudeLogger13rotate_stream0Cs3bHImzPinI2_36claude_code_auto_startup_integration
FN:354,_RNCNvMs_NtNtCsezqlaDlZ1Zy_16wezterm_parallel7process13claude_loggerNtB6_12ClaudeLogger14clone_for_task0Cs3bHImzPinI2_36claude_code_auto_startup_integration
FN:379,_RNCNvMs_NtNtCsezqlaDlZ1Zy_16wezterm_parallel7process13claude_loggerNtB6_12ClaudeLogger15write_log_entry0Cs3bHImzPinI2_36claude_code_auto_startup_integration
FN:513,_RNCNvMs_NtNtCsezqlaDlZ1Zy_16wezterm_parallel7process13claude_loggerNtB6_12ClaudeLogger17cleanup_old_files0Cs3bHImzPinI2_36claude_code_auto_startup_integration
FN:547,_RNCNvMs_NtNtCsezqlaDlZ1Zy_16wezterm_parallel7process13claude_loggerNtB6_12ClaudeLogger17flush_all_streams0Cs3bHImzPinI2_36claude_code_auto_startup_integration
FN:556,_RNCNvMs_NtNtCsezqlaDlZ1Zy_16wezterm_parallel7process13claude_loggerNtB6_12ClaudeLogger18get_log_statistics0Cs3bHImzPinI2_36claude_code_auto_startup_integration
FN:370,_RNCNvMs_NtNtCsezqlaDlZ1Zy_16wezterm_parallel7process13claude_loggerNtB6_12ClaudeLogger19process_log_entries0Cs3bHImzPinI2_36claude_code_auto_startup_integration
FN:254,_RNCNvMs_NtNtCsezqlaDlZ1Zy_16wezterm_parallel7process13claude_loggerNtB6_12ClaudeLogger20stop_logging_process0Cs3bHImzPinI2_36claude_code_auto_startup_integration
FN:217,_RNCNvMs_NtNtCsezqlaDlZ1Zy_16wezterm_parallel7process13claude_loggerNtB6_12ClaudeLogger21start_logging_process0Cs3bHImzPinI2_36claude_code_auto_startup_integration
FN:200,_RNCNvMs_NtNtCsezqlaDlZ1Zy_16wezterm_parallel7process13claude_loggerNtB6_12ClaudeLogger4stop0Cs3bHImzPinI2_36claude_code_auto_startup_integration
FN:171,_RNCNvMs_NtNtCsezqlaDlZ1Zy_16wezterm_parallel7process13claude_loggerNtB6_12ClaudeLogger5start0Cs3bHImzPinI2_36claude_code_auto_startup_integration
FN:316,_RNCNvMs_NtNtCsezqlaDlZ1Zy_16wezterm_parallel7process13claude_loggerNtB6_12ClaudeLogger14log_debug_info0Ba_
FN:418,_RNCNvMs_NtNtCsezqlaDlZ1Zy_16wezterm_parallel7process13claude_loggerNtB6_12ClaudeLogger16format_log_entry0Ba_
FN:267,_RNCNvMs_NtNtCsezqlaDlZ1Zy_16wezterm_parallel7process13claude_loggerNtB6_12ClaudeLogger3log0Ba_
FN:132,_RNCNvXNtNtCsezqlaDlZ1Zy_16wezterm_parallel7process13claude_loggerNtB4_9LogConfigNtNtCsd2KPTObkMr_4core7default7Default7default0B8_
FN:497,_RNvMs_NtNtCsezqlaDlZ1Zy_16wezterm_parallel7process13claude_loggerNtB4_12ClaudeLogger11rotate_logs
FN:465,_RNvMs_NtNtCsezqlaDlZ1Zy_16wezterm_parallel7process13claude_loggerNtB4_12ClaudeLogger13rotate_stream
FN:354,_RNvMs_NtNtCsezqlaDlZ1Zy_16wezterm_parallel7process13claude_loggerNtB4_12ClaudeLogger14clone_for_task
FN:301,_RNvMs_NtNtCsezqlaDlZ1Zy_16wezterm_parallel7process13claude_loggerNtB4_12ClaudeLogger14log_debug_info
FN:443,_RNvMs_NtNtCsezqlaDlZ1Zy_16wezterm_parallel7process13claude_loggerNtB4_12ClaudeLogger15level_to_string
FN:325,_RNvMs_NtNtCsezqlaDlZ1Zy_16wezterm_parallel7process13claude_loggerNtB4_12ClaudeLogger15log_health_info
FN:379,_RNvMs_NtNtCsezqlaDlZ1Zy_16wezterm_parallel7process13claude_loggerNtB4_12ClaudeLogger15write_log_entry
FN:407,_RNvMs_NtNtCsezqlaDlZ1Zy_16wezterm_parallel7process13claude_loggerNtB4_12ClaudeLogger16format_log_entry
FN:454,_RNvMs_NtNtCsezqlaDlZ1Zy_16wezterm_parallel7process13claude_loggerNtB4_12ClaudeLogger16source_to_string
FN:513,_RNvMs_NtNtCsezqlaDlZ1Zy_16wezterm_parallel7process13claude_loggerNtB4_12ClaudeLogger17cleanup_old_files
FN:547,_RNvMs_NtNtCsezqlaDlZ1Zy_16wezterm_parallel7process13claude_loggerNtB4_12ClaudeLogger17flush_all_streams
FN:346,_RNvMs_NtNtCsezqlaDlZ1Zy_16wezterm_parallel7process13claude_loggerNtB4_12ClaudeLogger17get_log_file_path
FN:271,_RNvMs_NtNtCsezqlaDlZ1Zy_16wezterm_parallel7process13claude_loggerNtB4_12ClaudeLogger17log_claude_output
FN:556,_RNvMs_NtNtCsezqlaDlZ1Zy_16wezterm_parallel7process13claude_loggerNtB4_12ClaudeLogger18get_log_statistics
FN:370,_RNvMs_NtNtCsezqlaDlZ1Zy_16wezterm_parallel7process13claude_loggerNtB4_12ClaudeLogger19process_log_entries
FN:254,_RNvMs_NtNtCsezqlaDlZ1Zy_16wezterm_parallel7process13claude_loggerNtB4_12ClaudeLogger20stop_logging_process
FN:217,_RNvMs_NtNtCsezqlaDlZ1Zy_16wezterm_parallel7process13claude_loggerNtB4_12ClaudeLogger21start_logging_process
FN:264,_RNvMs_NtNtCsezqlaDlZ1Zy_16wezterm_parallel7process13claude_loggerNtB4_12ClaudeLogger3log
FN:152,_RNvMs_NtNtCsezqlaDlZ1Zy_16wezterm_parallel7process13claude_loggerNtB4_12ClaudeLogger3new
FN:200,_RNvMs_NtNtCsezqlaDlZ1Zy_16wezterm_parallel7process13claude_loggerNtB4_12ClaudeLogger4stop
FN:171,_RNvMs_NtNtCsezqlaDlZ1Zy_16wezterm_parallel7process13claude_loggerNtB4_12ClaudeLogger5start
FN:131,_RNvXNtNtCsezqlaDlZ1Zy_16wezterm_parallel7process13claude_loggerNtB2_9LogConfigNtNtCsd2KPTObkMr_4core7default7Default7default
FN:530,_RNCNCNvMs_NtNtCsezqlaDlZ1Zy_16wezterm_parallel7process13claude_loggerNtB8_12ClaudeLogger17cleanup_old_files00Bc_
FN:560,_RNCNCNvMs_NtNtCsezqlaDlZ1Zy_16wezterm_parallel7process13claude_loggerNtB8_12ClaudeLogger18get_log_statistics00Bc_
FN:175,_RNCNCNvMs_NtNtCsezqlaDlZ1Zy_16wezterm_parallel7process13claude_loggerNtB8_12ClaudeLogger5start00Bc_
FN:184,_RNCNCNvMs_NtNtCsezqlaDlZ1Zy_16wezterm_parallel7process13claude_loggerNtB8_12ClaudeLogger5start0s_0Bc_
FN:497,_RNCNvMs_NtNtCsezqlaDlZ1Zy_16wezterm_parallel7process13claude_loggerNtB6_12ClaudeLogger11rotate_logs0Ba_
FN:465,_RNCNvMs_NtNtCsezqlaDlZ1Zy_16wezterm_parallel7process13claude_loggerNtB6_12ClaudeLogger13rotate_stream0Ba_
FN:354,_RNCNvMs_NtNtCsezqlaDlZ1Zy_16wezterm_parallel7process13claude_loggerNtB6_12ClaudeLogger14clone_for_task0Ba_
FN:379,_RNCNvMs_NtNtCsezqlaDlZ1Zy_16wezterm_parallel7process13claude_loggerNtB6_12ClaudeLogger15write_log_entry0Ba_
FN:513,_RNCNvMs_NtNtCsezqlaDlZ1Zy_16wezterm_parallel7process13claude_loggerNtB6_12ClaudeLogger17cleanup_old_files0Ba_
FN:547,_RNCNvMs_NtNtCsezqlaDlZ1Zy_16wezterm_parallel7process13claude_loggerNtB6_12ClaudeLogger17flush_all_streams0Ba_
FN:556,_RNCNvMs_NtNtCsezqlaDlZ1Zy_16wezterm_parallel7process13claude_loggerNtB6_12ClaudeLogger18get_log_statistics0Ba_
FN:370,_RNCNvMs_NtNtCsezqlaDlZ1Zy_16wezterm_parallel7process13claude_loggerNtB6_12ClaudeLogger19process_log_entries0Ba_
FN:254,_RNCNvMs_NtNtCsezqlaDlZ1Zy_16wezterm_parallel7process13claude_loggerNtB6_12ClaudeLogger20stop_logging_process0Ba_
FN:217,_RNCNvMs_NtNtCsezqlaDlZ1Zy_16wezterm_parallel7process13claude_loggerNtB6_12ClaudeLogger21start_logging_process0Ba_
FN:200,_RNCNvMs_NtNtCsezqlaDlZ1Zy_16wezterm_parallel7process13claude_loggerNtB6_12ClaudeLogger4stop0Ba_
FN:171,_RNCNvMs_NtNtCsezqlaDlZ1Zy_16wezterm_parallel7process13claude_loggerNtB6_12ClaudeLogger5start0Ba_
FN:530,_RNCNCNvMs_NtNtCsbBf3qmLqCJ0_16wezterm_parallel7process13claude_loggerNtB8_12ClaudeLogger17cleanup_old_files00Bc_
FN:175,_RNCNCNvMs_NtNtCsbBf3qmLqCJ0_16wezterm_parallel7process13claude_loggerNtB8_12ClaudeLogger5start00Bc_
FN:184,_RNCNCNvMs_NtNtCsbBf3qmLqCJ0_16wezterm_parallel7process13claude_loggerNtB8_12ClaudeLogger5start0s_0Bc_
FN:497,_RNCNvMs_NtNtCsbBf3qmLqCJ0_16wezterm_parallel7process13claude_loggerNtB6_12ClaudeLogger11rotate_logs0Ba_
FN:465,_RNCNvMs_NtNtCsbBf3qmLqCJ0_16wezterm_parallel7process13claude_loggerNtB6_12ClaudeLogger13rotate_stream0Ba_
FN:354,_RNCNvMs_NtNtCsbBf3qmLqCJ0_16wezterm_parallel7process13claude_loggerNtB6_12ClaudeLogger14clone_for_task0Ba_
FN:379,_RNCNvMs_NtNtCsbBf3qmLqCJ0_16wezterm_parallel7process13claude_loggerNtB6_12ClaudeLogger15write_log_entry0Ba_
FN:513,_RNCNvMs_NtNtCsbBf3qmLqCJ0_16wezterm_parallel7process13claude_loggerNtB6_12ClaudeLogger17cleanup_old_files0Ba_
FN:547,_RNCNvMs_NtNtCsbBf3qmLqCJ0_16wezterm_parallel7process13claude_loggerNtB6_12ClaudeLogger17flush_all_streams0Ba_
FN:370,_RNCNvMs_NtNtCsbBf3qmLqCJ0_16wezterm_parallel7process13claude_loggerNtB6_12ClaudeLogger19process_log_entries0Ba_
FN:254,_RNCNvMs_NtNtCsbBf3qmLqCJ0_16wezterm_parallel7process13claude_loggerNtB6_12ClaudeLogger20stop_logging_process0Ba_
FN:200,_RNCNvMs_NtNtCsbBf3qmLqCJ0_16wezterm_parallel7process13claude_loggerNtB6_12ClaudeLogger4stop0Ba_
FN:171,_RNCNvMs_NtNtCsbBf3qmLqCJ0_16wezterm_parallel7process13claude_loggerNtB6_12ClaudeLogger5start0Ba_
FN:497,_RNvMs_NtNtCsbBf3qmLqCJ0_16wezterm_parallel7process13claude_loggerNtB4_12ClaudeLogger11rotate_logs
FN:465,_RNvMs_NtNtCsbBf3qmLqCJ0_16wezterm_parallel7process13claude_loggerNtB4_12ClaudeLogger13rotate_stream
FN:354,_RNvMs_NtNtCsbBf3qmLqCJ0_16wezterm_parallel7process13claude_loggerNtB4_12ClaudeLogger14clone_for_task
FN:325,_RNvMs_NtNtCsbBf3qmLqCJ0_16wezterm_parallel7process13claude_loggerNtB4_12ClaudeLogger15log_health_info
FN:379,_RNvMs_NtNtCsbBf3qmLqCJ0_16wezterm_parallel7process13claude_loggerNtB4_12ClaudeLogger15write_log_entry
FN:513,_RNvMs_NtNtCsbBf3qmLqCJ0_16wezterm_parallel7process13claude_loggerNtB4_12ClaudeLogger17cleanup_old_files
FN:547,_RNvMs_NtNtCsbBf3qmLqCJ0_16wezterm_parallel7process13claude_loggerNtB4_12ClaudeLogger17flush_all_streams
FN:370,_RNvMs_NtNtCsbBf3qmLqCJ0_16wezterm_parallel7process13claude_loggerNtB4_12ClaudeLogger19process_log_entries
FN:254,_RNvMs_NtNtCsbBf3qmLqCJ0_16wezterm_parallel7process13claude_loggerNtB4_12ClaudeLogger20stop_logging_process
FN:200,_RNvMs_NtNtCsbBf3qmLqCJ0_16wezterm_parallel7process13claude_loggerNtB4_12ClaudeLogger4stop
FN:171,_RNvMs_NtNtCsbBf3qmLqCJ0_16wezterm_parallel7process13claude_loggerNtB4_12ClaudeLogger5start
FN:593,_RNCNvNtNtNtCsbBf3qmLqCJ0_16wezterm_parallel7process13claude_logger5tests18create_test_logger0B9_
FN:668,_RNCNvNtNtNtCsbBf3qmLqCJ0_16wezterm_parallel7process13claude_logger5testss_19test_log_statistics0B9_
FN:649,_RNCNvNtNtNtCsbBf3qmLqCJ0_16wezterm_parallel7process13claude_logger5testss_22test_log_claude_output0B9_
FN:685,_RNCNvNtNtNtCsbBf3qmLqCJ0_16wezterm_parallel7process13claude_logger5testss_23test_debug_info_logging0B9_
FN:628,_RNCNvNtNtNtCsbBf3qmLqCJ0_16wezterm_parallel7process13claude_logger5testss_25test_log_entry_formatting0B9_
FN:614,_RNCNvNtNtNtCsbBf3qmLqCJ0_16wezterm_parallel7process13claude_logger5testss_26test_start_logging_process0B9_
FN:607,_RNCNvNtNtNtCsbBf3qmLqCJ0_16wezterm_parallel7process13claude_logger5testss_27test_claude_logger_creation0B9_
FN:301,_RNvMs_NtNtCsbBf3qmLqCJ0_16wezterm_parallel7process13claude_loggerNtB4_12ClaudeLogger14log_debug_info
FN:443,_RNvMs_NtNtCsbBf3qmLqCJ0_16wezterm_parallel7process13claude_loggerNtB4_12ClaudeLogger15level_to_string
FN:407,_RNvMs_NtNtCsbBf3qmLqCJ0_16wezterm_parallel7process13claude_loggerNtB4_12ClaudeLogger16format_log_entry
FN:454,_RNvMs_NtNtCsbBf3qmLqCJ0_16wezterm_parallel7process13claude_loggerNtB4_12ClaudeLogger16source_to_string
FN:346,_RNvMs_NtNtCsbBf3qmLqCJ0_16wezterm_parallel7process13claude_loggerNtB4_12ClaudeLogger17get_log_file_path
FN:271,_RNvMs_NtNtCsbBf3qmLqCJ0_16wezterm_parallel7process13claude_loggerNtB4_12ClaudeLogger17log_claude_output
FN:556,_RNvMs_NtNtCsbBf3qmLqCJ0_16wezterm_parallel7process13claude_loggerNtB4_12ClaudeLogger18get_log_statistics
FN:217,_RNvMs_NtNtCsbBf3qmLqCJ0_16wezterm_parallel7process13claude_loggerNtB4_12ClaudeLogger21start_logging_process
FN:264,_RNvMs_NtNtCsbBf3qmLqCJ0_16wezterm_parallel7process13claude_loggerNtB4_12ClaudeLogger3log
